Certificate:
    Data:
        Version: 3 (0x2)
        Serial Number:
            90:4c:66:1b:96:18:b9:99:11:ea:e2:b7:9b:98:cf:b8
        Signature Algorithm: sha256WithRSAEncryption
        Issuer: C=US, O=Portland State University, CN=Sub CA
        Validity
            Not Before: Apr 29 02:59:17 2021 GMT
            Not After : Apr 29 02:59:17 2022 GMT
        Subject: C=US, O=Portland State University, CN=Sub CA
        Subject Public Key Info:
            Public Key Algorithm: rsaEncryption
                RSA Public-Key: (2048 bit)
                Modulus:
                    00:ce:54:2b:d1:e1:cb:35:37:28:62:8e:1f:47:5d:
                    de:80:ab:ce:ea:57:38:53:15:90:03:63:da:b5:de:
                    98:03:26:e4:98:42:7f:f4:ad:fa:53:90:74:b8:16:
                    84:2d:a6:d0:1f:75:d3:06:00:ad:b8:ae:45:01:a1:
                    f7:2c:c4:9b:3e:fd:77:ee:eb:9d:ae:78:f4:85:dc:
                    5b:7d:0c:60:f5:0b:98:2e:f9:32:7c:1b:31:b7:80:
                    93:42:9f:2c:5c:2f:84:23:5b:7d:17:1c:6e:73:bf:
                    6e:99:c0:34:e9:85:ea:1c:fe:4a:95:ec:bb:c3:cb:
                    26:ad:a0:9b:5b:4e:d4:c7:24:70:40:84:d1:93:f6:
                    b6:d1:e1:f0:f6:0b:56:fd:2e:ef:5c:9a:2d:03:a0:
                    a9:a2:46:4d:aa:25:1c:5c:7c:a2:51:df:e9:aa:ce:
                    54:79:58:f3:88:f3:78:10:ef:d7:41:a2:28:e6:3a:
                    1d:9d:d7:b1:35:da:58:75:ad:65:6c:e8:fc:b0:a3:
                    10:ba:a8:23:4b:fb:be:a2:41:16:20:38:e2:3a:39:
                    59:c0:04:50:8b:dc:4f:10:fb:81:64:e4:a1:da:69:
                    56:26:f9:89:12:5b:21:02:4a:c5:7c:c6:9f:f2:b1:
                    d8:49:8a:fe:d2:03:79:70:03:d1:c3:5e:81:b2:da:
                    36:9d
                Exponent: 65537 (0x10001)
        X509v3 extensions:
            Authority Information Access: 
                CA Issuers - URI:http://sub-ca.localhost/sub-ca.crt
                OCSP - URI:http://ocsp.sub-ca.localhost:9081

            X509v3 Authority Key Identifier: 
                keyid:20:4E:F0:B3:1E:BF:BC:1F:35:6A:C5:70:8E:A0:D8:70:D5:D1:57:44

            X509v3 Basic Constraints: critical
                CA:FALSE
            X509v3 CRL Distribution Points: 

                Full Name:
                  URI:http://sub-ca.localhost/sub-ca.crl

            X509v3 Extended Key Usage: 
                TLS Web Client Authentication
            X509v3 Key Usage: critical
                Digital Signature
            X509v3 Subject Key Identifier: 
                BC:E8:6F:EE:26:93:8F:F2:2D:07:B0:09:4E:A2:6A:16:1F:97:52:EC
    Signature Algorithm: sha256WithRSAEncryption
         9d:dd:3b:21:8d:fb:d6:86:a4:83:7b:80:0d:15:02:e5:03:3c:
         59:ab:d5:df:8c:76:34:f2:05:ae:e4:c5:e3:af:b8:cf:91:57:
         f1:81:f7:77:8e:fa:8b:00:c4:a5:ae:7b:47:e0:8d:88:75:07:
         97:06:ea:b2:55:bb:52:24:b0:29:d2:92:8e:78:5f:7e:b0:5a:
         e8:69:31:cf:e0:ad:99:2b:75:f1:8a:09:e6:2b:28:98:02:ad:
         90:82:45:85:f2:e1:be:ee:11:9c:ad:04:a6:a6:8b:0f:47:4d:
         a5:66:66:40:56:cc:0c:38:cb:89:91:02:34:5a:88:58:e7:cd:
         d0:d5:87:89:18:87:64:20:7b:34:65:a3:f6:66:bc:5b:d1:2c:
         fe:b4:ab:1a:80:a6:f0:2c:e3:a6:ce:95:4a:e9:cc:6e:32:ad:
         c3:d2:45:7d:1e:ec:95:1f:6c:49:fc:83:f4:46:8c:76:8f:79:
         cc:4f:b1:98:ae:9c:03:b0:27:dc:33:c1:39:4f:2b:89:8d:6a:
         c0:ad:be:e2:f1:da:14:ae:93:6a:e5:c7:4d:d6:1e:08:9e:c8:
         04:ed:eb:d8:f8:ea:4e:40:1b:0d:e4:11:f5:7c:52:2c:a4:79:
         97:8a:83:ce:dd:f2:87:84:89:f2:f7:df:98:48:a1:51:57:4b:
         c5:f7:7d:ca
-----BEGIN CERTIFICATE-----
MIIELDCCAxSgAwIBAgIRAJBMZhuWGLmZEerit5uYz7gwDQYJKoZIhvcNAQELBQAw
QjELMAkGA1UEBhMCVVMxIjAgBgNVBAoMGVBvcnRsYW5kIFN0YXRlIFVuaXZlcnNp
dHkxDzANBgNVBAMMBlN1YiBDQTAeFw0yMTA0MjkwMjU5MTdaFw0yMjA0MjkwMjU5
MTdaMEIxCzAJBgNVBAYTAlVTMSIwIAYDVQQKDBlQb3J0bGFuZCBTdGF0ZSBVbml2
ZXJzaXR5MQ8wDQYDVQQDDAZTdWIgQ0EwggEiMA0GCSqGSIb3DQEBAQUAA4IBDwAw
ggEKAoIBAQDOVCvR4cs1Nyhijh9HXd6Aq87qVzhTFZADY9q13pgDJuSYQn/0rfpT
kHS4FoQtptAfddMGAK24rkUBofcsxJs+/Xfu652uePSF3Ft9DGD1C5gu+TJ8GzG3
gJNCnyxcL4QjW30XHG5zv26ZwDTpheoc/kqV7LvDyyatoJtbTtTHJHBAhNGT9rbR
4fD2C1b9Lu9cmi0DoKmiRk2qJRxcfKJR3+mqzlR5WPOI83gQ79dBoijmOh2d17E1
2lh1rWVs6PywoxC6qCNL+76iQRYgOOI6OVnABFCL3E8Q+4Fk5KHaaVYm+YkSWyEC
SsV8xp/ysdhJiv7SA3lwA9HDXoGy2jadAgMBAAGjggEbMIIBFzBtBggrBgEFBQcB
AQRhMF8wLgYIKwYBBQUHMAKGImh0dHA6Ly9zdWItY2EubG9jYWxob3N0L3N1Yi1j
YS5jcnQwLQYIKwYBBQUHMAGGIWh0dHA6Ly9vY3NwLnN1Yi1jYS5sb2NhbGhvc3Q6
OTA4MTAfBgNVHSMEGDAWgBQgTvCzHr+8HzVqxXCOoNhw1dFXRDAMBgNVHRMBAf8E
AjAAMDMGA1UdHwQsMCowKKAmoCSGImh0dHA6Ly9zdWItY2EubG9jYWxob3N0L3N1
Yi1jYS5jcmwwEwYDVR0lBAwwCgYIKwYBBQUHAwIwDgYDVR0PAQH/BAQDAgeAMB0G
A1UdDgQWBBS86G/uJpOP8i0HsAlOomoWH5dS7DANBgkqhkiG9w0BAQsFAAOCAQEA
nd07IY371oakg3uADRUC5QM8WavV34x2NPIFruTF46+4z5FX8YH3d476iwDEpa57
R+CNiHUHlwbqslW7UiSwKdKSjnhffrBa6Gkxz+CtmSt18YoJ5isomAKtkIJFhfLh
vu4RnK0EpqaLD0dNpWZmQFbMDDjLiZECNFqIWOfN0NWHiRiHZCB7NGWj9ma8W9Es
/rSrGoCm8Czjps6VSunMbjKtw9JFfR7slR9sSfyD9EaMdo95zE+xmK6cA7An3DPB
OU8riY1qwK2+4vHaFK6TauXHTdYeCJ7IBO3r2PjqTkAbDeQR9XxSLKR5l4qDzt3y
h4SJ8vffmEihUVdLxfd9yg==
-----END CERTIFICATE-----
