Certificate:
    Data:
        Version: 3 (0x2)
        Serial Number:
            90:4c:66:1b:96:18:b9:99:11:ea:e2:b7:9b:98:cf:b4
        Signature Algorithm: sha256WithRSAEncryption
        Issuer: C=US, O=Portland State University, CN=Root CA
        Validity
            Not Before: Apr 29 02:02:58 2021 GMT
            Not After : Apr 27 02:02:58 2031 GMT
        Subject: C=US, O=Portland State University, CN=Root CA
        Subject Public Key Info:
            Public Key Algorithm: rsaEncryption
                RSA Public-Key: (2048 bit)
                Modulus:
                    00:ac:4e:b2:16:a2:2d:6f:01:e1:48:f4:a7:78:e7:
                    9f:25:99:24:51:42:b2:7d:fd:b0:f0:44:86:a9:e3:
                    5d:26:2d:5e:f9:11:a0:30:d8:82:46:0f:35:3e:bf:
                    39:a9:4c:e7:8c:f5:8b:a1:dd:33:6a:25:ce:38:27:
                    7a:bc:27:44:c3:af:90:ee:92:cb:b4:40:8d:a2:c0:
                    c3:86:a9:bf:0d:3a:38:4d:d7:ad:a0:e3:61:57:f8:
                    e0:d4:cd:89:96:b0:d8:6d:19:0d:eb:5c:b5:40:09:
                    a2:ea:be:b3:8b:2d:f8:39:e0:ea:25:5b:42:c2:a4:
                    d7:e4:b9:e4:77:10:83:6c:28:ec:ec:7d:39:d1:a6:
                    21:98:dc:1c:d7:36:ae:8e:b8:29:e6:16:b8:36:6c:
                    77:e5:54:71:52:ff:d1:4b:39:b5:04:c2:53:5a:40:
                    2a:d0:65:3d:da:a1:3c:19:63:43:97:e5:63:ef:66:
                    c5:ff:11:dc:58:3e:c8:e2:0e:fe:fb:22:99:e3:01:
                    fd:47:64:31:ee:ef:8a:92:9d:e0:fd:86:cd:3a:d6:
                    bd:4d:e6:a7:a6:ae:97:32:cc:9f:b5:19:30:54:9c:
                    ee:bf:ad:b0:bc:94:10:72:28:c3:87:6b:71:de:a8:
                    39:d9:2e:22:65:a6:19:45:4d:87:20:a3:4a:32:6d:
                    e1:67
                Exponent: 65537 (0x10001)
        X509v3 extensions:
            X509v3 Basic Constraints: critical
                CA:TRUE
            X509v3 Key Usage: critical
                Certificate Sign, CRL Sign
            X509v3 Subject Key Identifier: 
                E8:F9:70:86:85:2D:CF:DF:D0:A0:6A:D6:CF:B3:BA:FC:C4:E0:4B:56
    Signature Algorithm: sha256WithRSAEncryption
         38:45:ca:1d:dd:00:c5:c3:75:b9:fe:3e:7f:01:bd:69:10:42:
         5c:f6:4c:17:be:7b:c4:66:38:1f:d8:4b:4b:9a:ac:4f:ba:0e:
         6f:5f:39:05:3d:29:a8:f2:d7:c6:a1:d5:96:9d:04:76:0d:13:
         ce:c4:55:15:c7:69:d8:18:48:bb:70:4d:f6:63:b0:40:6e:42:
         a6:e2:50:18:7d:fa:ca:75:8b:25:2b:1a:6b:ae:b9:77:5d:a5:
         2e:f0:86:b9:a1:84:09:9e:30:e5:b3:f3:b8:d7:45:bf:43:9e:
         ef:4e:1c:29:c1:87:e5:0b:c1:cf:e3:13:24:9d:71:56:b9:04:
         0e:64:28:a8:49:6c:25:47:f8:06:1f:c7:f1:2d:a8:ca:81:e5:
         47:76:74:3c:06:0f:f1:29:ad:f8:32:63:67:51:ff:d9:12:5a:
         e0:e4:cc:57:3c:5e:ca:53:88:8b:a9:4d:69:92:a0:aa:84:5e:
         36:e4:09:29:b9:a8:62:a1:e0:cb:9e:e4:af:e6:70:69:9f:bc:
         8e:21:97:ea:d2:33:67:3c:98:90:8e:0d:f7:cf:f5:d3:86:ec:
         7a:b0:b5:55:12:2f:2a:de:e3:9b:e1:5d:c2:d0:84:f8:0f:b4:
         93:18:35:68:bb:09:04:9d:c2:5d:cb:79:cd:b9:e6:c7:4f:cc:
         21:54:7d:9b
-----BEGIN CERTIFICATE-----
MIIDUzCCAjugAwIBAgIRAJBMZhuWGLmZEerit5uYz7QwDQYJKoZIhvcNAQELBQAw
QzELMAkGA1UEBhMCVVMxIjAgBgNVBAoMGVBvcnRsYW5kIFN0YXRlIFVuaXZlcnNp
dHkxEDAOBgNVBAMMB1Jvb3QgQ0EwHhcNMjEwNDI5MDIwMjU4WhcNMzEwNDI3MDIw
MjU4WjBDMQswCQYDVQQGEwJVUzEiMCAGA1UECgwZUG9ydGxhbmQgU3RhdGUgVW5p
dmVyc2l0eTEQMA4GA1UEAwwHUm9vdCBDQTCCASIwDQYJKoZIhvcNAQEBBQADggEP
ADCCAQoCggEBAKxOshaiLW8B4Uj0p3jnnyWZJFFCsn39sPBEhqnjXSYtXvkRoDDY
gkYPNT6/OalM54z1i6HdM2olzjgnerwnRMOvkO6Sy7RAjaLAw4apvw06OE3XraDj
YVf44NTNiZaw2G0ZDetctUAJouq+s4st+Dng6iVbQsKk1+S55HcQg2wo7Ox9OdGm
IZjcHNc2ro64KeYWuDZsd+VUcVL/0Us5tQTCU1pAKtBlPdqhPBljQ5flY+9mxf8R
3Fg+yOIO/vsimeMB/UdkMe7vipKd4P2GzTrWvU3mp6aulzLMn7UZMFSc7r+tsLyU
EHIow4drcd6oOdkuImWmGUVNhyCjSjJt4WcCAwEAAaNCMEAwDwYDVR0TAQH/BAUw
AwEB/zAOBgNVHQ8BAf8EBAMCAQYwHQYDVR0OBBYEFOj5cIaFLc/f0KBq1s+zuvzE
4EtWMA0GCSqGSIb3DQEBCwUAA4IBAQA4Rcod3QDFw3W5/j5/Ab1pEEJc9kwXvnvE
Zjgf2EtLmqxPug5vXzkFPSmo8tfGodWWnQR2DRPOxFUVx2nYGEi7cE32Y7BAbkKm
4lAYffrKdYslKxprrrl3XaUu8Ia5oYQJnjDls/O410W/Q57vThwpwYflC8HP4xMk
nXFWuQQOZCioSWwlR/gGH8fxLajKgeVHdnQ8Bg/xKa34MmNnUf/ZElrg5MxXPF7K
U4iLqU1pkqCqhF425AkpuahioeDLnuSv5nBpn7yOIZfq0jNnPJiQjg33z/XThux6
sLVVEi8q3uOb4V3C0IT4D7STGDVouwkEncJdy3nNuebHT8whVH2b
-----END CERTIFICATE-----
