Certificate:
    Data:
        Version: 3 (0x2)
        Serial Number:
            90:4c:66:1b:96:18:b9:99:11:ea:e2:b7:9b:98:cf:d6
        Signature Algorithm: sha256WithRSAEncryption
        Issuer: C=US, O=Portland State University, CN=Sub CA
        Validity
            Not Before: Apr  5 20:37:20 2022 GMT
            Not After : Apr  5 20:37:20 2023 GMT
        Subject: C=US, O=Portland State University, CN=Sub CA
        Subject Public Key Info:
            Public Key Algorithm: rsaEncryption
                RSA Public-Key: (2048 bit)
                Modulus:
                    00:aa:d7:9f:b6:df:c3:27:da:1a:71:f0:01:95:b2:
                    a7:17:72:84:71:17:5c:d1:00:4a:b2:81:4d:c4:a7:
                    26:67:a1:85:73:04:af:16:9f:38:ca:81:ec:e6:fb:
                    dd:c4:aa:22:e8:cb:32:c7:ee:aa:c7:b0:4c:a2:4c:
                    d8:85:56:fe:72:ee:cf:bb:44:7c:31:83:b9:f0:f9:
                    1e:12:0c:43:95:e3:7e:ad:47:11:1b:8f:0a:71:c8:
                    8f:05:f3:9f:a2:3c:c5:f2:e3:fe:32:cb:f8:aa:26:
                    02:d6:56:95:72:ba:cb:12:25:7c:ed:d2:2a:e9:fb:
                    f9:9c:e1:10:5a:ed:7b:51:9a:56:e1:9d:50:8a:0c:
                    49:b4:84:4b:d5:5c:ce:de:c3:f5:58:eb:cd:f4:cb:
                    29:5b:9f:01:40:7f:34:27:e1:48:89:b1:e8:20:4e:
                    09:d0:8a:42:05:c7:45:38:24:7f:5d:99:08:69:2a:
                    fd:e4:62:c8:56:49:ba:15:9f:55:fc:10:6e:26:6d:
                    64:b9:07:4f:66:cd:ce:ca:28:4d:aa:38:56:87:9d:
                    2d:fe:ed:35:e1:8f:b2:9e:8c:a4:60:27:d0:ae:6c:
                    0a:6b:42:00:9c:b6:62:98:db:07:47:13:aa:e7:78:
                    54:f1:8a:af:fb:1f:28:a8:d6:3e:d4:82:92:b9:c3:
                    9b:45
                Exponent: 65537 (0x10001)
        X509v3 extensions:
            Authority Information Access: 
                CA Issuers - URI:http://sub-ca.localhost/sub-ca.crt
                OCSP - URI:http://ocsp.sub-ca.localhost:9081

            X509v3 Authority Key Identifier: 
                keyid:20:4E:F0:B3:1E:BF:BC:1F:35:6A:C5:70:8E:A0:D8:70:D5:D1:57:44

            X509v3 Basic Constraints: critical
                CA:FALSE
            X509v3 CRL Distribution Points: 

                Full Name:
                  URI:http://sub-ca.localhost/sub-ca.crl

            X509v3 Extended Key Usage: 
                TLS Web Client Authentication
            X509v3 Key Usage: critical
                Digital Signature
            X509v3 Subject Key Identifier: 
                8B:CC:B1:45:65:1A:0A:EC:07:90:55:D0:A0:94:73:3F:81:24:20:83
    Signature Algorithm: sha256WithRSAEncryption
         39:54:29:e6:20:b5:67:8d:9b:99:5f:1c:55:51:4a:09:91:9e:
         a9:28:c4:57:84:1d:ab:aa:c1:2d:6a:d8:ea:24:aa:a0:f8:1f:
         ff:25:a8:ce:ed:52:04:ab:d5:d9:08:44:26:52:52:ec:cd:80:
         d3:d6:9d:63:dd:f1:ff:45:9b:29:01:ac:e0:d8:0c:25:f9:a4:
         24:a6:ee:22:05:13:9f:fd:60:fd:6f:fd:6f:38:60:29:c9:c3:
         9c:08:bf:21:90:46:ec:fc:15:aa:38:b0:bb:bc:b0:56:1e:85:
         69:dd:af:59:48:83:0f:41:af:5e:63:1d:e4:19:d2:8d:af:20:
         88:90:8d:a7:7b:cb:7e:a6:48:4b:a0:32:b1:f9:10:31:5b:f1:
         63:4d:96:60:91:a7:5c:a2:bd:98:7a:ce:e6:b3:92:3b:cd:eb:
         4e:7e:45:40:8d:3e:56:f7:1c:36:33:db:67:23:70:d0:4c:fd:
         9b:56:7b:bb:76:eb:5e:f7:05:36:17:8d:92:50:88:dd:58:18:
         b4:41:dd:7b:a4:f4:c4:c2:39:80:c3:42:83:56:0f:3f:0f:ef:
         19:65:c2:83:2c:65:9a:cf:3f:68:c4:56:ab:17:08:32:74:c5:
         0c:34:0b:bc:89:b1:bc:9c:0e:59:25:2c:97:3d:f3:4c:cf:46:
         1a:17:d6:95
-----BEGIN CERTIFICATE-----
MIIELDCCAxSgAwIBAgIRAJBMZhuWGLmZEerit5uYz9YwDQYJKoZIhvcNAQELBQAw
QjELMAkGA1UEBhMCVVMxIjAgBgNVBAoMGVBvcnRsYW5kIFN0YXRlIFVuaXZlcnNp
dHkxDzANBgNVBAMMBlN1YiBDQTAeFw0yMjA0MDUyMDM3MjBaFw0yMzA0MDUyMDM3
MjBaMEIxCzAJBgNVBAYTAlVTMSIwIAYDVQQKDBlQb3J0bGFuZCBTdGF0ZSBVbml2
ZXJzaXR5MQ8wDQYDVQQDDAZTdWIgQ0EwggEiMA0GCSqGSIb3DQEBAQUAA4IBDwAw
ggEKAoIBAQCq15+238Mn2hpx8AGVsqcXcoRxF1zRAEqygU3EpyZnoYVzBK8WnzjK
gezm+93EqiLoyzLH7qrHsEyiTNiFVv5y7s+7RHwxg7nw+R4SDEOV436tRxEbjwpx
yI8F85+iPMXy4/4yy/iqJgLWVpVyussSJXzt0irp+/mc4RBa7XtRmlbhnVCKDEm0
hEvVXM7ew/VY6830yylbnwFAfzQn4UiJseggTgnQikIFx0U4JH9dmQhpKv3kYshW
SboVn1X8EG4mbWS5B09mzc7KKE2qOFaHnS3+7TXhj7KejKRgJ9CubAprQgCctmKY
2wdHE6rneFTxiq/7Hyio1j7UgpK5w5tFAgMBAAGjggEbMIIBFzBtBggrBgEFBQcB
AQRhMF8wLgYIKwYBBQUHMAKGImh0dHA6Ly9zdWItY2EubG9jYWxob3N0L3N1Yi1j
YS5jcnQwLQYIKwYBBQUHMAGGIWh0dHA6Ly9vY3NwLnN1Yi1jYS5sb2NhbGhvc3Q6
OTA4MTAfBgNVHSMEGDAWgBQgTvCzHr+8HzVqxXCOoNhw1dFXRDAMBgNVHRMBAf8E
AjAAMDMGA1UdHwQsMCowKKAmoCSGImh0dHA6Ly9zdWItY2EubG9jYWxob3N0L3N1
Yi1jYS5jcmwwEwYDVR0lBAwwCgYIKwYBBQUHAwIwDgYDVR0PAQH/BAQDAgeAMB0G
A1UdDgQWBBSLzLFFZRoK7AeQVdCglHM/gSQggzANBgkqhkiG9w0BAQsFAAOCAQEA
OVQp5iC1Z42bmV8cVVFKCZGeqSjEV4Qdq6rBLWrY6iSqoPgf/yWozu1SBKvV2QhE
JlJS7M2A09adY93x/0WbKQGs4NgMJfmkJKbuIgUTn/1g/W/9bzhgKcnDnAi/IZBG
7PwVqjiwu7ywVh6Fad2vWUiDD0GvXmMd5BnSja8giJCNp3vLfqZIS6AysfkQMVvx
Y02WYJGnXKK9mHrO5rOSO83rTn5FQI0+VvccNjPbZyNw0Ez9m1Z7u3brXvcFNheN
klCI3VgYtEHde6T0xMI5gMNCg1YPPw/vGWXCgyxlms8/aMRWqxcIMnTFDDQLvImx
vJwOWSUslz3zTM9GGhfWlQ==
-----END CERTIFICATE-----
