Certificate:
    Data:
        Version: 3 (0x2)
        Serial Number:
            90:4c:66:1b:96:18:b9:99:11:ea:e2:b7:9b:98:cf:da
        Signature Algorithm: sha256WithRSAEncryption
        Issuer: C=US, O=Portland State University, CN=Sub CA
        Validity
            Not Before: Apr  5 20:37:21 2022 GMT
            Not After : Apr  5 20:37:21 2023 GMT
        Subject: C=US, O=Portland State University, CN=Sub CA
        Subject Public Key Info:
            Public Key Algorithm: rsaEncryption
                RSA Public-Key: (2048 bit)
                Modulus:
                    00:cf:d7:08:f2:fe:22:c2:83:f1:f1:88:94:43:a4:
                    6c:e2:a7:75:85:00:e0:d7:ef:ba:5e:6f:08:47:21:
                    42:d8:ec:ea:1e:3f:d8:7e:4f:75:84:9e:29:f4:02:
                    db:75:78:82:48:84:d2:f5:33:9b:87:4b:54:c2:28:
                    bf:27:0b:02:43:07:18:87:ca:8a:55:a9:66:46:f0:
                    23:25:8f:55:a0:03:2d:f4:21:71:12:bc:f9:4e:43:
                    50:11:72:cd:af:ac:02:ff:a7:6f:1c:0e:dd:af:ed:
                    98:13:7f:4d:ae:25:22:a4:80:6d:11:e5:b0:bc:48:
                    17:7e:4a:f4:bc:f9:da:52:dc:0f:46:4a:91:e8:fc:
                    e3:87:e9:37:d6:66:02:c8:1a:93:99:8e:1b:64:7a:
                    cd:a2:7e:40:44:f0:0a:2b:f1:a3:e8:6c:64:06:77:
                    a9:d6:95:68:e3:3d:4b:75:f6:d9:dd:24:40:13:e4:
                    ad:b8:6c:7f:c4:62:8c:c3:c7:40:58:14:14:d8:c1:
                    6d:9c:b5:f8:78:89:fa:ff:71:42:03:47:e2:42:13:
                    de:5a:e6:db:f3:7a:46:7c:ff:f7:95:9d:55:5b:19:
                    64:94:fb:6c:95:28:e3:92:4c:db:49:e9:3c:80:4f:
                    dd:37:6a:6b:fb:54:bd:de:f0:90:6e:68:ac:55:fb:
                    bd:bd
                Exponent: 65537 (0x10001)
        X509v3 extensions:
            Authority Information Access: 
                CA Issuers - URI:http://sub-ca.localhost/sub-ca.crt
                OCSP - URI:http://ocsp.sub-ca.localhost:9081

            X509v3 Authority Key Identifier: 
                keyid:20:4E:F0:B3:1E:BF:BC:1F:35:6A:C5:70:8E:A0:D8:70:D5:D1:57:44

            X509v3 Basic Constraints: critical
                CA:FALSE
            X509v3 CRL Distribution Points: 

                Full Name:
                  URI:http://sub-ca.localhost/sub-ca.crl

            X509v3 Extended Key Usage: 
                TLS Web Client Authentication
            X509v3 Key Usage: critical
                Digital Signature
            X509v3 Subject Key Identifier: 
                13:65:FD:77:6D:FE:D5:3D:05:C6:64:BE:AE:11:47:53:CC:9F:7C:95
    Signature Algorithm: sha256WithRSAEncryption
         20:91:c1:48:48:5f:b5:45:50:d9:59:8a:ed:08:ee:ea:b2:50:
         98:92:01:75:e6:05:ee:39:fd:e5:1f:28:88:bf:d8:bf:cf:1f:
         e0:f9:f6:ad:10:e8:78:e1:71:2b:ab:f0:69:11:d3:a3:46:09:
         92:40:64:33:0d:56:bd:0c:3b:a7:2c:99:4c:0a:69:45:cc:81:
         55:46:2b:77:64:b3:48:99:35:14:0f:7f:6a:89:28:02:5e:bb:
         8c:f2:a9:7e:dc:e9:b5:cd:98:56:1c:dc:63:1a:2c:68:16:2c:
         35:dd:ad:ba:d4:d5:95:a5:b6:2f:a8:55:b3:04:af:5e:c6:cf:
         24:bf:15:d9:be:0b:c5:fe:30:da:4e:bb:2c:3b:db:56:eb:c5:
         a1:e0:6c:f6:ec:24:62:03:1e:d9:bd:d4:1c:2c:7f:20:d9:81:
         d6:d1:df:21:34:99:41:39:ce:27:76:a7:1a:98:de:2a:3c:7e:
         da:35:43:97:dc:b9:19:df:0c:f0:92:51:cd:1f:dc:8b:d8:16:
         af:39:df:6d:5b:ce:c9:8b:5a:42:37:ad:8c:3d:df:2b:a6:47:
         ba:ab:58:19:a0:a1:1a:7d:c2:6e:ea:df:66:c9:a8:f6:5c:40:
         7e:f2:e7:9e:8e:e7:3f:2e:b5:0c:8a:92:b0:2f:93:44:57:b1:
         fe:92:12:d0
-----BEGIN CERTIFICATE-----
MIIELDCCAxSgAwIBAgIRAJBMZhuWGLmZEerit5uYz9owDQYJKoZIhvcNAQELBQAw
QjELMAkGA1UEBhMCVVMxIjAgBgNVBAoMGVBvcnRsYW5kIFN0YXRlIFVuaXZlcnNp
dHkxDzANBgNVBAMMBlN1YiBDQTAeFw0yMjA0MDUyMDM3MjFaFw0yMzA0MDUyMDM3
MjFaMEIxCzAJBgNVBAYTAlVTMSIwIAYDVQQKDBlQb3J0bGFuZCBTdGF0ZSBVbml2
ZXJzaXR5MQ8wDQYDVQQDDAZTdWIgQ0EwggEiMA0GCSqGSIb3DQEBAQUAA4IBDwAw
ggEKAoIBAQDP1wjy/iLCg/HxiJRDpGzip3WFAODX77pebwhHIULY7OoeP9h+T3WE
nin0Att1eIJIhNL1M5uHS1TCKL8nCwJDBxiHyopVqWZG8CMlj1WgAy30IXESvPlO
Q1ARcs2vrAL/p28cDt2v7ZgTf02uJSKkgG0R5bC8SBd+SvS8+dpS3A9GSpHo/OOH
6TfWZgLIGpOZjhtkes2ifkBE8Aor8aPobGQGd6nWlWjjPUt19tndJEAT5K24bH/E
YozDx0BYFBTYwW2ctfh4ifr/cUIDR+JCE95a5tvzekZ8//eVnVVbGWSU+2yVKOOS
TNtJ6TyAT903amv7VL3e8JBuaKxV+729AgMBAAGjggEbMIIBFzBtBggrBgEFBQcB
AQRhMF8wLgYIKwYBBQUHMAKGImh0dHA6Ly9zdWItY2EubG9jYWxob3N0L3N1Yi1j
YS5jcnQwLQYIKwYBBQUHMAGGIWh0dHA6Ly9vY3NwLnN1Yi1jYS5sb2NhbGhvc3Q6
OTA4MTAfBgNVHSMEGDAWgBQgTvCzHr+8HzVqxXCOoNhw1dFXRDAMBgNVHRMBAf8E
AjAAMDMGA1UdHwQsMCowKKAmoCSGImh0dHA6Ly9zdWItY2EubG9jYWxob3N0L3N1
Yi1jYS5jcmwwEwYDVR0lBAwwCgYIKwYBBQUHAwIwDgYDVR0PAQH/BAQDAgeAMB0G
A1UdDgQWBBQTZf13bf7VPQXGZL6uEUdTzJ98lTANBgkqhkiG9w0BAQsFAAOCAQEA
IJHBSEhftUVQ2VmK7Qju6rJQmJIBdeYF7jn95R8oiL/Yv88f4Pn2rRDoeOFxK6vw
aRHTo0YJkkBkMw1WvQw7pyyZTAppRcyBVUYrd2SzSJk1FA9/aokoAl67jPKpftzp
tc2YVhzcYxosaBYsNd2tutTVlaW2L6hVswSvXsbPJL8V2b4Lxf4w2k67LDvbVuvF
oeBs9uwkYgMe2b3UHCx/INmB1tHfITSZQTnOJ3anGpjeKjx+2jVDl9y5Gd8M8JJR
zR/ci9gWrznfbVvOyYtaQjetjD3fK6ZHuqtYGaChGn3CburfZsmo9lxAfvLnno7n
Py61DIqSsC+TRFex/pIS0A==
-----END CERTIFICATE-----
