Certificate:
    Data:
        Version: 3 (0x2)
        Serial Number:
            90:4c:66:1b:96:18:b9:99:11:ea:e2:b7:9b:98:d0:02
        Signature Algorithm: sha256WithRSAEncryption
        Issuer: C=US, O=Portland State University, CN=Sub CA
        Validity
            Not Before: Apr  5 20:37:25 2022 GMT
            Not After : Apr  5 20:37:25 2023 GMT
        Subject: C=US, O=Portland State University, CN=Sub CA
        Subject Public Key Info:
            Public Key Algorithm: rsaEncryption
                RSA Public-Key: (2048 bit)
                Modulus:
                    00:db:66:e1:ad:b5:08:62:cc:70:cf:d1:86:d1:ec:
                    1b:84:62:49:04:29:dd:10:db:dd:09:bc:cf:aa:f9:
                    e8:bc:4e:bb:97:e0:35:75:45:5b:50:00:05:c7:ad:
                    a3:d1:3e:0c:fb:dc:2b:35:37:88:e2:0b:a3:e1:47:
                    9f:df:79:aa:54:70:69:4a:e7:78:30:3c:69:33:7d:
                    47:26:cd:80:13:4f:bc:92:d2:fc:26:c0:ce:fa:44:
                    f5:e3:a0:30:ed:da:09:68:43:e3:c4:7b:79:79:83:
                    57:3e:8e:5d:dc:5a:0a:1b:4d:95:54:73:1b:fa:4e:
                    0c:27:e6:38:77:52:bd:27:30:70:15:e0:6f:76:1d:
                    b6:49:6e:c7:bf:30:cf:af:35:00:04:2b:8b:ed:60:
                    5f:bb:db:56:38:b1:ce:d9:7d:79:dc:64:67:a9:07:
                    cf:4d:fe:3d:6e:9f:ce:83:16:a0:1f:ba:f1:5a:d7:
                    17:df:00:97:44:28:a7:2e:f3:47:4d:cb:01:dd:07:
                    c6:75:d3:21:77:cf:1f:1a:01:06:5e:a7:db:eb:15:
                    f9:5c:f0:06:f4:a5:57:2d:67:62:f7:6e:af:23:92:
                    7f:a2:e2:de:43:6a:bf:dd:a5:61:b5:cf:d2:d6:ad:
                    36:25:a3:90:71:65:a2:17:5a:c7:d5:07:34:88:16:
                    65:31
                Exponent: 65537 (0x10001)
        X509v3 extensions:
            Authority Information Access: 
                CA Issuers - URI:http://sub-ca.localhost/sub-ca.crt
                OCSP - URI:http://ocsp.sub-ca.localhost:9081

            X509v3 Authority Key Identifier: 
                keyid:20:4E:F0:B3:1E:BF:BC:1F:35:6A:C5:70:8E:A0:D8:70:D5:D1:57:44

            X509v3 Basic Constraints: critical
                CA:FALSE
            X509v3 CRL Distribution Points: 

                Full Name:
                  URI:http://sub-ca.localhost/sub-ca.crl

            X509v3 Extended Key Usage: 
                TLS Web Client Authentication
            X509v3 Key Usage: critical
                Digital Signature
            X509v3 Subject Key Identifier: 
                54:AA:48:26:C3:3F:98:A3:2F:26:FA:70:14:4B:25:E5:7A:17:8E:96
    Signature Algorithm: sha256WithRSAEncryption
         6c:21:a9:59:c9:dd:45:c5:ea:e0:65:b2:ec:86:31:2b:74:51:
         92:d0:08:6c:2d:9b:bd:6a:14:52:2a:64:a5:73:8c:16:58:ca:
         9b:01:76:59:21:06:fe:d1:c4:70:7c:4d:12:00:e5:92:9b:96:
         92:ea:0e:f8:a6:44:99:66:cc:79:86:ae:8e:2f:86:bd:01:23:
         7f:91:1f:ea:c7:c3:36:2d:97:23:96:a3:29:9c:b8:8f:b8:e8:
         f2:20:50:25:26:72:89:a7:f4:0a:b4:df:ef:da:3a:1e:0c:f2:
         a4:7a:41:8f:eb:2a:14:fe:8c:03:5a:29:75:a2:95:7c:c1:34:
         34:cf:cb:c8:4d:02:d7:67:96:88:c0:b2:ee:49:b6:9d:e6:9e:
         50:bb:89:59:c8:2a:4c:d2:84:12:f1:c1:19:cf:91:56:d8:d4:
         c2:fe:8f:36:ed:a1:b3:bc:ea:37:bd:89:29:d9:8a:69:10:c7:
         20:3d:ce:78:d8:00:d9:b2:81:9f:61:73:b8:3b:54:2b:39:61:
         f4:51:8d:07:45:47:a4:75:23:62:b2:6c:73:d3:33:ad:63:02:
         98:80:a2:f1:8a:4b:54:44:85:2c:fa:90:a8:e4:7a:0f:5b:1e:
         e7:96:02:2f:38:62:f8:38:7f:26:82:04:21:4f:55:a0:23:c9:
         17:78:45:9f
-----BEGIN CERTIFICATE-----
MIIELDCCAxSgAwIBAgIRAJBMZhuWGLmZEerit5uY0AIwDQYJKoZIhvcNAQELBQAw
QjELMAkGA1UEBhMCVVMxIjAgBgNVBAoMGVBvcnRsYW5kIFN0YXRlIFVuaXZlcnNp
dHkxDzANBgNVBAMMBlN1YiBDQTAeFw0yMjA0MDUyMDM3MjVaFw0yMzA0MDUyMDM3
MjVaMEIxCzAJBgNVBAYTAlVTMSIwIAYDVQQKDBlQb3J0bGFuZCBTdGF0ZSBVbml2
ZXJzaXR5MQ8wDQYDVQQDDAZTdWIgQ0EwggEiMA0GCSqGSIb3DQEBAQUAA4IBDwAw
ggEKAoIBAQDbZuGttQhizHDP0YbR7BuEYkkEKd0Q290JvM+q+ei8TruX4DV1RVtQ
AAXHraPRPgz73Cs1N4jiC6PhR5/feapUcGlK53gwPGkzfUcmzYATT7yS0vwmwM76
RPXjoDDt2gloQ+PEe3l5g1c+jl3cWgobTZVUcxv6Tgwn5jh3Ur0nMHAV4G92HbZJ
bse/MM+vNQAEK4vtYF+721Y4sc7ZfXncZGepB89N/j1un86DFqAfuvFa1xffAJdE
KKcu80dNywHdB8Z10yF3zx8aAQZep9vrFflc8Ab0pVctZ2L3bq8jkn+i4t5Dar/d
pWG1z9LWrTYlo5BxZaIXWsfVBzSIFmUxAgMBAAGjggEbMIIBFzBtBggrBgEFBQcB
AQRhMF8wLgYIKwYBBQUHMAKGImh0dHA6Ly9zdWItY2EubG9jYWxob3N0L3N1Yi1j
YS5jcnQwLQYIKwYBBQUHMAGGIWh0dHA6Ly9vY3NwLnN1Yi1jYS5sb2NhbGhvc3Q6
OTA4MTAfBgNVHSMEGDAWgBQgTvCzHr+8HzVqxXCOoNhw1dFXRDAMBgNVHRMBAf8E
AjAAMDMGA1UdHwQsMCowKKAmoCSGImh0dHA6Ly9zdWItY2EubG9jYWxob3N0L3N1
Yi1jYS5jcmwwEwYDVR0lBAwwCgYIKwYBBQUHAwIwDgYDVR0PAQH/BAQDAgeAMB0G
A1UdDgQWBBRUqkgmwz+Yoy8m+nAUSyXleheOljANBgkqhkiG9w0BAQsFAAOCAQEA
bCGpWcndRcXq4GWy7IYxK3RRktAIbC2bvWoUUipkpXOMFljKmwF2WSEG/tHEcHxN
EgDlkpuWkuoO+KZEmWbMeYauji+GvQEjf5Ef6sfDNi2XI5ajKZy4j7jo8iBQJSZy
iaf0CrTf79o6HgzypHpBj+sqFP6MA1opdaKVfME0NM/LyE0C12eWiMCy7km2neae
ULuJWcgqTNKEEvHBGc+RVtjUwv6PNu2hs7zqN72JKdmKaRDHID3OeNgA2bKBn2Fz
uDtUKzlh9FGNB0VHpHUjYrJsc9MzrWMCmICi8YpLVESFLPqQqOR6D1se55YCLzhi
+Dh/JoIEIU9VoCPJF3hFnw==
-----END CERTIFICATE-----
