Certificate:
    Data:
        Version: 3 (0x2)
        Serial Number:
            90:4c:66:1b:96:18:b9:99:11:ea:e2:b7:9b:98:cf:db
        Signature Algorithm: sha256WithRSAEncryption
        Issuer: C=US, O=Portland State University, CN=Sub CA
        Validity
            Not Before: Apr  5 20:37:21 2022 GMT
            Not After : Apr  5 20:37:21 2023 GMT
        Subject: C=US, O=Portland State University, CN=Sub CA
        Subject Public Key Info:
            Public Key Algorithm: rsaEncryption
                RSA Public-Key: (2048 bit)
                Modulus:
                    00:c5:06:a3:75:a1:d7:06:ed:09:93:fa:9b:99:6b:
                    b0:50:04:94:f3:41:0e:a0:34:20:94:14:48:7b:07:
                    b7:f1:e1:34:da:a3:90:17:45:c5:0c:b7:04:5f:78:
                    1c:0f:fa:56:af:3a:a3:fa:36:a6:e1:6a:a8:5e:37:
                    12:7b:23:3e:63:7c:48:01:95:6d:ca:5f:c0:06:97:
                    f9:87:3a:db:ef:de:33:fa:58:08:af:3c:fa:e5:9f:
                    f3:0c:d9:49:f1:95:8c:3f:75:7b:53:1b:04:a7:87:
                    91:ce:9a:72:60:4f:30:9d:e7:99:0e:64:ca:c1:ab:
                    60:ef:f5:92:3d:ba:07:6a:55:dd:4f:23:fc:79:f0:
                    c4:db:13:f6:04:04:86:b9:f8:37:a0:fd:1c:8b:32:
                    07:cb:51:98:8d:2f:b0:0f:79:0d:fa:99:e6:63:61:
                    cb:00:0a:31:65:8d:a6:5c:53:00:ed:db:1d:26:89:
                    a2:dd:94:64:ae:7a:42:cb:47:9e:ad:1f:04:81:28:
                    3f:97:98:81:98:07:6e:46:f1:b8:43:d8:c3:0e:d4:
                    35:06:83:d8:b7:af:d0:68:7a:a6:42:af:43:66:2e:
                    4a:87:ec:ad:0d:a8:ae:27:a1:d0:fe:e5:e5:8e:98:
                    66:73:f3:5d:6f:39:3f:eb:74:26:ee:1a:11:9a:2d:
                    e8:a1
                Exponent: 65537 (0x10001)
        X509v3 extensions:
            Authority Information Access: 
                CA Issuers - URI:http://sub-ca.localhost/sub-ca.crt
                OCSP - URI:http://ocsp.sub-ca.localhost:9081

            X509v3 Authority Key Identifier: 
                keyid:20:4E:F0:B3:1E:BF:BC:1F:35:6A:C5:70:8E:A0:D8:70:D5:D1:57:44

            X509v3 Basic Constraints: critical
                CA:FALSE
            X509v3 CRL Distribution Points: 

                Full Name:
                  URI:http://sub-ca.localhost/sub-ca.crl

            X509v3 Extended Key Usage: 
                TLS Web Client Authentication
            X509v3 Key Usage: critical
                Digital Signature
            X509v3 Subject Key Identifier: 
                DC:A6:00:28:4D:9F:3C:5B:AD:85:61:85:C6:D7:F4:04:F7:B3:EF:1C
    Signature Algorithm: sha256WithRSAEncryption
         a2:e9:df:d4:a9:49:5c:b3:f5:fe:ec:ba:a3:8a:fd:f4:c3:ed:
         e4:a7:cc:00:6c:dd:c7:d8:77:02:55:78:2d:8e:9a:ef:94:5f:
         2a:13:34:ec:b5:3f:e2:38:28:b9:99:b8:11:c5:a3:dd:83:bb:
         a8:32:49:88:ba:14:9e:2d:22:dd:97:b6:72:6f:13:21:bb:80:
         b6:8d:19:5e:c2:25:4e:08:2d:e5:25:33:e2:51:9b:6e:3f:c4:
         70:a5:4c:4c:8f:7c:95:81:9d:93:64:0f:0b:3f:3b:6e:62:88:
         d7:e2:2d:c9:fd:16:ec:bc:40:42:8b:86:21:df:68:0b:4d:2f:
         29:80:d3:10:b4:a0:6d:f4:d1:bd:be:7e:b9:83:d6:d8:37:cf:
         8c:1c:d9:87:e8:1c:1c:c1:4a:fa:97:be:55:50:36:f7:aa:41:
         7c:37:6a:eb:4e:63:e6:c7:fb:82:8b:e9:17:58:64:1f:5c:b8:
         a3:5c:0d:16:68:66:13:4f:6e:03:c3:62:4f:fb:2d:b6:b8:e4:
         91:8e:37:9c:28:4b:7b:cc:0d:de:c1:e7:3a:ab:9e:d6:7a:f0:
         10:69:a0:a8:d8:ec:fb:d5:b3:79:4d:86:b1:d6:6a:ba:c0:83:
         16:53:d9:ae:ba:a3:74:9a:7a:9f:1a:cc:b5:ec:e3:fc:21:db:
         3e:e6:24:08
-----BEGIN CERTIFICATE-----
MIIELDCCAxSgAwIBAgIRAJBMZhuWGLmZEerit5uYz9swDQYJKoZIhvcNAQELBQAw
QjELMAkGA1UEBhMCVVMxIjAgBgNVBAoMGVBvcnRsYW5kIFN0YXRlIFVuaXZlcnNp
dHkxDzANBgNVBAMMBlN1YiBDQTAeFw0yMjA0MDUyMDM3MjFaFw0yMzA0MDUyMDM3
MjFaMEIxCzAJBgNVBAYTAlVTMSIwIAYDVQQKDBlQb3J0bGFuZCBTdGF0ZSBVbml2
ZXJzaXR5MQ8wDQYDVQQDDAZTdWIgQ0EwggEiMA0GCSqGSIb3DQEBAQUAA4IBDwAw
ggEKAoIBAQDFBqN1odcG7QmT+puZa7BQBJTzQQ6gNCCUFEh7B7fx4TTao5AXRcUM
twRfeBwP+lavOqP6NqbhaqheNxJ7Iz5jfEgBlW3KX8AGl/mHOtvv3jP6WAivPPrl
n/MM2UnxlYw/dXtTGwSnh5HOmnJgTzCd55kOZMrBq2Dv9ZI9ugdqVd1PI/x58MTb
E/YEBIa5+Deg/RyLMgfLUZiNL7APeQ36meZjYcsACjFljaZcUwDt2x0miaLdlGSu
ekLLR56tHwSBKD+XmIGYB25G8bhD2MMO1DUGg9i3r9BoeqZCr0NmLkqH7K0NqK4n
odD+5eWOmGZz811vOT/rdCbuGhGaLeihAgMBAAGjggEbMIIBFzBtBggrBgEFBQcB
AQRhMF8wLgYIKwYBBQUHMAKGImh0dHA6Ly9zdWItY2EubG9jYWxob3N0L3N1Yi1j
YS5jcnQwLQYIKwYBBQUHMAGGIWh0dHA6Ly9vY3NwLnN1Yi1jYS5sb2NhbGhvc3Q6
OTA4MTAfBgNVHSMEGDAWgBQgTvCzHr+8HzVqxXCOoNhw1dFXRDAMBgNVHRMBAf8E
AjAAMDMGA1UdHwQsMCowKKAmoCSGImh0dHA6Ly9zdWItY2EubG9jYWxob3N0L3N1
Yi1jYS5jcmwwEwYDVR0lBAwwCgYIKwYBBQUHAwIwDgYDVR0PAQH/BAQDAgeAMB0G
A1UdDgQWBBTcpgAoTZ88W62FYYXG1/QE97PvHDANBgkqhkiG9w0BAQsFAAOCAQEA
ounf1KlJXLP1/uy6o4r99MPt5KfMAGzdx9h3AlV4LY6a75RfKhM07LU/4jgouZm4
EcWj3YO7qDJJiLoUni0i3Ze2cm8TIbuAto0ZXsIlTggt5SUz4lGbbj/EcKVMTI98
lYGdk2QPCz87bmKI1+Ityf0W7LxAQouGId9oC00vKYDTELSgbfTRvb5+uYPW2DfP
jBzZh+gcHMFK+pe+VVA296pBfDdq605j5sf7govpF1hkH1y4o1wNFmhmE09uA8Ni
T/sttrjkkY43nChLe8wN3sHnOque1nrwEGmgqNjs+9WzeU2GsdZqusCDFlPZrrqj
dJp6nxrMtezj/CHbPuYkCA==
-----END CERTIFICATE-----
