Certificate:
    Data:
        Version: 3 (0x2)
        Serial Number:
            90:4c:66:1b:96:18:b9:99:11:ea:e2:b7:9b:98:d0:19
        Signature Algorithm: sha256WithRSAEncryption
        Issuer: C=US, O=Portland State University, CN=Sub CA
        Validity
            Not Before: Apr  5 20:37:27 2022 GMT
            Not After : Apr  5 20:37:27 2023 GMT
        Subject: C=US, O=Portland State University, CN=Sub CA
        Subject Public Key Info:
            Public Key Algorithm: rsaEncryption
                RSA Public-Key: (2048 bit)
                Modulus:
                    00:9f:62:36:6a:4f:f0:80:49:33:c8:b5:39:48:08:
                    28:30:02:8c:df:05:76:e6:c1:14:03:46:4d:f0:0e:
                    76:a7:8a:09:8b:37:c5:83:a6:98:f5:32:44:1a:10:
                    b7:80:4a:89:d6:c4:4c:45:86:3c:5b:b6:c7:74:da:
                    d3:46:b3:b1:91:d8:95:bf:8a:c2:82:05:1b:bc:8c:
                    4a:0b:e9:57:36:1a:a9:cf:46:4e:30:7a:db:00:14:
                    a6:5e:ac:e2:b5:23:8b:4d:c5:76:e2:02:6b:a1:45:
                    42:1d:00:5f:1a:a3:e9:e4:d9:5f:6d:76:61:fc:6e:
                    3d:5c:f2:98:39:8f:00:62:32:53:11:3d:90:03:51:
                    7b:32:99:d0:9d:eb:2c:c3:67:34:48:af:aa:38:87:
                    10:6f:61:d3:a1:b5:b6:15:e0:f5:d1:47:94:24:42:
                    90:a1:d7:ec:80:d9:b5:f2:96:fa:a4:4c:bc:c4:4d:
                    57:6f:ac:b3:c1:c8:c1:b4:82:a6:f6:d9:73:63:90:
                    b5:1e:37:29:72:27:6a:b8:d3:86:b0:08:c7:fe:5b:
                    da:18:59:95:89:9b:7c:31:30:08:af:42:f8:5b:ff:
                    16:d7:98:2e:95:20:d2:9b:60:3d:6d:46:9a:9c:cd:
                    56:09:0a:b1:6e:ad:5e:06:fb:e9:ed:55:d7:4e:37:
                    98:c5
                Exponent: 65537 (0x10001)
        X509v3 extensions:
            Authority Information Access: 
                CA Issuers - URI:http://sub-ca.localhost/sub-ca.crt
                OCSP - URI:http://ocsp.sub-ca.localhost:9081

            X509v3 Authority Key Identifier: 
                keyid:20:4E:F0:B3:1E:BF:BC:1F:35:6A:C5:70:8E:A0:D8:70:D5:D1:57:44

            X509v3 Basic Constraints: critical
                CA:FALSE
            X509v3 CRL Distribution Points: 

                Full Name:
                  URI:http://sub-ca.localhost/sub-ca.crl

            X509v3 Extended Key Usage: 
                TLS Web Client Authentication
            X509v3 Key Usage: critical
                Digital Signature
            X509v3 Subject Key Identifier: 
                63:21:6B:F8:B3:C1:57:70:6E:F8:CA:C0:A6:E4:5B:A3:9F:35:66:DE
    Signature Algorithm: sha256WithRSAEncryption
         92:6c:fd:33:f3:bf:86:f5:73:c1:75:98:30:32:44:bc:99:c0:
         d9:45:ba:7f:e7:7b:99:78:75:76:d1:45:dc:aa:8d:5f:f0:da:
         04:8f:56:7f:e0:5b:a9:82:e3:d4:e5:4e:a7:e3:8b:2e:d9:61:
         b2:75:57:84:c1:28:c2:b2:6c:d2:72:7b:d6:75:c5:80:75:11:
         64:eb:64:52:27:19:11:52:89:12:73:28:cd:74:7d:9e:38:7a:
         3c:85:09:19:19:f8:06:00:07:7c:c0:8c:a5:1a:58:65:63:b1:
         ea:09:94:5f:b3:45:c9:c6:fc:ad:fb:10:0d:3b:32:c7:3e:a5:
         b4:29:81:12:b5:e5:39:18:05:0d:3e:f4:d5:5f:3e:f2:c1:9a:
         c9:cb:63:16:f4:d2:95:71:00:34:48:bc:89:57:8e:2e:4e:c3:
         5b:63:8c:43:f1:96:76:74:a2:09:8f:e5:2d:3c:8c:d3:4c:4a:
         92:b2:ac:41:af:dc:b2:60:ef:89:47:2e:47:57:8a:73:59:1a:
         5f:65:f3:ed:be:51:4f:56:71:aa:4e:90:f3:1b:43:ea:5a:b0:
         ed:30:6a:38:52:2f:97:71:35:1c:63:4a:ce:93:f0:68:6c:46:
         7e:c2:b9:6c:8e:3a:0c:fc:68:24:74:7a:d6:cf:af:a8:ab:bc:
         b8:dc:34:cb
-----BEGIN CERTIFICATE-----
MIIELDCCAxSgAwIBAgIRAJBMZhuWGLmZEerit5uY0BkwDQYJKoZIhvcNAQELBQAw
QjELMAkGA1UEBhMCVVMxIjAgBgNVBAoMGVBvcnRsYW5kIFN0YXRlIFVuaXZlcnNp
dHkxDzANBgNVBAMMBlN1YiBDQTAeFw0yMjA0MDUyMDM3MjdaFw0yMzA0MDUyMDM3
MjdaMEIxCzAJBgNVBAYTAlVTMSIwIAYDVQQKDBlQb3J0bGFuZCBTdGF0ZSBVbml2
ZXJzaXR5MQ8wDQYDVQQDDAZTdWIgQ0EwggEiMA0GCSqGSIb3DQEBAQUAA4IBDwAw
ggEKAoIBAQCfYjZqT/CASTPItTlICCgwAozfBXbmwRQDRk3wDnanigmLN8WDppj1
MkQaELeASonWxExFhjxbtsd02tNGs7GR2JW/isKCBRu8jEoL6Vc2GqnPRk4wetsA
FKZerOK1I4tNxXbiAmuhRUIdAF8ao+nk2V9tdmH8bj1c8pg5jwBiMlMRPZADUXsy
mdCd6yzDZzRIr6o4hxBvYdOhtbYV4PXRR5QkQpCh1+yA2bXylvqkTLzETVdvrLPB
yMG0gqb22XNjkLUeNylyJ2q404awCMf+W9oYWZWJm3wxMAivQvhb/xbXmC6VINKb
YD1tRpqczVYJCrFurV4G++ntVddON5jFAgMBAAGjggEbMIIBFzBtBggrBgEFBQcB
AQRhMF8wLgYIKwYBBQUHMAKGImh0dHA6Ly9zdWItY2EubG9jYWxob3N0L3N1Yi1j
YS5jcnQwLQYIKwYBBQUHMAGGIWh0dHA6Ly9vY3NwLnN1Yi1jYS5sb2NhbGhvc3Q6
OTA4MTAfBgNVHSMEGDAWgBQgTvCzHr+8HzVqxXCOoNhw1dFXRDAMBgNVHRMBAf8E
AjAAMDMGA1UdHwQsMCowKKAmoCSGImh0dHA6Ly9zdWItY2EubG9jYWxob3N0L3N1
Yi1jYS5jcmwwEwYDVR0lBAwwCgYIKwYBBQUHAwIwDgYDVR0PAQH/BAQDAgeAMB0G
A1UdDgQWBBRjIWv4s8FXcG74ysCm5FujnzVm3jANBgkqhkiG9w0BAQsFAAOCAQEA
kmz9M/O/hvVzwXWYMDJEvJnA2UW6f+d7mXh1dtFF3KqNX/DaBI9Wf+BbqYLj1OVO
p+OLLtlhsnVXhMEowrJs0nJ71nXFgHURZOtkUicZEVKJEnMozXR9njh6PIUJGRn4
BgAHfMCMpRpYZWOx6gmUX7NFycb8rfsQDTsyxz6ltCmBErXlORgFDT701V8+8sGa
yctjFvTSlXEANEi8iVeOLk7DW2OMQ/GWdnSiCY/lLTyM00xKkrKsQa/csmDviUcu
R1eKc1kaX2Xz7b5RT1Zxqk6Q8xtD6lqw7TBqOFIvl3E1HGNKzpPwaGxGfsK5bI46
DPxoJHR61s+vqKu8uNw0yw==
-----END CERTIFICATE-----
