Certificate:
    Data:
        Version: 3 (0x2)
        Serial Number:
            90:4c:66:1b:96:18:b9:99:11:ea:e2:b7:9b:98:cf:e6
        Signature Algorithm: sha256WithRSAEncryption
        Issuer: C=US, O=Portland State University, CN=Sub CA
        Validity
            Not Before: Apr  5 20:37:22 2022 GMT
            Not After : Apr  5 20:37:22 2023 GMT
        Subject: C=US, O=Portland State University, CN=Sub CA
        Subject Public Key Info:
            Public Key Algorithm: rsaEncryption
                RSA Public-Key: (2048 bit)
                Modulus:
                    00:9e:e4:9a:eb:e0:ad:73:a8:e1:6f:31:94:dc:10:
                    d0:3c:2a:b1:bf:c2:05:68:7b:e3:eb:84:c5:3f:ad:
                    a5:3c:e7:70:73:8d:1e:a0:6e:c6:96:7d:5d:89:59:
                    10:02:70:3f:05:73:12:e6:76:47:6d:4e:23:1a:f5:
                    ac:b7:c3:de:14:88:95:bd:9c:cf:0a:c3:1d:7e:f2:
                    ad:85:c2:16:0c:dd:0b:21:c1:92:51:13:50:d6:ec:
                    91:31:ae:98:23:13:d5:2b:c0:f3:03:c6:a3:c0:f1:
                    69:19:a9:62:51:af:00:4b:78:8e:19:80:41:f1:4b:
                    2a:da:02:63:c5:1d:93:d6:ea:49:9a:cc:24:e0:32:
                    fb:01:8e:06:a0:c3:69:93:6d:a2:2f:7f:9d:df:fe:
                    15:b6:1c:c0:75:dd:f3:e7:ff:85:a0:be:c9:aa:e5:
                    d2:cd:d7:79:26:76:4f:c1:a3:69:56:5f:80:57:16:
                    12:e5:8d:1e:0a:71:33:83:a0:de:ca:17:b1:0a:1f:
                    96:80:a1:62:b7:15:f4:09:4c:43:69:db:ec:65:e7:
                    22:c6:91:e8:f7:44:88:71:2f:ed:47:34:4b:54:25:
                    f8:7a:54:6d:3a:fd:60:a7:8b:52:39:b0:73:a1:67:
                    a6:3c:92:8b:f8:4e:38:ae:a3:d7:57:68:6a:69:98:
                    51:b9
                Exponent: 65537 (0x10001)
        X509v3 extensions:
            Authority Information Access: 
                CA Issuers - URI:http://sub-ca.localhost/sub-ca.crt
                OCSP - URI:http://ocsp.sub-ca.localhost:9081

            X509v3 Authority Key Identifier: 
                keyid:20:4E:F0:B3:1E:BF:BC:1F:35:6A:C5:70:8E:A0:D8:70:D5:D1:57:44

            X509v3 Basic Constraints: critical
                CA:FALSE
            X509v3 CRL Distribution Points: 

                Full Name:
                  URI:http://sub-ca.localhost/sub-ca.crl

            X509v3 Extended Key Usage: 
                TLS Web Client Authentication
            X509v3 Key Usage: critical
                Digital Signature
            X509v3 Subject Key Identifier: 
                E3:34:36:FB:8D:72:F4:26:36:2D:28:1F:BF:09:D1:8B:EC:44:1D:63
    Signature Algorithm: sha256WithRSAEncryption
         6b:7b:55:a8:fb:ab:bd:b3:72:05:f9:8a:34:ee:38:e2:96:2f:
         c8:3f:43:ce:30:c8:9f:6d:39:22:0d:02:a8:16:ef:f0:1d:1e:
         04:61:ad:ef:39:00:13:d4:4a:a7:09:26:76:72:d1:6d:47:c0:
         36:fa:24:20:1f:7e:9b:ed:c9:4f:20:53:f1:8e:27:ee:82:f4:
         f6:d0:e5:4f:59:b8:42:6b:ed:2c:dd:8a:b4:4d:3d:ac:35:52:
         3a:48:8b:99:52:f5:95:dd:6e:97:55:55:99:79:db:e6:f7:2e:
         c3:a7:7e:3d:20:9c:47:d1:56:cd:d8:51:7b:10:d8:33:61:1d:
         37:d1:5d:6f:fe:eb:bd:48:69:74:f9:2c:1e:86:de:01:30:91:
         4b:23:e2:b2:7b:eb:12:56:cf:a6:c8:42:0d:d6:8a:3c:57:1e:
         de:e0:86:1b:43:3a:01:46:76:de:97:6a:d8:b9:d8:9b:7a:62:
         5d:4f:6a:f2:19:f1:82:8f:ec:3b:79:79:78:a4:b5:30:82:0f:
         3a:8f:7d:5c:30:4f:59:1f:64:f0:20:6f:c8:43:f0:34:cc:d1:
         ec:05:39:89:63:83:c3:76:1d:34:bb:d6:32:63:d4:0d:3d:5b:
         27:6f:ac:8a:1a:85:d5:be:7d:bd:c3:b5:81:0a:53:31:7f:c5:
         32:b5:d2:de
-----BEGIN CERTIFICATE-----
MIIELDCCAxSgAwIBAgIRAJBMZhuWGLmZEerit5uYz+YwDQYJKoZIhvcNAQELBQAw
QjELMAkGA1UEBhMCVVMxIjAgBgNVBAoMGVBvcnRsYW5kIFN0YXRlIFVuaXZlcnNp
dHkxDzANBgNVBAMMBlN1YiBDQTAeFw0yMjA0MDUyMDM3MjJaFw0yMzA0MDUyMDM3
MjJaMEIxCzAJBgNVBAYTAlVTMSIwIAYDVQQKDBlQb3J0bGFuZCBTdGF0ZSBVbml2
ZXJzaXR5MQ8wDQYDVQQDDAZTdWIgQ0EwggEiMA0GCSqGSIb3DQEBAQUAA4IBDwAw
ggEKAoIBAQCe5Jrr4K1zqOFvMZTcENA8KrG/wgVoe+PrhMU/raU853BzjR6gbsaW
fV2JWRACcD8FcxLmdkdtTiMa9ay3w94UiJW9nM8Kwx1+8q2FwhYM3QshwZJRE1DW
7JExrpgjE9UrwPMDxqPA8WkZqWJRrwBLeI4ZgEHxSyraAmPFHZPW6kmazCTgMvsB
jgagw2mTbaIvf53f/hW2HMB13fPn/4Wgvsmq5dLN13kmdk/Bo2lWX4BXFhLljR4K
cTODoN7KF7EKH5aAoWK3FfQJTENp2+xl5yLGkej3RIhxL+1HNEtUJfh6VG06/WCn
i1I5sHOhZ6Y8kov4Tjiuo9dXaGppmFG5AgMBAAGjggEbMIIBFzBtBggrBgEFBQcB
AQRhMF8wLgYIKwYBBQUHMAKGImh0dHA6Ly9zdWItY2EubG9jYWxob3N0L3N1Yi1j
YS5jcnQwLQYIKwYBBQUHMAGGIWh0dHA6Ly9vY3NwLnN1Yi1jYS5sb2NhbGhvc3Q6
OTA4MTAfBgNVHSMEGDAWgBQgTvCzHr+8HzVqxXCOoNhw1dFXRDAMBgNVHRMBAf8E
AjAAMDMGA1UdHwQsMCowKKAmoCSGImh0dHA6Ly9zdWItY2EubG9jYWxob3N0L3N1
Yi1jYS5jcmwwEwYDVR0lBAwwCgYIKwYBBQUHAwIwDgYDVR0PAQH/BAQDAgeAMB0G
A1UdDgQWBBTjNDb7jXL0JjYtKB+/CdGL7EQdYzANBgkqhkiG9w0BAQsFAAOCAQEA
a3tVqPurvbNyBfmKNO444pYvyD9DzjDIn205Ig0CqBbv8B0eBGGt7zkAE9RKpwkm
dnLRbUfANvokIB9+m+3JTyBT8Y4n7oL09tDlT1m4QmvtLN2KtE09rDVSOkiLmVL1
ld1ul1VVmXnb5vcuw6d+PSCcR9FWzdhRexDYM2EdN9Fdb/7rvUhpdPksHobeATCR
SyPisnvrElbPpshCDdaKPFce3uCGG0M6AUZ23pdq2LnYm3piXU9q8hnxgo/sO3l5
eKS1MIIPOo99XDBPWR9k8CBvyEPwNMzR7AU5iWODw3YdNLvWMmPUDT1bJ2+sihqF
1b59vcO1gQpTMX/FMrXS3g==
-----END CERTIFICATE-----
