Certificate:
    Data:
        Version: 3 (0x2)
        Serial Number:
            90:4c:66:1b:96:18:b9:99:11:ea:e2:b7:9b:98:d0:16
        Signature Algorithm: sha256WithRSAEncryption
        Issuer: C=US, O=Portland State University, CN=Sub CA
        Validity
            Not Before: Apr  5 20:37:27 2022 GMT
            Not After : Apr  5 20:37:27 2023 GMT
        Subject: C=US, O=Portland State University, CN=Sub CA
        Subject Public Key Info:
            Public Key Algorithm: rsaEncryption
                RSA Public-Key: (2048 bit)
                Modulus:
                    00:d9:11:74:48:3b:e7:f7:f1:6c:94:fb:3a:c5:3f:
                    20:d6:f8:6e:fc:4c:5d:ea:96:2a:58:7f:f5:1a:a4:
                    1a:7b:12:6b:e2:61:a6:53:16:72:91:85:f7:93:9b:
                    50:29:43:77:c6:39:ee:77:fd:3f:b6:47:67:37:b4:
                    cf:2c:09:94:65:20:54:dd:50:28:19:9c:68:35:d4:
                    61:0d:1d:4e:39:1d:2d:8d:ef:2b:54:aa:25:94:f3:
                    05:76:09:43:30:d3:de:a6:e6:6a:bd:1f:d1:90:72:
                    77:08:68:8e:de:e9:15:bf:9b:65:b5:d4:ad:0a:08:
                    d3:38:2d:74:16:bc:ca:a8:78:2b:c6:7f:03:03:08:
                    bb:79:9d:41:5f:c2:45:44:be:67:3a:e4:16:fb:ed:
                    14:90:8d:df:4a:0b:c5:ab:9a:38:c4:ab:1e:99:eb:
                    59:8d:19:10:1f:36:7b:4b:e9:ce:12:45:e2:5b:2f:
                    fd:07:99:54:b2:53:16:eb:6c:f8:16:9d:b0:d9:b7:
                    21:40:5e:40:3c:42:0d:33:86:ed:00:3a:88:15:3f:
                    ad:ec:a2:c8:64:97:f2:21:23:43:aa:6d:ba:29:0c:
                    57:75:c7:5d:35:de:24:b3:58:90:9e:2c:2d:45:df:
                    56:cc:60:e7:5a:86:55:92:2b:8e:d5:d6:e5:b0:fd:
                    db:cd
                Exponent: 65537 (0x10001)
        X509v3 extensions:
            Authority Information Access: 
                CA Issuers - URI:http://sub-ca.localhost/sub-ca.crt
                OCSP - URI:http://ocsp.sub-ca.localhost:9081

            X509v3 Authority Key Identifier: 
                keyid:20:4E:F0:B3:1E:BF:BC:1F:35:6A:C5:70:8E:A0:D8:70:D5:D1:57:44

            X509v3 Basic Constraints: critical
                CA:FALSE
            X509v3 CRL Distribution Points: 

                Full Name:
                  URI:http://sub-ca.localhost/sub-ca.crl

            X509v3 Extended Key Usage: 
                TLS Web Client Authentication
            X509v3 Key Usage: critical
                Digital Signature
            X509v3 Subject Key Identifier: 
                80:B9:95:A0:19:49:D9:92:F9:70:28:F0:DF:F7:73:E6:54:5A:F0:B9
    Signature Algorithm: sha256WithRSAEncryption
         5a:1c:46:0a:2d:cb:c3:01:fb:cc:f8:1b:94:34:4c:1e:12:2f:
         0e:b8:8c:ed:83:1c:70:db:de:16:61:b6:29:36:0b:cb:fb:a6:
         39:31:27:8a:59:82:19:63:5d:8e:84:60:ca:70:db:ec:5c:a1:
         d2:4b:97:74:80:dc:32:b1:a0:e8:4b:94:d9:ad:1a:a6:ff:d3:
         94:0d:a9:17:ad:7c:dd:ac:7f:22:01:2b:d4:34:8b:9a:82:22:
         aa:c5:13:6b:17:56:65:e2:6a:84:42:19:1e:07:49:48:f0:0a:
         6f:d7:5a:4f:61:96:f1:e0:a9:38:bd:c3:39:4c:7f:9d:f6:05:
         52:f8:46:a0:da:1e:8f:4f:6a:18:09:5d:f2:f4:fc:12:2d:68:
         78:73:71:a0:aa:6c:09:9a:ce:99:9b:e2:81:23:6d:a1:5f:33:
         da:5e:1b:82:58:fa:1d:06:47:5a:c6:d7:e9:9d:ea:9d:82:e9:
         44:e8:54:4c:71:13:9e:5a:2c:b3:85:28:12:6f:a0:4e:9e:6b:
         24:36:3c:35:08:94:79:1a:86:b3:cb:24:cd:31:1f:ce:80:3f:
         41:5a:0d:3c:17:37:ad:f6:b2:55:fe:79:55:ca:4f:18:89:50:
         29:96:9f:74:5d:62:f2:61:ad:e6:48:d7:b5:05:6e:0f:0e:9e:
         cb:8f:9c:2e
-----BEGIN CERTIFICATE-----
MIIELDCCAxSgAwIBAgIRAJBMZhuWGLmZEerit5uY0BYwDQYJKoZIhvcNAQELBQAw
QjELMAkGA1UEBhMCVVMxIjAgBgNVBAoMGVBvcnRsYW5kIFN0YXRlIFVuaXZlcnNp
dHkxDzANBgNVBAMMBlN1YiBDQTAeFw0yMjA0MDUyMDM3MjdaFw0yMzA0MDUyMDM3
MjdaMEIxCzAJBgNVBAYTAlVTMSIwIAYDVQQKDBlQb3J0bGFuZCBTdGF0ZSBVbml2
ZXJzaXR5MQ8wDQYDVQQDDAZTdWIgQ0EwggEiMA0GCSqGSIb3DQEBAQUAA4IBDwAw
ggEKAoIBAQDZEXRIO+f38WyU+zrFPyDW+G78TF3qlipYf/UapBp7EmviYaZTFnKR
hfeTm1ApQ3fGOe53/T+2R2c3tM8sCZRlIFTdUCgZnGg11GENHU45HS2N7ytUqiWU
8wV2CUMw096m5mq9H9GQcncIaI7e6RW/m2W11K0KCNM4LXQWvMqoeCvGfwMDCLt5
nUFfwkVEvmc65Bb77RSQjd9KC8WrmjjEqx6Z61mNGRAfNntL6c4SReJbL/0HmVSy
UxbrbPgWnbDZtyFAXkA8Qg0zhu0AOogVP63soshkl/IhI0OqbbopDFd1x1013iSz
WJCeLC1F31bMYOdahlWSK47V1uWw/dvNAgMBAAGjggEbMIIBFzBtBggrBgEFBQcB
AQRhMF8wLgYIKwYBBQUHMAKGImh0dHA6Ly9zdWItY2EubG9jYWxob3N0L3N1Yi1j
YS5jcnQwLQYIKwYBBQUHMAGGIWh0dHA6Ly9vY3NwLnN1Yi1jYS5sb2NhbGhvc3Q6
OTA4MTAfBgNVHSMEGDAWgBQgTvCzHr+8HzVqxXCOoNhw1dFXRDAMBgNVHRMBAf8E
AjAAMDMGA1UdHwQsMCowKKAmoCSGImh0dHA6Ly9zdWItY2EubG9jYWxob3N0L3N1
Yi1jYS5jcmwwEwYDVR0lBAwwCgYIKwYBBQUHAwIwDgYDVR0PAQH/BAQDAgeAMB0G
A1UdDgQWBBSAuZWgGUnZkvlwKPDf93PmVFrwuTANBgkqhkiG9w0BAQsFAAOCAQEA
WhxGCi3LwwH7zPgblDRMHhIvDriM7YMccNveFmG2KTYLy/umOTEnilmCGWNdjoRg
ynDb7Fyh0kuXdIDcMrGg6EuU2a0apv/TlA2pF6183ax/IgEr1DSLmoIiqsUTaxdW
ZeJqhEIZHgdJSPAKb9daT2GW8eCpOL3DOUx/nfYFUvhGoNoej09qGAld8vT8Ei1o
eHNxoKpsCZrOmZvigSNtoV8z2l4bglj6HQZHWsbX6Z3qnYLpROhUTHETnloss4Uo
Em+gTp5rJDY8NQiUeRqGs8skzTEfzoA/QVoNPBc3rfayVf55VcpPGIlQKZafdF1i
8mGt5kjXtQVuDw6ey4+cLg==
-----END CERTIFICATE-----
