Certificate:
    Data:
        Version: 3 (0x2)
        Serial Number:
            90:4c:66:1b:96:18:b9:99:11:ea:e2:b7:9b:98:cf:bc
        Signature Algorithm: sha256WithRSAEncryption
        Issuer: C=US, O=Portland State University, CN=Sub CA
        Validity
            Not Before: Apr  5 20:35:41 2022 GMT
            Not After : Apr  5 20:35:41 2023 GMT
        Subject: C=US, O=Portland State University, CN=Sub CA
        Subject Public Key Info:
            Public Key Algorithm: rsaEncryption
                RSA Public-Key: (2048 bit)
                Modulus:
                    00:c5:94:cb:10:f2:6a:51:df:88:8f:98:dd:92:cb:
                    43:41:22:fb:30:a0:0a:be:55:87:f6:ba:46:4a:c0:
                    c8:f1:84:6a:aa:92:30:f5:57:ff:01:21:23:5d:30:
                    6e:6f:6b:db:78:0f:93:a3:c9:51:cb:cd:90:c6:b6:
                    dc:81:7a:34:12:bd:5d:50:0d:d2:cb:f1:ca:b4:94:
                    bc:53:52:33:2d:af:04:16:1b:25:a3:94:71:9b:77:
                    f7:6b:f7:35:de:f8:40:86:3e:22:84:1f:58:f9:f0:
                    ae:04:e9:b1:58:d3:2f:1f:e2:a7:70:ff:f5:84:7d:
                    fa:fc:f4:d2:d4:ff:3e:ce:98:7e:76:ab:ce:2b:b0:
                    92:c7:96:fc:6f:c4:b2:53:39:c0:8c:4f:32:12:cb:
                    b5:df:0f:d2:b5:eb:dd:be:75:ed:76:70:da:a5:e7:
                    af:13:84:56:3d:d3:aa:74:b9:3f:81:35:10:c7:47:
                    e9:e6:9d:98:46:91:8b:ee:d8:b3:23:d6:8b:76:ac:
                    7e:a2:ec:8f:35:22:f8:71:73:be:a7:dd:18:29:12:
                    b7:a4:6b:f2:5f:71:96:ac:02:74:29:e5:80:05:ce:
                    23:00:de:c7:b9:fb:4d:f4:f3:12:0d:fa:c7:83:30:
                    72:00:56:22:55:29:b0:db:ad:61:a2:36:75:19:a1:
                    97:8f
                Exponent: 65537 (0x10001)
        X509v3 extensions:
            Authority Information Access: 
                CA Issuers - URI:http://sub-ca.localhost/sub-ca.crt
                OCSP - URI:http://ocsp.sub-ca.localhost:9081

            X509v3 Authority Key Identifier: 
                keyid:20:4E:F0:B3:1E:BF:BC:1F:35:6A:C5:70:8E:A0:D8:70:D5:D1:57:44

            X509v3 Basic Constraints: critical
                CA:FALSE
            X509v3 CRL Distribution Points: 

                Full Name:
                  URI:http://sub-ca.localhost/sub-ca.crl

            X509v3 Extended Key Usage: 
                TLS Web Client Authentication
            X509v3 Key Usage: critical
                Digital Signature
            X509v3 Subject Key Identifier: 
                BD:F2:BD:98:88:CD:C9:2D:3B:86:4A:89:9F:49:DE:52:C0:09:C2:0C
    Signature Algorithm: sha256WithRSAEncryption
         9f:86:5c:4e:1e:3b:28:29:d9:21:11:12:15:5a:39:07:ef:47:
         93:74:4a:fc:1a:e3:e7:ee:c3:73:50:8a:66:0f:9e:b1:72:72:
         26:f1:f9:af:02:ea:c7:57:4f:ee:0a:e8:80:e9:57:3b:81:73:
         fa:1d:ad:f5:28:7b:bb:2b:3b:69:21:55:f8:36:61:99:27:42:
         55:9c:d4:53:ba:0a:14:1d:e9:5d:ab:0c:1d:9f:50:a9:5e:fb:
         e6:61:dc:24:d3:98:45:67:3b:e2:4c:67:f5:08:e9:83:18:95:
         f0:45:2e:dc:5d:1b:4d:34:e3:42:32:7b:21:b7:a6:d1:2d:94:
         d5:0b:2a:43:a6:4c:2c:38:5f:c1:1f:86:f5:9a:31:f9:76:37:
         b0:c9:b6:47:2d:51:c1:8f:c7:e8:a9:5f:0b:af:c4:12:f3:9b:
         0d:d9:d3:2e:36:e5:18:27:5e:c3:fc:f9:5f:04:a4:8a:bc:65:
         c6:66:69:9b:1f:3d:65:bb:8b:de:2c:70:07:c9:97:37:e8:a8:
         47:35:f9:5f:1d:69:82:ae:fc:0c:48:ac:29:01:59:ba:8f:7e:
         56:59:ad:84:56:0a:0c:0d:5d:ad:fa:bb:45:25:fb:f1:72:28:
         74:d5:64:99:b2:b4:95:bf:b6:89:a9:c3:53:92:f8:1b:0e:3a:
         40:12:0b:64
-----BEGIN CERTIFICATE-----
MIIELDCCAxSgAwIBAgIRAJBMZhuWGLmZEerit5uYz7wwDQYJKoZIhvcNAQELBQAw
QjELMAkGA1UEBhMCVVMxIjAgBgNVBAoMGVBvcnRsYW5kIFN0YXRlIFVuaXZlcnNp
dHkxDzANBgNVBAMMBlN1YiBDQTAeFw0yMjA0MDUyMDM1NDFaFw0yMzA0MDUyMDM1
NDFaMEIxCzAJBgNVBAYTAlVTMSIwIAYDVQQKDBlQb3J0bGFuZCBTdGF0ZSBVbml2
ZXJzaXR5MQ8wDQYDVQQDDAZTdWIgQ0EwggEiMA0GCSqGSIb3DQEBAQUAA4IBDwAw
ggEKAoIBAQDFlMsQ8mpR34iPmN2Sy0NBIvswoAq+VYf2ukZKwMjxhGqqkjD1V/8B
ISNdMG5va9t4D5OjyVHLzZDGttyBejQSvV1QDdLL8cq0lLxTUjMtrwQWGyWjlHGb
d/dr9zXe+ECGPiKEH1j58K4E6bFY0y8f4qdw//WEffr89NLU/z7OmH52q84rsJLH
lvxvxLJTOcCMTzISy7XfD9K1692+de12cNql568ThFY906p0uT+BNRDHR+nmnZhG
kYvu2LMj1ot2rH6i7I81Ivhxc76n3RgpEreka/JfcZasAnQp5YAFziMA3se5+030
8xIN+seDMHIAViJVKbDbrWGiNnUZoZePAgMBAAGjggEbMIIBFzBtBggrBgEFBQcB
AQRhMF8wLgYIKwYBBQUHMAKGImh0dHA6Ly9zdWItY2EubG9jYWxob3N0L3N1Yi1j
YS5jcnQwLQYIKwYBBQUHMAGGIWh0dHA6Ly9vY3NwLnN1Yi1jYS5sb2NhbGhvc3Q6
OTA4MTAfBgNVHSMEGDAWgBQgTvCzHr+8HzVqxXCOoNhw1dFXRDAMBgNVHRMBAf8E
AjAAMDMGA1UdHwQsMCowKKAmoCSGImh0dHA6Ly9zdWItY2EubG9jYWxob3N0L3N1
Yi1jYS5jcmwwEwYDVR0lBAwwCgYIKwYBBQUHAwIwDgYDVR0PAQH/BAQDAgeAMB0G
A1UdDgQWBBS98r2YiM3JLTuGSomfSd5SwAnCDDANBgkqhkiG9w0BAQsFAAOCAQEA
n4ZcTh47KCnZIRESFVo5B+9Hk3RK/Brj5+7Dc1CKZg+esXJyJvH5rwLqx1dP7gro
gOlXO4Fz+h2t9Sh7uys7aSFV+DZhmSdCVZzUU7oKFB3pXasMHZ9QqV775mHcJNOY
RWc74kxn9QjpgxiV8EUu3F0bTTTjQjJ7Ibem0S2U1QsqQ6ZMLDhfwR+G9Zox+XY3
sMm2Ry1RwY/H6KlfC6/EEvObDdnTLjblGCdew/z5XwSkirxlxmZpmx89ZbuL3ixw
B8mXN+ioRzX5Xx1pgq78DEisKQFZuo9+VlmthFYKDA1drfq7RSX78XIodNVkmbK0
lb+2ianDU5L4Gw46QBILZA==
-----END CERTIFICATE-----
