Certificate:
    Data:
        Version: 3 (0x2)
        Serial Number:
            90:4c:66:1b:96:18:b9:99:11:ea:e2:b7:9b:98:cf:b9
        Signature Algorithm: sha256WithRSAEncryption
        Issuer: C=US, O=Portland State University, CN=Sub CA
        Validity
            Not Before: Apr 29 02:59:17 2021 GMT
            Not After : Apr 29 02:59:17 2022 GMT
        Subject: C=US, O=Portland State University, CN=Sub CA
        Subject Public Key Info:
            Public Key Algorithm: rsaEncryption
                RSA Public-Key: (2048 bit)
                Modulus:
                    00:a0:14:09:7f:de:31:47:67:21:1c:73:3c:78:f6:
                    95:e5:ae:c0:1c:a6:68:9a:cd:1f:d0:dd:fb:6c:5c:
                    07:ec:bb:27:9f:88:02:f2:a2:7a:c4:45:52:05:ac:
                    b9:d6:d1:4d:a3:f0:a6:c0:39:9a:78:c6:bf:ee:25:
                    ea:f2:64:3a:96:eb:a8:5e:ac:ab:38:00:f7:10:eb:
                    84:f6:d4:a9:1a:06:fb:03:c1:fa:00:dc:55:41:da:
                    42:1d:15:0e:67:e4:5a:41:a6:37:dd:a4:3f:cd:6c:
                    50:19:21:50:4f:66:fb:b5:8b:dd:7e:3f:d8:93:3d:
                    20:34:e1:cc:32:2b:3d:fe:53:66:3a:d8:20:27:24:
                    37:2a:e9:ff:2f:ef:1a:26:c5:71:75:97:ba:80:41:
                    1e:f7:1e:4b:0c:59:cd:e7:09:f8:c6:f4:1d:cc:15:
                    be:e1:09:8d:f0:b4:b0:68:4e:d5:da:97:bd:ff:32:
                    e7:a5:84:f8:c7:2b:46:d7:9b:7d:24:5d:97:a1:a6:
                    04:91:23:ba:14:b7:66:fc:9b:01:de:29:03:98:c5:
                    31:19:4c:2b:9b:ab:ec:70:de:1a:fb:f7:f8:da:39:
                    d4:22:1c:42:e1:44:53:fc:bd:91:a1:1d:7a:dc:59:
                    be:aa:3b:10:46:60:e8:7e:1b:e7:a4:d2:d0:ee:e7:
                    2b:9d
                Exponent: 65537 (0x10001)
        X509v3 extensions:
            Authority Information Access: 
                CA Issuers - URI:http://sub-ca.localhost/sub-ca.crt
                OCSP - URI:http://ocsp.sub-ca.localhost:9081

            X509v3 Authority Key Identifier: 
                keyid:20:4E:F0:B3:1E:BF:BC:1F:35:6A:C5:70:8E:A0:D8:70:D5:D1:57:44

            X509v3 Basic Constraints: critical
                CA:FALSE
            X509v3 CRL Distribution Points: 

                Full Name:
                  URI:http://sub-ca.localhost/sub-ca.crl

            X509v3 Extended Key Usage: 
                TLS Web Client Authentication
            X509v3 Key Usage: critical
                Digital Signature
            X509v3 Subject Key Identifier: 
                AE:11:CA:B1:6D:D1:5E:E5:7F:B4:6B:8A:1B:8C:3C:0D:AE:B4:16:66
    Signature Algorithm: sha256WithRSAEncryption
         63:dc:04:f9:f1:f6:e2:b4:53:a1:95:5f:72:07:78:11:4e:4d:
         1b:93:40:3a:ea:87:a4:65:a0:f9:0f:16:28:61:f6:6f:7d:b6:
         9f:bd:1b:d1:73:8e:f8:b7:a6:5a:26:17:45:c3:15:50:f1:2f:
         0e:5d:06:96:7f:3a:d9:3b:2f:5b:5e:e4:73:3e:02:92:76:85:
         8a:a6:c7:21:03:a4:4a:05:f4:5f:81:9f:22:7e:98:2b:5b:f5:
         07:8a:b2:d8:05:65:62:2a:e3:75:9f:fd:2f:fd:9d:9d:ed:7e:
         1a:7f:22:af:e4:50:a3:50:9f:7e:cf:37:9e:1c:a7:87:ef:9e:
         37:fa:e0:de:61:a2:44:6b:98:3d:8c:e4:36:09:2c:21:63:24:
         f4:47:36:1c:ab:78:d8:96:06:a7:9f:34:69:b0:9e:9e:8c:19:
         9e:03:13:2d:d5:c0:8c:47:e3:0d:ca:f1:8e:23:b9:51:e8:28:
         8c:9f:35:4e:8c:cc:c2:52:a8:db:2d:a2:ed:70:45:4a:ff:e3:
         ec:77:fe:16:cc:36:79:85:58:b5:66:a7:3e:a6:d2:68:f7:a6:
         a5:86:8c:87:bc:49:58:93:f7:9c:72:05:95:74:33:32:ba:a4:
         b5:a1:62:5c:ff:9e:e5:a5:d6:fc:04:26:2c:e0:0b:46:28:ec:
         5f:e5:d9:49
-----BEGIN CERTIFICATE-----
MIIELDCCAxSgAwIBAgIRAJBMZhuWGLmZEerit5uYz7kwDQYJKoZIhvcNAQELBQAw
QjELMAkGA1UEBhMCVVMxIjAgBgNVBAoMGVBvcnRsYW5kIFN0YXRlIFVuaXZlcnNp
dHkxDzANBgNVBAMMBlN1YiBDQTAeFw0yMTA0MjkwMjU5MTdaFw0yMjA0MjkwMjU5
MTdaMEIxCzAJBgNVBAYTAlVTMSIwIAYDVQQKDBlQb3J0bGFuZCBTdGF0ZSBVbml2
ZXJzaXR5MQ8wDQYDVQQDDAZTdWIgQ0EwggEiMA0GCSqGSIb3DQEBAQUAA4IBDwAw
ggEKAoIBAQCgFAl/3jFHZyEcczx49pXlrsAcpmiazR/Q3ftsXAfsuyefiALyonrE
RVIFrLnW0U2j8KbAOZp4xr/uJeryZDqW66herKs4APcQ64T21KkaBvsDwfoA3FVB
2kIdFQ5n5FpBpjfdpD/NbFAZIVBPZvu1i91+P9iTPSA04cwyKz3+U2Y62CAnJDcq
6f8v7xomxXF1l7qAQR73HksMWc3nCfjG9B3MFb7hCY3wtLBoTtXal73/MuelhPjH
K0bXm30kXZehpgSRI7oUt2b8mwHeKQOYxTEZTCubq+xw3hr79/jaOdQiHELhRFP8
vZGhHXrcWb6qOxBGYOh+G+ek0tDu5yudAgMBAAGjggEbMIIBFzBtBggrBgEFBQcB
AQRhMF8wLgYIKwYBBQUHMAKGImh0dHA6Ly9zdWItY2EubG9jYWxob3N0L3N1Yi1j
YS5jcnQwLQYIKwYBBQUHMAGGIWh0dHA6Ly9vY3NwLnN1Yi1jYS5sb2NhbGhvc3Q6
OTA4MTAfBgNVHSMEGDAWgBQgTvCzHr+8HzVqxXCOoNhw1dFXRDAMBgNVHRMBAf8E
AjAAMDMGA1UdHwQsMCowKKAmoCSGImh0dHA6Ly9zdWItY2EubG9jYWxob3N0L3N1
Yi1jYS5jcmwwEwYDVR0lBAwwCgYIKwYBBQUHAwIwDgYDVR0PAQH/BAQDAgeAMB0G
A1UdDgQWBBSuEcqxbdFe5X+0a4objDwNrrQWZjANBgkqhkiG9w0BAQsFAAOCAQEA
Y9wE+fH24rRToZVfcgd4EU5NG5NAOuqHpGWg+Q8WKGH2b322n70b0XOO+LemWiYX
RcMVUPEvDl0Gln862TsvW17kcz4CknaFiqbHIQOkSgX0X4GfIn6YK1v1B4qy2AVl
YirjdZ/9L/2dne1+Gn8ir+RQo1Cffs83nhynh++eN/rg3mGiRGuYPYzkNgksIWMk
9Ec2HKt42JYGp580abCenowZngMTLdXAjEfjDcrxjiO5UegojJ81TozMwlKo2y2i
7XBFSv/j7Hf+Fsw2eYVYtWanPqbSaPempYaMh7xJWJP3nHIFlXQzMrqktaFiXP+e
5aXW/AQmLOALRijsX+XZSQ==
-----END CERTIFICATE-----
