Certificate:
    Data:
        Version: 3 (0x2)
        Serial Number:
            90:4c:66:1b:96:18:b9:99:11:ea:e2:b7:9b:98:cf:f7
        Signature Algorithm: sha256WithRSAEncryption
        Issuer: C=US, O=Portland State University, CN=Sub CA
        Validity
            Not Before: Apr  5 20:37:24 2022 GMT
            Not After : Apr  5 20:37:24 2023 GMT
        Subject: C=US, O=Portland State University, CN=Sub CA
        Subject Public Key Info:
            Public Key Algorithm: rsaEncryption
                RSA Public-Key: (2048 bit)
                Modulus:
                    00:cd:02:35:0c:11:86:70:16:62:a8:d0:95:0a:2e:
                    59:84:3a:f3:eb:38:fa:3e:79:5a:b6:5e:30:3f:e7:
                    3b:fb:c5:61:22:79:1f:fb:17:8f:d0:5c:a2:8b:a0:
                    ae:db:9e:f1:33:f1:e2:6f:47:c7:45:a0:e7:f6:19:
                    77:51:ae:8f:c8:71:61:ad:99:08:3a:2a:71:a0:4b:
                    4f:c1:04:2b:ab:3b:92:66:7d:31:1f:bd:50:9b:2d:
                    5a:28:b8:36:ae:c8:71:f4:24:c6:a9:68:01:55:5f:
                    6b:57:cb:8c:f5:ed:5d:e2:b6:40:a0:c9:6f:43:dc:
                    3d:97:25:b0:98:5b:f8:af:9e:af:af:d1:24:c3:9d:
                    8b:f6:fb:e5:f4:62:9e:57:e9:7f:bd:3f:de:ff:07:
                    f6:e2:dc:11:c6:b4:8a:ca:50:08:c1:cf:3a:9e:7d:
                    fa:30:70:90:c9:42:e5:3f:84:79:c9:88:e6:56:1c:
                    fa:e6:da:e9:f0:11:0a:d5:27:9d:8a:ef:08:87:a1:
                    c1:99:6d:00:25:be:ba:95:be:dd:b3:12:1e:38:9a:
                    9c:3a:d2:25:66:ac:40:ac:1c:40:bf:3b:de:70:1c:
                    8c:04:a9:9d:36:30:0b:a5:02:92:4d:c4:c1:76:98:
                    ad:b3:b0:a7:5e:eb:c3:3d:a0:eb:d3:56:d7:34:a1:
                    98:c1
                Exponent: 65537 (0x10001)
        X509v3 extensions:
            Authority Information Access: 
                CA Issuers - URI:http://sub-ca.localhost/sub-ca.crt
                OCSP - URI:http://ocsp.sub-ca.localhost:9081

            X509v3 Authority Key Identifier: 
                keyid:20:4E:F0:B3:1E:BF:BC:1F:35:6A:C5:70:8E:A0:D8:70:D5:D1:57:44

            X509v3 Basic Constraints: critical
                CA:FALSE
            X509v3 CRL Distribution Points: 

                Full Name:
                  URI:http://sub-ca.localhost/sub-ca.crl

            X509v3 Extended Key Usage: 
                TLS Web Client Authentication
            X509v3 Key Usage: critical
                Digital Signature
            X509v3 Subject Key Identifier: 
                10:9B:1B:90:AF:6C:9E:0F:06:43:35:DE:7B:15:D8:2E:3B:45:40:81
    Signature Algorithm: sha256WithRSAEncryption
         95:16:c1:7b:c0:4c:79:7b:f2:df:d9:62:83:a5:93:00:e7:e6:
         f7:73:7a:77:6a:ba:63:6b:4c:fb:ee:60:16:34:2c:cf:bd:0d:
         98:66:05:bb:dc:2b:26:06:16:c5:1a:db:1c:a6:9c:0d:1c:74:
         f0:9f:10:14:77:ab:e2:c1:b1:ba:ce:39:6e:2d:d0:52:50:c6:
         e5:67:b7:ef:0e:d3:b2:f3:13:e1:24:85:94:87:b1:5c:b9:85:
         e0:ce:a9:44:45:49:18:81:98:67:5c:5f:8c:91:e0:05:22:36:
         58:d4:af:62:c2:76:59:81:85:d2:bd:87:57:22:4f:9d:06:f3:
         34:f5:13:c4:99:29:04:3e:75:4c:ad:7c:f4:a0:e2:ce:c1:ae:
         e1:79:02:b0:2f:69:2c:78:89:17:d5:ae:0d:8f:65:1a:f1:50:
         9e:44:00:a0:e5:e1:f8:57:99:b8:d5:33:92:6e:6c:7c:43:16:
         78:93:82:0b:7f:c2:93:f2:52:94:3c:1a:6f:3b:99:1a:01:75:
         f7:81:02:6b:c8:82:58:20:b7:a2:d0:3f:cd:3a:0f:18:e3:c3:
         9e:0e:e0:11:c0:f2:a4:fe:20:76:c8:07:39:1f:b4:90:64:5f:
         29:e0:04:52:ef:0b:a2:eb:95:79:11:86:4c:73:54:f4:f1:4b:
         56:de:2d:2b
-----BEGIN CERTIFICATE-----
MIIELDCCAxSgAwIBAgIRAJBMZhuWGLmZEerit5uYz/cwDQYJKoZIhvcNAQELBQAw
QjELMAkGA1UEBhMCVVMxIjAgBgNVBAoMGVBvcnRsYW5kIFN0YXRlIFVuaXZlcnNp
dHkxDzANBgNVBAMMBlN1YiBDQTAeFw0yMjA0MDUyMDM3MjRaFw0yMzA0MDUyMDM3
MjRaMEIxCzAJBgNVBAYTAlVTMSIwIAYDVQQKDBlQb3J0bGFuZCBTdGF0ZSBVbml2
ZXJzaXR5MQ8wDQYDVQQDDAZTdWIgQ0EwggEiMA0GCSqGSIb3DQEBAQUAA4IBDwAw
ggEKAoIBAQDNAjUMEYZwFmKo0JUKLlmEOvPrOPo+eVq2XjA/5zv7xWEieR/7F4/Q
XKKLoK7bnvEz8eJvR8dFoOf2GXdRro/IcWGtmQg6KnGgS0/BBCurO5JmfTEfvVCb
LVoouDauyHH0JMapaAFVX2tXy4z17V3itkCgyW9D3D2XJbCYW/ivnq+v0STDnYv2
++X0Yp5X6X+9P97/B/bi3BHGtIrKUAjBzzqeffowcJDJQuU/hHnJiOZWHPrm2unw
EQrVJ52K7wiHocGZbQAlvrqVvt2zEh44mpw60iVmrECsHEC/O95wHIwEqZ02MAul
ApJNxMF2mK2zsKde68M9oOvTVtc0oZjBAgMBAAGjggEbMIIBFzBtBggrBgEFBQcB
AQRhMF8wLgYIKwYBBQUHMAKGImh0dHA6Ly9zdWItY2EubG9jYWxob3N0L3N1Yi1j
YS5jcnQwLQYIKwYBBQUHMAGGIWh0dHA6Ly9vY3NwLnN1Yi1jYS5sb2NhbGhvc3Q6
OTA4MTAfBgNVHSMEGDAWgBQgTvCzHr+8HzVqxXCOoNhw1dFXRDAMBgNVHRMBAf8E
AjAAMDMGA1UdHwQsMCowKKAmoCSGImh0dHA6Ly9zdWItY2EubG9jYWxob3N0L3N1
Yi1jYS5jcmwwEwYDVR0lBAwwCgYIKwYBBQUHAwIwDgYDVR0PAQH/BAQDAgeAMB0G
A1UdDgQWBBQQmxuQr2yeDwZDNd57FdguO0VAgTANBgkqhkiG9w0BAQsFAAOCAQEA
lRbBe8BMeXvy39lig6WTAOfm93N6d2q6Y2tM++5gFjQsz70NmGYFu9wrJgYWxRrb
HKacDRx08J8QFHer4sGxus45bi3QUlDG5We37w7TsvMT4SSFlIexXLmF4M6pREVJ
GIGYZ1xfjJHgBSI2WNSvYsJ2WYGF0r2HVyJPnQbzNPUTxJkpBD51TK189KDizsGu
4XkCsC9pLHiJF9WuDY9lGvFQnkQAoOXh+FeZuNUzkm5sfEMWeJOCC3/Ck/JSlDwa
bzuZGgF194ECa8iCWCC3otA/zToPGOPDng7gEcDypP4gdsgHOR+0kGRfKeAEUu8L
ouuVeRGGTHNU9PFLVt4tKw==
-----END CERTIFICATE-----
