Certificate:
    Data:
        Version: 3 (0x2)
        Serial Number:
            90:4c:66:1b:96:18:b9:99:11:ea:e2:b7:9b:98:cf:cc
        Signature Algorithm: sha256WithRSAEncryption
        Issuer: C=US, O=Portland State University, CN=Sub CA
        Validity
            Not Before: Apr  5 20:37:19 2022 GMT
            Not After : Apr  5 20:37:19 2023 GMT
        Subject: C=US, O=Portland State University, CN=Sub CA
        Subject Public Key Info:
            Public Key Algorithm: rsaEncryption
                RSA Public-Key: (2048 bit)
                Modulus:
                    00:ad:40:3b:e7:76:a1:37:89:ed:33:73:84:f8:ea:
                    27:f6:27:45:4d:b2:86:45:2b:28:c4:bc:fc:e1:d6:
                    47:bb:9a:86:7d:a2:d5:af:c9:9d:ee:12:a0:44:91:
                    13:51:ae:e8:e7:e4:df:b8:fc:53:17:d7:c5:bf:45:
                    b7:d4:08:4b:4a:57:7f:c1:78:ac:0d:b4:82:d2:74:
                    20:a5:41:89:66:49:c7:8a:22:5d:1f:74:a3:6f:1b:
                    47:46:ab:24:42:6f:89:84:e7:1b:ee:7d:ec:73:b0:
                    53:ff:5d:32:df:91:a6:a3:b2:33:af:95:1a:e0:d1:
                    1f:b3:68:c5:aa:1f:81:40:5b:27:80:c0:8b:9b:8d:
                    4b:df:2f:f5:d1:f9:0d:47:6e:72:7d:66:bd:60:35:
                    9e:0a:4f:d7:18:80:15:ef:4b:cf:02:d6:16:0c:25:
                    3c:65:0e:46:76:7f:ba:3f:9b:63:e4:64:c4:1f:83:
                    d9:de:e7:ce:1d:7a:47:e6:c1:18:3c:21:a2:ad:8f:
                    77:e9:99:aa:f6:62:3a:98:83:d0:16:71:47:fa:0e:
                    6b:9e:8f:0f:f7:e3:06:7a:04:09:ea:b8:dc:9b:f5:
                    f4:14:72:8c:44:86:de:7e:fa:f1:d4:fe:72:d2:8a:
                    95:ae:c6:9b:d8:bd:24:69:f7:b8:a8:c9:7d:c1:c7:
                    57:a1
                Exponent: 65537 (0x10001)
        X509v3 extensions:
            Authority Information Access: 
                CA Issuers - URI:http://sub-ca.localhost/sub-ca.crt
                OCSP - URI:http://ocsp.sub-ca.localhost:9081

            X509v3 Authority Key Identifier: 
                keyid:20:4E:F0:B3:1E:BF:BC:1F:35:6A:C5:70:8E:A0:D8:70:D5:D1:57:44

            X509v3 Basic Constraints: critical
                CA:FALSE
            X509v3 CRL Distribution Points: 

                Full Name:
                  URI:http://sub-ca.localhost/sub-ca.crl

            X509v3 Extended Key Usage: 
                TLS Web Client Authentication
            X509v3 Key Usage: critical
                Digital Signature
            X509v3 Subject Key Identifier: 
                49:1C:A4:C8:AA:EF:B3:2D:8D:7B:9A:A5:F5:AA:CB:E2:E5:43:E1:89
    Signature Algorithm: sha256WithRSAEncryption
         56:84:96:17:9f:07:ec:09:49:6b:78:f4:d8:53:15:59:de:41:
         79:bb:fc:3c:20:dd:a5:53:d2:0b:42:41:26:4b:fc:9e:11:3f:
         d9:77:a9:f8:61:47:59:2f:79:8d:40:eb:e5:35:d2:fe:81:92:
         f0:63:e0:90:4e:ff:25:17:f4:ae:4a:83:13:71:71:7e:54:a0:
         82:81:51:e9:65:80:ec:45:90:23:cf:48:73:67:23:43:1b:d9:
         7c:76:36:38:eb:d0:2c:69:7b:93:0a:9e:42:09:29:e2:f0:c0:
         a4:18:0d:0c:f7:c6:e1:dc:60:13:bb:73:e9:63:65:49:17:c4:
         65:bb:5b:5c:94:9b:09:94:26:43:0a:8b:5b:3d:2e:6b:94:54:
         01:e8:f4:6d:10:a3:40:96:01:79:09:d0:e7:3f:35:d0:d7:8e:
         25:33:e7:48:49:5f:c5:58:2f:c1:82:48:a4:8c:8a:04:09:d9:
         b8:f1:36:8f:53:0c:26:f2:b3:57:45:83:6c:df:2f:ed:94:7a:
         02:58:03:0c:6e:97:bd:3b:53:4d:9c:30:d3:e1:e3:9e:02:a8:
         dd:50:c1:73:0a:0f:a7:3f:2d:00:8a:a9:ac:0d:7c:58:71:95:
         45:73:51:59:1d:af:b2:ca:dd:ce:72:ec:99:f3:40:00:3c:98:
         e0:78:25:ba
-----BEGIN CERTIFICATE-----
MIIELDCCAxSgAwIBAgIRAJBMZhuWGLmZEerit5uYz8wwDQYJKoZIhvcNAQELBQAw
QjELMAkGA1UEBhMCVVMxIjAgBgNVBAoMGVBvcnRsYW5kIFN0YXRlIFVuaXZlcnNp
dHkxDzANBgNVBAMMBlN1YiBDQTAeFw0yMjA0MDUyMDM3MTlaFw0yMzA0MDUyMDM3
MTlaMEIxCzAJBgNVBAYTAlVTMSIwIAYDVQQKDBlQb3J0bGFuZCBTdGF0ZSBVbml2
ZXJzaXR5MQ8wDQYDVQQDDAZTdWIgQ0EwggEiMA0GCSqGSIb3DQEBAQUAA4IBDwAw
ggEKAoIBAQCtQDvndqE3ie0zc4T46if2J0VNsoZFKyjEvPzh1ke7moZ9otWvyZ3u
EqBEkRNRrujn5N+4/FMX18W/RbfUCEtKV3/BeKwNtILSdCClQYlmSceKIl0fdKNv
G0dGqyRCb4mE5xvufexzsFP/XTLfkaajsjOvlRrg0R+zaMWqH4FAWyeAwIubjUvf
L/XR+Q1HbnJ9Zr1gNZ4KT9cYgBXvS88C1hYMJTxlDkZ2f7o/m2PkZMQfg9ne584d
ekfmwRg8IaKtj3fpmar2YjqYg9AWcUf6Dmuejw/34wZ6BAnquNyb9fQUcoxEht5+
+vHU/nLSipWuxpvYvSRp97ioyX3Bx1ehAgMBAAGjggEbMIIBFzBtBggrBgEFBQcB
AQRhMF8wLgYIKwYBBQUHMAKGImh0dHA6Ly9zdWItY2EubG9jYWxob3N0L3N1Yi1j
YS5jcnQwLQYIKwYBBQUHMAGGIWh0dHA6Ly9vY3NwLnN1Yi1jYS5sb2NhbGhvc3Q6
OTA4MTAfBgNVHSMEGDAWgBQgTvCzHr+8HzVqxXCOoNhw1dFXRDAMBgNVHRMBAf8E
AjAAMDMGA1UdHwQsMCowKKAmoCSGImh0dHA6Ly9zdWItY2EubG9jYWxob3N0L3N1
Yi1jYS5jcmwwEwYDVR0lBAwwCgYIKwYBBQUHAwIwDgYDVR0PAQH/BAQDAgeAMB0G
A1UdDgQWBBRJHKTIqu+zLY17mqX1qsvi5UPhiTANBgkqhkiG9w0BAQsFAAOCAQEA
VoSWF58H7AlJa3j02FMVWd5Bebv8PCDdpVPSC0JBJkv8nhE/2Xep+GFHWS95jUDr
5TXS/oGS8GPgkE7/JRf0rkqDE3FxflSggoFR6WWA7EWQI89Ic2cjQxvZfHY2OOvQ
LGl7kwqeQgkp4vDApBgNDPfG4dxgE7tz6WNlSRfEZbtbXJSbCZQmQwqLWz0ua5RU
Aej0bRCjQJYBeQnQ5z810NeOJTPnSElfxVgvwYJIpIyKBAnZuPE2j1MMJvKzV0WD
bN8v7ZR6AlgDDG6XvTtTTZww0+HjngKo3VDBcwoPpz8tAIqprA18WHGVRXNRWR2v
ssrdznLsmfNAADyY4Hglug==
-----END CERTIFICATE-----
