Certificate:
    Data:
        Version: 3 (0x2)
        Serial Number:
            90:4c:66:1b:96:18:b9:99:11:ea:e2:b7:9b:98:cf:b5
        Signature Algorithm: sha256WithRSAEncryption
        Issuer: C=US, O=Portland State University, CN=Root CA
        Validity
            Not Before: Apr 29 02:31:15 2021 GMT
            Not After : Apr 27 02:31:15 2031 GMT
        Subject: C=US, O=Portland State University, CN=Sub CA
        Subject Public Key Info:
            Public Key Algorithm: rsaEncryption
                RSA Public-Key: (2048 bit)
                Modulus:
                    00:b0:67:59:f0:91:37:37:e9:61:0b:37:e2:75:c4:
                    b8:f4:68:5d:cd:0c:f3:71:e3:cf:72:5c:c2:c5:8f:
                    1e:1c:39:92:31:ef:32:a2:ff:dc:f7:e9:8a:01:9c:
                    c7:fd:0e:f6:79:5f:52:07:67:df:4e:a2:45:18:96:
                    cd:b7:f7:2e:2b:4a:cf:c0:a0:d7:dd:05:70:6a:fa:
                    c6:1e:e5:48:53:87:a9:fa:64:0b:d3:86:32:d0:75:
                    a7:58:f1:05:5e:19:54:f7:ba:ae:86:fe:71:49:5f:
                    6d:30:a0:74:d0:06:3c:1e:5f:bc:e9:3b:cd:f2:c7:
                    fa:2a:a9:0e:87:51:22:a5:75:e3:c7:96:ee:94:56:
                    3a:85:a5:d5:93:62:a2:12:6f:01:34:1b:d0:2b:50:
                    69:dc:a6:11:fe:d4:68:b4:72:16:23:05:06:c8:85:
                    a0:71:1a:39:45:d5:97:2e:e6:7c:8b:26:f4:12:38:
                    83:e9:a8:24:5c:a9:14:72:c5:28:e0:37:16:00:73:
                    05:62:ca:0e:95:ef:36:e0:9b:93:dd:a8:26:cf:d7:
                    cb:55:30:52:85:aa:53:ba:c1:e8:90:3a:95:7b:d6:
                    08:3c:bd:f3:6f:87:fe:dd:52:3c:59:0f:9b:ff:21:
                    b9:38:c1:fb:99:b3:57:21:b0:1b:f3:0d:16:f2:99:
                    06:6b
                Exponent: 65537 (0x10001)
        X509v3 extensions:
            Authority Information Access: 
                CA Issuers - URI:http://root-ca.localhost/root-ca.crt
                OCSP - URI:http://ocsp.root-ca.localhost:9080

            X509v3 Authority Key Identifier: 
                keyid:E8:F9:70:86:85:2D:CF:DF:D0:A0:6A:D6:CF:B3:BA:FC:C4:E0:4B:56

            X509v3 Basic Constraints: critical
                CA:TRUE, pathlen:0
            X509v3 CRL Distribution Points: 

                Full Name:
                  URI:http://root-ca.localhost/root-ca.crl

            X509v3 Extended Key Usage: 
                TLS Web Client Authentication, TLS Web Server Authentication
            X509v3 Key Usage: critical
                Certificate Sign, CRL Sign
            X509v3 Name Constraints: 
                Permitted:
                  DNS:example.com
                  IP:0.0.0.0/0.0.0.0

            X509v3 Subject Key Identifier: 
                20:4E:F0:B3:1E:BF:BC:1F:35:6A:C5:70:8E:A0:D8:70:D5:D1:57:44
    Signature Algorithm: sha256WithRSAEncryption
         a2:fc:bb:26:dc:43:b1:94:b2:b7:17:4c:6f:67:59:a6:62:cf:
         c9:f2:bd:8d:40:8b:ba:45:9f:09:da:26:1a:d3:ce:00:12:bb:
         f6:17:a9:e9:e5:0d:61:69:57:85:f7:ae:45:4b:e9:da:29:ea:
         1e:83:da:e3:6d:d3:be:b8:21:4f:03:f5:2c:68:44:c3:fa:68:
         84:c7:08:de:b1:fd:57:d3:f7:c5:a0:07:69:f6:c4:8f:cb:f0:
         43:d9:f8:c7:c5:6d:ed:26:b2:f2:09:16:e7:6d:33:ea:47:3e:
         e0:fc:bc:2f:70:4b:89:d2:9e:9f:d5:41:85:38:5c:1e:98:15:
         48:d7:0e:5b:47:a9:06:1e:9c:b3:14:b3:db:ae:dc:e2:50:9a:
         d7:21:e6:94:07:e5:5c:cc:a8:0e:94:1b:80:f9:ea:7d:58:91:
         44:69:92:b8:73:75:8f:09:b4:5c:ba:52:91:78:16:f8:73:5b:
         ff:ce:1a:75:ff:80:ff:95:58:99:34:41:65:a3:c6:74:f1:1f:
         f9:f0:bf:ff:6e:5d:7a:4c:5c:d6:08:9b:b7:d2:84:27:66:85:
         45:82:90:95:a4:81:4d:fc:c4:f5:74:5f:a1:a8:d1:11:87:a6:
         ff:9e:82:18:7b:c4:c1:93:46:7a:08:84:a3:26:3d:43:d7:87:
         91:f4:fe:83
-----BEGIN CERTIFICATE-----
MIIEajCCA1KgAwIBAgIRAJBMZhuWGLmZEerit5uYz7UwDQYJKoZIhvcNAQELBQAw
QzELMAkGA1UEBhMCVVMxIjAgBgNVBAoMGVBvcnRsYW5kIFN0YXRlIFVuaXZlcnNp
dHkxEDAOBgNVBAMMB1Jvb3QgQ0EwHhcNMjEwNDI5MDIzMTE1WhcNMzEwNDI3MDIz
MTE1WjBCMQswCQYDVQQGEwJVUzEiMCAGA1UECgwZUG9ydGxhbmQgU3RhdGUgVW5p
dmVyc2l0eTEPMA0GA1UEAwwGU3ViIENBMIIBIjANBgkqhkiG9w0BAQEFAAOCAQ8A
MIIBCgKCAQEAsGdZ8JE3N+lhCzfidcS49GhdzQzzcePPclzCxY8eHDmSMe8yov/c
9+mKAZzH/Q72eV9SB2ffTqJFGJbNt/cuK0rPwKDX3QVwavrGHuVIU4ep+mQL04Yy
0HWnWPEFXhlU97quhv5xSV9tMKB00AY8Hl+86TvN8sf6KqkOh1EipXXjx5bulFY6
haXVk2KiEm8BNBvQK1Bp3KYR/tRotHIWIwUGyIWgcRo5RdWXLuZ8iyb0EjiD6agk
XKkUcsUo4DcWAHMFYsoOle824JuT3agmz9fLVTBShapTusHokDqVe9YIPL3zb4f+
3VI8WQ+b/yG5OMH7mbNXIbAb8w0W8pkGawIDAQABo4IBWDCCAVQwcAYIKwYBBQUH
AQEEZDBiMDAGCCsGAQUFBzAChiRodHRwOi8vcm9vdC1jYS5sb2NhbGhvc3Qvcm9v
dC1jYS5jcnQwLgYIKwYBBQUHMAGGImh0dHA6Ly9vY3NwLnJvb3QtY2EubG9jYWxo
b3N0OjkwODAwHwYDVR0jBBgwFoAU6PlwhoUtz9/QoGrWz7O6/MTgS1YwEgYDVR0T
AQH/BAgwBgEB/wIBADA1BgNVHR8ELjAsMCqgKKAmhiRodHRwOi8vcm9vdC1jYS5s
b2NhbGhvc3Qvcm9vdC1jYS5jcmwwHQYDVR0lBBYwFAYIKwYBBQUHAwIGCCsGAQUF
BwMBMA4GA1UdDwEB/wQEAwIBBjAmBgNVHR4EHzAdoBswDYILZXhhbXBsZS5jb20w
CocIAAAAAAAAAAAwHQYDVR0OBBYEFCBO8LMev7wfNWrFcI6g2HDV0VdEMA0GCSqG
SIb3DQEBCwUAA4IBAQCi/Lsm3EOxlLK3F0xvZ1mmYs/J8r2NQIu6RZ8J2iYa084A
Erv2F6np5Q1haVeF965FS+naKeoeg9rjbdO+uCFPA/UsaETD+miExwjesf1X0/fF
oAdp9sSPy/BD2fjHxW3tJrLyCRbnbTPqRz7g/LwvcEuJ0p6f1UGFOFwemBVI1w5b
R6kGHpyzFLPbrtziUJrXIeaUB+VczKgOlBuA+ep9WJFEaZK4c3WPCbRculKReBb4
c1v/zhp1/4D/lViZNEFlo8Z08R/58L//bl16TFzWCJu30oQnZoVFgpCVpIFN/MT1
dF+hqNERh6b/noIYe8TBk0Z6CISjJj1D14eR9P6D
-----END CERTIFICATE-----
