Certificate:
    Data:
        Version: 3 (0x2)
        Serial Number:
            90:4c:66:1b:96:18:b9:99:11:ea:e2:b7:9b:98:cf:d2
        Signature Algorithm: sha256WithRSAEncryption
        Issuer: C=US, O=Portland State University, CN=Sub CA
        Validity
            Not Before: Apr  5 20:37:20 2022 GMT
            Not After : Apr  5 20:37:20 2023 GMT
        Subject: C=US, O=Portland State University, CN=Sub CA
        Subject Public Key Info:
            Public Key Algorithm: rsaEncryption
                RSA Public-Key: (2048 bit)
                Modulus:
                    00:ac:69:b1:52:73:6b:d3:2c:ba:77:df:0f:f3:99:
                    80:cf:3a:17:65:2d:54:94:d9:5f:77:d8:36:b6:f6:
                    b6:a3:f2:82:71:21:4c:af:88:7c:8d:76:7c:5d:10:
                    94:9f:fb:3a:14:1f:89:1d:06:eb:c2:43:20:53:ce:
                    f4:86:aa:55:dd:6a:8a:0e:7c:87:c7:5a:45:87:be:
                    2e:ab:39:72:99:a3:80:5e:e7:67:ce:ea:0b:9e:50:
                    f6:fd:e8:ce:53:dd:81:97:d0:19:79:d6:15:45:dc:
                    23:33:25:fc:86:98:88:af:1c:30:6c:c7:87:4b:e4:
                    bd:e7:6e:00:99:5c:36:3e:85:d9:df:ed:a7:d3:5d:
                    98:17:fb:11:04:e4:2c:6c:bf:0d:17:dc:a7:df:99:
                    5c:0d:ae:32:9f:f2:c5:31:c3:32:e4:74:b1:14:5a:
                    e6:98:71:06:5c:41:91:0b:71:bb:48:ed:fc:8c:a4:
                    76:ea:85:ef:62:df:70:ab:bd:b8:6c:61:a6:c0:cd:
                    dd:83:9a:9c:fd:82:78:84:83:4d:3b:ae:6e:ea:3d:
                    be:74:b0:08:9c:1f:bc:3c:20:93:d2:d8:c4:16:32:
                    66:56:29:04:9b:1c:20:5c:88:ac:22:dd:f3:a2:31:
                    ac:0c:02:02:19:42:61:52:24:03:d3:4f:c4:d9:f9:
                    88:71
                Exponent: 65537 (0x10001)
        X509v3 extensions:
            Authority Information Access: 
                CA Issuers - URI:http://sub-ca.localhost/sub-ca.crt
                OCSP - URI:http://ocsp.sub-ca.localhost:9081

            X509v3 Authority Key Identifier: 
                keyid:20:4E:F0:B3:1E:BF:BC:1F:35:6A:C5:70:8E:A0:D8:70:D5:D1:57:44

            X509v3 Basic Constraints: critical
                CA:FALSE
            X509v3 CRL Distribution Points: 

                Full Name:
                  URI:http://sub-ca.localhost/sub-ca.crl

            X509v3 Extended Key Usage: 
                TLS Web Client Authentication
            X509v3 Key Usage: critical
                Digital Signature
            X509v3 Subject Key Identifier: 
                8B:5C:D5:F8:F2:3F:A0:A0:D7:83:F3:5E:B7:78:3C:E2:68:5F:2A:AA
    Signature Algorithm: sha256WithRSAEncryption
         09:ab:09:1a:57:79:83:dc:cd:fc:07:4d:15:c6:df:1f:23:1a:
         dd:68:6c:e3:e3:ea:d6:e6:b9:75:e3:0d:ac:03:07:6c:f5:27:
         b4:ea:92:ac:0f:25:6c:31:75:25:ad:3c:79:82:10:4e:c1:78:
         2d:80:db:02:81:5b:cf:2a:67:0b:f1:4f:8c:a4:a9:bb:08:30:
         bc:a4:ab:11:f3:fb:43:4c:ab:c4:81:d2:61:65:c7:de:ae:b7:
         58:8f:b5:de:91:53:de:09:ba:90:90:1a:f3:74:68:02:f8:2e:
         5d:3b:8e:50:15:93:a8:0f:d6:42:47:6c:b9:18:90:c7:d3:e4:
         f9:bc:dd:d5:08:c7:4e:e0:92:59:44:4d:0b:46:1a:7f:83:5a:
         a7:27:d4:2d:06:5a:c4:b4:9a:7a:34:73:0b:5f:74:b8:d0:42:
         21:68:cb:3f:83:18:cd:d8:eb:17:12:a5:ed:e0:97:13:bd:56:
         8b:bd:4c:92:90:32:6a:f6:d6:1e:56:de:d3:63:4c:b7:c6:f9:
         85:ee:e0:0f:9e:7e:5c:3c:91:c5:f8:65:29:e4:b3:3e:a8:34:
         6d:cb:fd:45:04:da:3e:31:0a:a6:28:91:84:63:1c:d1:04:1d:
         11:40:b0:40:94:75:da:ca:4d:40:44:0c:ba:d7:f4:5a:3e:29:
         71:44:dc:bc
-----BEGIN CERTIFICATE-----
MIIELDCCAxSgAwIBAgIRAJBMZhuWGLmZEerit5uYz9IwDQYJKoZIhvcNAQELBQAw
QjELMAkGA1UEBhMCVVMxIjAgBgNVBAoMGVBvcnRsYW5kIFN0YXRlIFVuaXZlcnNp
dHkxDzANBgNVBAMMBlN1YiBDQTAeFw0yMjA0MDUyMDM3MjBaFw0yMzA0MDUyMDM3
MjBaMEIxCzAJBgNVBAYTAlVTMSIwIAYDVQQKDBlQb3J0bGFuZCBTdGF0ZSBVbml2
ZXJzaXR5MQ8wDQYDVQQDDAZTdWIgQ0EwggEiMA0GCSqGSIb3DQEBAQUAA4IBDwAw
ggEKAoIBAQCsabFSc2vTLLp33w/zmYDPOhdlLVSU2V932Da29raj8oJxIUyviHyN
dnxdEJSf+zoUH4kdBuvCQyBTzvSGqlXdaooOfIfHWkWHvi6rOXKZo4Be52fO6gue
UPb96M5T3YGX0Bl51hVF3CMzJfyGmIivHDBsx4dL5L3nbgCZXDY+hdnf7afTXZgX
+xEE5Cxsvw0X3KffmVwNrjKf8sUxwzLkdLEUWuaYcQZcQZELcbtI7fyMpHbqhe9i
33CrvbhsYabAzd2Dmpz9gniEg007rm7qPb50sAicH7w8IJPS2MQWMmZWKQSbHCBc
iKwi3fOiMawMAgIZQmFSJAPTT8TZ+YhxAgMBAAGjggEbMIIBFzBtBggrBgEFBQcB
AQRhMF8wLgYIKwYBBQUHMAKGImh0dHA6Ly9zdWItY2EubG9jYWxob3N0L3N1Yi1j
YS5jcnQwLQYIKwYBBQUHMAGGIWh0dHA6Ly9vY3NwLnN1Yi1jYS5sb2NhbGhvc3Q6
OTA4MTAfBgNVHSMEGDAWgBQgTvCzHr+8HzVqxXCOoNhw1dFXRDAMBgNVHRMBAf8E
AjAAMDMGA1UdHwQsMCowKKAmoCSGImh0dHA6Ly9zdWItY2EubG9jYWxob3N0L3N1
Yi1jYS5jcmwwEwYDVR0lBAwwCgYIKwYBBQUHAwIwDgYDVR0PAQH/BAQDAgeAMB0G
A1UdDgQWBBSLXNX48j+goNeD8163eDziaF8qqjANBgkqhkiG9w0BAQsFAAOCAQEA
CasJGld5g9zN/AdNFcbfHyMa3Whs4+Pq1ua5deMNrAMHbPUntOqSrA8lbDF1Ja08
eYIQTsF4LYDbAoFbzypnC/FPjKSpuwgwvKSrEfP7Q0yrxIHSYWXH3q63WI+13pFT
3gm6kJAa83RoAvguXTuOUBWTqA/WQkdsuRiQx9Pk+bzd1QjHTuCSWURNC0Yaf4Na
pyfULQZaxLSaejRzC190uNBCIWjLP4MYzdjrFxKl7eCXE71Wi71MkpAyavbWHlbe
02NMt8b5he7gD55+XDyRxfhlKeSzPqg0bcv9RQTaPjEKpiiRhGMc0QQdEUCwQJR1
2spNQEQMutf0Wj4pcUTcvA==
-----END CERTIFICATE-----
