Certificate:
    Data:
        Version: 3 (0x2)
        Serial Number:
            90:4c:66:1b:96:18:b9:99:11:ea:e2:b7:9b:98:cf:bb
        Signature Algorithm: sha256WithRSAEncryption
        Issuer: C=US, O=Portland State University, CN=Sub CA
        Validity
            Not Before: Apr  5 20:35:41 2022 GMT
            Not After : Apr  5 20:35:41 2023 GMT
        Subject: C=US, O=Portland State University, CN=Sub CA
        Subject Public Key Info:
            Public Key Algorithm: rsaEncryption
                RSA Public-Key: (2048 bit)
                Modulus:
                    00:b0:0a:23:b9:d6:c0:6f:c0:2d:97:7d:cc:5b:6c:
                    74:f1:56:fc:b3:82:f3:2d:02:e8:18:97:d2:6a:0f:
                    44:0d:f8:04:ef:dc:90:fe:bc:cc:ef:0c:41:cf:0c:
                    f9:48:ac:a6:7f:6a:8d:10:84:20:f7:af:56:b1:4c:
                    af:c8:fe:3f:7b:18:e2:5b:d5:e5:37:50:b8:87:0c:
                    ce:b9:7b:d7:f6:60:35:0b:6f:80:b0:e4:07:d2:96:
                    e3:b4:c6:e7:32:1b:cb:28:d8:94:87:0f:dd:96:72:
                    56:9c:f3:ae:16:75:d0:97:3a:ca:8a:fc:57:12:26:
                    ab:f4:0b:ca:bb:8d:0f:96:e2:ea:32:f3:7c:47:a0:
                    f7:f9:45:97:65:78:61:c1:e6:fe:db:88:9b:d4:8f:
                    65:48:28:b8:4b:2f:79:7b:5c:af:29:78:4b:86:6c:
                    16:46:1c:37:0a:a1:02:77:da:5e:36:00:f8:15:d5:
                    b9:67:ce:cb:11:56:49:30:68:74:e4:e1:db:c4:e0:
                    e4:1d:bf:d8:fa:df:74:2a:b4:e1:84:83:41:fe:5b:
                    82:90:9a:13:a8:87:f5:80:66:b0:91:e4:72:3a:7a:
                    7e:f8:45:42:0e:0b:cd:0a:14:f5:c2:70:9d:82:fd:
                    11:ed:a8:48:c8:16:84:13:ea:c3:4b:f1:2a:df:22:
                    e6:91
                Exponent: 65537 (0x10001)
        X509v3 extensions:
            Authority Information Access: 
                CA Issuers - URI:http://sub-ca.localhost/sub-ca.crt
                OCSP - URI:http://ocsp.sub-ca.localhost:9081

            X509v3 Authority Key Identifier: 
                keyid:20:4E:F0:B3:1E:BF:BC:1F:35:6A:C5:70:8E:A0:D8:70:D5:D1:57:44

            X509v3 Basic Constraints: critical
                CA:FALSE
            X509v3 CRL Distribution Points: 

                Full Name:
                  URI:http://sub-ca.localhost/sub-ca.crl

            X509v3 Extended Key Usage: 
                TLS Web Client Authentication
            X509v3 Key Usage: critical
                Digital Signature
            X509v3 Subject Key Identifier: 
                6F:F5:E6:DD:D4:8B:94:D8:31:35:91:25:BE:03:2B:7E:5A:6C:EF:11
    Signature Algorithm: sha256WithRSAEncryption
         0a:44:e4:ae:0d:02:98:9f:b3:16:9d:83:b8:8a:a1:b4:83:09:
         d0:c2:88:38:45:73:2c:e5:34:53:0b:c4:89:4f:0d:06:57:d4:
         88:da:87:56:dd:eb:47:3c:4e:a7:99:ad:f7:86:7d:9a:fd:66:
         c7:4a:60:00:7f:39:04:97:60:6d:66:b8:09:c1:08:93:3f:23:
         04:26:35:c6:b0:0c:9b:02:02:dc:6a:44:15:37:ce:0b:ee:1e:
         9c:31:36:d4:92:33:d8:7a:95:69:59:15:00:03:49:3b:3e:fb:
         5c:a7:0a:ee:87:12:8a:19:57:56:e0:ae:fb:03:d3:63:24:ee:
         7c:3f:3a:92:1a:fb:d0:f5:53:83:cc:54:ce:6c:7d:41:45:ba:
         b6:fe:cd:b2:5e:2a:d0:19:aa:48:b9:7d:39:67:ad:36:3a:c4:
         63:f4:04:56:15:39:b6:a5:e8:64:f9:50:67:78:68:7e:b1:c4:
         c5:47:fa:64:a8:86:47:b9:82:d1:4b:61:aa:51:aa:fd:94:be:
         67:d1:c5:d7:c2:f9:89:90:2a:86:c7:d8:e3:cb:06:2a:cd:dd:
         9e:65:4a:25:7a:9f:4d:5c:00:4e:02:94:ea:5e:29:45:a6:bc:
         9c:74:fc:08:ad:29:37:ad:8f:bb:d9:73:d8:4a:4c:0e:e4:af:
         e3:b0:e1:67
-----BEGIN CERTIFICATE-----
MIIELDCCAxSgAwIBAgIRAJBMZhuWGLmZEerit5uYz7swDQYJKoZIhvcNAQELBQAw
QjELMAkGA1UEBhMCVVMxIjAgBgNVBAoMGVBvcnRsYW5kIFN0YXRlIFVuaXZlcnNp
dHkxDzANBgNVBAMMBlN1YiBDQTAeFw0yMjA0MDUyMDM1NDFaFw0yMzA0MDUyMDM1
NDFaMEIxCzAJBgNVBAYTAlVTMSIwIAYDVQQKDBlQb3J0bGFuZCBTdGF0ZSBVbml2
ZXJzaXR5MQ8wDQYDVQQDDAZTdWIgQ0EwggEiMA0GCSqGSIb3DQEBAQUAA4IBDwAw
ggEKAoIBAQCwCiO51sBvwC2XfcxbbHTxVvyzgvMtAugYl9JqD0QN+ATv3JD+vMzv
DEHPDPlIrKZ/ao0QhCD3r1axTK/I/j97GOJb1eU3ULiHDM65e9f2YDULb4Cw5AfS
luO0xucyG8so2JSHD92Wclac864WddCXOsqK/FcSJqv0C8q7jQ+W4uoy83xHoPf5
RZdleGHB5v7biJvUj2VIKLhLL3l7XK8peEuGbBZGHDcKoQJ32l42APgV1blnzssR
VkkwaHTk4dvE4OQdv9j633QqtOGEg0H+W4KQmhOoh/WAZrCR5HI6en74RUIOC80K
FPXCcJ2C/RHtqEjIFoQT6sNL8SrfIuaRAgMBAAGjggEbMIIBFzBtBggrBgEFBQcB
AQRhMF8wLgYIKwYBBQUHMAKGImh0dHA6Ly9zdWItY2EubG9jYWxob3N0L3N1Yi1j
YS5jcnQwLQYIKwYBBQUHMAGGIWh0dHA6Ly9vY3NwLnN1Yi1jYS5sb2NhbGhvc3Q6
OTA4MTAfBgNVHSMEGDAWgBQgTvCzHr+8HzVqxXCOoNhw1dFXRDAMBgNVHRMBAf8E
AjAAMDMGA1UdHwQsMCowKKAmoCSGImh0dHA6Ly9zdWItY2EubG9jYWxob3N0L3N1
Yi1jYS5jcmwwEwYDVR0lBAwwCgYIKwYBBQUHAwIwDgYDVR0PAQH/BAQDAgeAMB0G
A1UdDgQWBBRv9ebd1IuU2DE1kSW+Ayt+WmzvETANBgkqhkiG9w0BAQsFAAOCAQEA
CkTkrg0CmJ+zFp2DuIqhtIMJ0MKIOEVzLOU0UwvEiU8NBlfUiNqHVt3rRzxOp5mt
94Z9mv1mx0pgAH85BJdgbWa4CcEIkz8jBCY1xrAMmwIC3GpEFTfOC+4enDE21JIz
2HqVaVkVAANJOz77XKcK7ocSihlXVuCu+wPTYyTufD86khr70PVTg8xUzmx9QUW6
tv7Nsl4q0BmqSLl9OWetNjrEY/QEVhU5tqXoZPlQZ3hofrHExUf6ZKiGR7mC0Uth
qlGq/ZS+Z9HF18L5iZAqhsfY48sGKs3dnmVKJXqfTVwATgKU6l4pRaa8nHT8CK0p
N62Pu9lz2EpMDuSv47DhZw==
-----END CERTIFICATE-----
