Certificate:
    Data:
        Version: 3 (0x2)
        Serial Number:
            90:4c:66:1b:96:18:b9:99:11:ea:e2:b7:9b:98:cf:e1
        Signature Algorithm: sha256WithRSAEncryption
        Issuer: C=US, O=Portland State University, CN=Sub CA
        Validity
            Not Before: Apr  5 20:37:21 2022 GMT
            Not After : Apr  5 20:37:21 2023 GMT
        Subject: C=US, O=Portland State University, CN=Sub CA
        Subject Public Key Info:
            Public Key Algorithm: rsaEncryption
                RSA Public-Key: (2048 bit)
                Modulus:
                    00:9e:4a:6c:cd:85:a9:8f:55:9b:f7:56:67:fb:86:
                    7f:4d:a3:f3:17:96:28:b3:fe:3c:26:72:63:ff:1f:
                    0d:d2:be:0c:c0:d3:fd:65:3c:ca:d9:1f:4c:ae:35:
                    24:8c:bf:74:26:aa:45:4d:14:78:ae:88:86:76:4e:
                    aa:53:ff:49:ff:2f:ad:5a:fb:b8:7b:af:1b:6e:d0:
                    52:67:88:9c:c6:dc:1e:97:4a:9f:5d:e8:98:42:41:
                    e9:ab:c4:71:8e:db:54:e2:f8:33:79:04:21:ab:81:
                    e2:da:4d:09:da:39:6f:7e:3c:07:fd:59:c1:7e:d5:
                    ce:c7:80:81:56:35:9a:e8:e3:77:3d:39:6c:76:69:
                    5c:3a:ba:04:5f:f3:14:89:5c:1f:ac:ff:3b:1f:0e:
                    1b:58:82:a8:a8:3c:92:36:23:3c:a6:d6:cd:6e:27:
                    3c:0d:b9:4c:28:59:93:22:d3:e1:94:0c:21:be:7e:
                    6a:c8:a1:75:bb:c4:64:18:2a:dc:a4:af:06:fb:a2:
                    3a:34:ce:c1:54:77:00:7e:a7:49:9b:4e:21:2e:f9:
                    cc:41:22:bb:19:97:03:b9:cb:d9:b6:c1:eb:c5:d4:
                    bc:51:31:3f:a2:ff:59:00:38:6c:2a:dc:9f:ab:8f:
                    e4:ef:64:63:c5:54:49:06:2e:5f:53:1b:e4:ee:fb:
                    91:b1
                Exponent: 65537 (0x10001)
        X509v3 extensions:
            Authority Information Access: 
                CA Issuers - URI:http://sub-ca.localhost/sub-ca.crt
                OCSP - URI:http://ocsp.sub-ca.localhost:9081

            X509v3 Authority Key Identifier: 
                keyid:20:4E:F0:B3:1E:BF:BC:1F:35:6A:C5:70:8E:A0:D8:70:D5:D1:57:44

            X509v3 Basic Constraints: critical
                CA:FALSE
            X509v3 CRL Distribution Points: 

                Full Name:
                  URI:http://sub-ca.localhost/sub-ca.crl

            X509v3 Extended Key Usage: 
                TLS Web Client Authentication
            X509v3 Key Usage: critical
                Digital Signature
            X509v3 Subject Key Identifier: 
                FC:E6:4F:E0:75:AB:C1:CD:12:46:45:6D:C0:6E:48:9C:3F:A2:22:76
    Signature Algorithm: sha256WithRSAEncryption
         00:b4:c2:86:02:9d:a7:f0:0e:93:f6:8e:b1:da:8b:24:85:81:
         9c:98:4a:01:9f:9e:3f:19:58:47:c5:ef:f7:85:94:22:e0:87:
         b9:ee:1e:45:63:3b:42:dd:2f:c4:5a:27:fc:49:4c:1b:29:26:
         be:63:ad:bb:d8:06:55:e2:cc:f6:f6:21:3f:54:39:46:c0:5f:
         09:5c:04:0e:fe:30:dd:fc:08:f8:dc:8c:00:51:e0:65:94:f8:
         fa:9b:88:e4:c9:1d:26:ac:6b:ee:cc:ee:82:9f:2a:96:9b:d5:
         7c:cd:15:3f:f4:c3:79:02:54:f6:39:f9:9d:3f:dd:d4:19:1e:
         87:33:fe:da:be:3e:78:86:0b:7c:22:51:0a:cb:d7:35:60:9e:
         9a:07:95:03:22:17:7a:78:5f:15:9a:05:67:5d:09:f0:54:16:
         24:1b:73:d2:a7:a1:bb:7c:e8:5d:f3:2f:07:99:bc:e2:8a:44:
         93:59:5b:4b:d6:63:9d:36:b0:e9:73:25:c8:25:34:5b:ae:1b:
         e4:38:e3:d0:fc:f5:5e:4c:7d:36:11:6f:fd:8b:11:11:7a:8d:
         94:d2:67:13:80:7c:f3:fe:c9:d5:4a:94:4a:2c:88:f5:33:14:
         87:7b:c8:4e:c2:25:42:2a:cc:3c:f2:d6:e3:e6:24:c9:00:9c:
         16:c0:0b:1a
-----BEGIN CERTIFICATE-----
MIIELDCCAxSgAwIBAgIRAJBMZhuWGLmZEerit5uYz+EwDQYJKoZIhvcNAQELBQAw
QjELMAkGA1UEBhMCVVMxIjAgBgNVBAoMGVBvcnRsYW5kIFN0YXRlIFVuaXZlcnNp
dHkxDzANBgNVBAMMBlN1YiBDQTAeFw0yMjA0MDUyMDM3MjFaFw0yMzA0MDUyMDM3
MjFaMEIxCzAJBgNVBAYTAlVTMSIwIAYDVQQKDBlQb3J0bGFuZCBTdGF0ZSBVbml2
ZXJzaXR5MQ8wDQYDVQQDDAZTdWIgQ0EwggEiMA0GCSqGSIb3DQEBAQUAA4IBDwAw
ggEKAoIBAQCeSmzNhamPVZv3Vmf7hn9No/MXliiz/jwmcmP/Hw3SvgzA0/1lPMrZ
H0yuNSSMv3QmqkVNFHiuiIZ2TqpT/0n/L61a+7h7rxtu0FJniJzG3B6XSp9d6JhC
QemrxHGO21Ti+DN5BCGrgeLaTQnaOW9+PAf9WcF+1c7HgIFWNZro43c9OWx2aVw6
ugRf8xSJXB+s/zsfDhtYgqioPJI2Izym1s1uJzwNuUwoWZMi0+GUDCG+fmrIoXW7
xGQYKtykrwb7ojo0zsFUdwB+p0mbTiEu+cxBIrsZlwO5y9m2wevF1LxRMT+i/1kA
OGwq3J+rj+TvZGPFVEkGLl9TG+Tu+5GxAgMBAAGjggEbMIIBFzBtBggrBgEFBQcB
AQRhMF8wLgYIKwYBBQUHMAKGImh0dHA6Ly9zdWItY2EubG9jYWxob3N0L3N1Yi1j
YS5jcnQwLQYIKwYBBQUHMAGGIWh0dHA6Ly9vY3NwLnN1Yi1jYS5sb2NhbGhvc3Q6
OTA4MTAfBgNVHSMEGDAWgBQgTvCzHr+8HzVqxXCOoNhw1dFXRDAMBgNVHRMBAf8E
AjAAMDMGA1UdHwQsMCowKKAmoCSGImh0dHA6Ly9zdWItY2EubG9jYWxob3N0L3N1
Yi1jYS5jcmwwEwYDVR0lBAwwCgYIKwYBBQUHAwIwDgYDVR0PAQH/BAQDAgeAMB0G
A1UdDgQWBBT85k/gdavBzRJGRW3AbkicP6IidjANBgkqhkiG9w0BAQsFAAOCAQEA
ALTChgKdp/AOk/aOsdqLJIWBnJhKAZ+ePxlYR8Xv94WUIuCHue4eRWM7Qt0vxFon
/ElMGykmvmOtu9gGVeLM9vYhP1Q5RsBfCVwEDv4w3fwI+NyMAFHgZZT4+puI5Mkd
Jqxr7szugp8qlpvVfM0VP/TDeQJU9jn5nT/d1BkehzP+2r4+eIYLfCJRCsvXNWCe
mgeVAyIXenhfFZoFZ10J8FQWJBtz0qehu3zoXfMvB5m84opEk1lbS9ZjnTaw6XMl
yCU0W64b5Djj0Pz1Xkx9NhFv/YsREXqNlNJnE4B88/7J1UqUSiyI9TMUh3vITsIl
QirMPPLW4+YkyQCcFsALGg==
-----END CERTIFICATE-----
