Certificate:
    Data:
        Version: 3 (0x2)
        Serial Number:
            90:4c:66:1b:96:18:b9:99:11:ea:e2:b7:9b:98:cf:e7
        Signature Algorithm: sha256WithRSAEncryption
        Issuer: C=US, O=Portland State University, CN=Sub CA
        Validity
            Not Before: Apr  5 20:37:22 2022 GMT
            Not After : Apr  5 20:37:22 2023 GMT
        Subject: C=US, O=Portland State University, CN=Sub CA
        Subject Public Key Info:
            Public Key Algorithm: rsaEncryption
                RSA Public-Key: (2048 bit)
                Modulus:
                    00:be:4e:b6:8b:0b:63:cb:95:c0:32:80:a2:76:2e:
                    1a:4b:ef:6c:2f:b6:a0:7b:f2:87:71:c2:ba:93:0a:
                    da:21:28:f2:73:af:cc:a0:5b:e2:5f:da:3e:23:d3:
                    2c:66:9b:56:99:2a:a2:1c:2d:e3:f5:53:78:82:b2:
                    f1:55:18:e6:27:c0:d5:5d:20:a7:a9:be:a2:6f:4f:
                    ad:db:3e:e5:68:a2:52:04:2e:e7:1c:9e:4e:d6:f7:
                    ac:76:31:f3:6a:6e:1f:55:8e:0e:12:da:86:59:02:
                    13:5e:89:f3:26:08:27:7d:7f:dc:5a:f4:8d:d0:3d:
                    33:91:7b:00:5b:2b:9f:8e:46:4e:14:35:44:c7:94:
                    d3:b0:6d:3e:4d:a4:e5:23:1e:b0:54:5d:a4:91:81:
                    11:11:22:a7:6d:87:3b:b4:21:63:70:88:63:2f:a2:
                    48:6e:79:31:27:de:c4:08:cd:6b:08:7d:bd:54:3c:
                    3d:01:14:0d:5b:cf:b0:6c:f2:6b:27:4b:26:5e:98:
                    d8:56:cb:39:1a:06:38:97:78:73:75:ec:eb:86:ba:
                    0a:2f:54:c9:bc:3b:77:e6:9d:c4:51:bd:a2:2d:5a:
                    e8:cc:2a:a3:4f:c3:7b:a0:cb:58:74:0a:cc:46:04:
                    d3:80:c1:ca:1a:92:55:41:b9:47:55:15:fb:42:91:
                    70:89
                Exponent: 65537 (0x10001)
        X509v3 extensions:
            Authority Information Access: 
                CA Issuers - URI:http://sub-ca.localhost/sub-ca.crt
                OCSP - URI:http://ocsp.sub-ca.localhost:9081

            X509v3 Authority Key Identifier: 
                keyid:20:4E:F0:B3:1E:BF:BC:1F:35:6A:C5:70:8E:A0:D8:70:D5:D1:57:44

            X509v3 Basic Constraints: critical
                CA:FALSE
            X509v3 CRL Distribution Points: 

                Full Name:
                  URI:http://sub-ca.localhost/sub-ca.crl

            X509v3 Extended Key Usage: 
                TLS Web Client Authentication
            X509v3 Key Usage: critical
                Digital Signature
            X509v3 Subject Key Identifier: 
                EC:D9:B8:B4:D0:8A:69:59:78:4E:A9:55:39:92:46:30:2A:F2:9F:07
    Signature Algorithm: sha256WithRSAEncryption
         24:34:a6:66:c4:68:7f:aa:bc:98:c3:65:38:8d:ac:80:b9:3d:
         55:c9:6d:2a:4e:84:9e:69:93:23:a5:62:aa:77:6c:74:5e:d7:
         bb:9b:05:87:21:bd:6d:da:1a:c6:95:a1:84:83:91:6c:d6:ca:
         63:02:c9:bc:19:dc:00:ba:bc:39:af:60:38:70:08:b4:f6:4b:
         bd:5e:38:85:ee:02:cc:84:e8:d0:17:d0:71:10:16:c7:72:4e:
         fd:bd:f1:50:84:40:df:1c:71:21:8a:cb:d9:b3:b3:17:15:c4:
         00:2a:b4:f4:d7:f2:ed:2e:0d:f1:65:b1:29:dc:a9:c4:7a:58:
         a9:8c:fe:36:0f:d3:69:10:fc:13:3d:71:1f:57:9a:2f:3d:7b:
         45:d1:2d:85:92:38:60:bf:7b:00:71:31:34:18:35:c5:6a:4b:
         0a:3d:c9:b9:45:2b:69:23:53:d5:2c:e4:bd:1e:4e:53:e5:8b:
         98:8e:71:f8:af:f2:db:17:53:65:7b:a9:70:e1:a2:ce:88:ac:
         b5:61:52:77:40:32:df:c0:7d:be:bc:e7:3e:92:3f:3c:c2:62:
         8d:df:49:e5:9b:52:42:92:bb:de:8e:d4:7d:b2:e5:6a:49:b3:
         60:2b:31:a2:92:ec:c1:78:03:77:9c:86:8d:a6:fe:56:3b:ac:
         17:ff:c6:a7
-----BEGIN CERTIFICATE-----
MIIELDCCAxSgAwIBAgIRAJBMZhuWGLmZEerit5uYz+cwDQYJKoZIhvcNAQELBQAw
QjELMAkGA1UEBhMCVVMxIjAgBgNVBAoMGVBvcnRsYW5kIFN0YXRlIFVuaXZlcnNp
dHkxDzANBgNVBAMMBlN1YiBDQTAeFw0yMjA0MDUyMDM3MjJaFw0yMzA0MDUyMDM3
MjJaMEIxCzAJBgNVBAYTAlVTMSIwIAYDVQQKDBlQb3J0bGFuZCBTdGF0ZSBVbml2
ZXJzaXR5MQ8wDQYDVQQDDAZTdWIgQ0EwggEiMA0GCSqGSIb3DQEBAQUAA4IBDwAw
ggEKAoIBAQC+TraLC2PLlcAygKJ2LhpL72wvtqB78odxwrqTCtohKPJzr8ygW+Jf
2j4j0yxmm1aZKqIcLeP1U3iCsvFVGOYnwNVdIKepvqJvT63bPuVoolIELuccnk7W
96x2MfNqbh9Vjg4S2oZZAhNeifMmCCd9f9xa9I3QPTORewBbK5+ORk4UNUTHlNOw
bT5NpOUjHrBUXaSRgRERIqdthzu0IWNwiGMvokhueTEn3sQIzWsIfb1UPD0BFA1b
z7Bs8msnSyZemNhWyzkaBjiXeHN17OuGugovVMm8O3fmncRRvaItWujMKqNPw3ug
y1h0CsxGBNOAwcoaklVBuUdVFftCkXCJAgMBAAGjggEbMIIBFzBtBggrBgEFBQcB
AQRhMF8wLgYIKwYBBQUHMAKGImh0dHA6Ly9zdWItY2EubG9jYWxob3N0L3N1Yi1j
YS5jcnQwLQYIKwYBBQUHMAGGIWh0dHA6Ly9vY3NwLnN1Yi1jYS5sb2NhbGhvc3Q6
OTA4MTAfBgNVHSMEGDAWgBQgTvCzHr+8HzVqxXCOoNhw1dFXRDAMBgNVHRMBAf8E
AjAAMDMGA1UdHwQsMCowKKAmoCSGImh0dHA6Ly9zdWItY2EubG9jYWxob3N0L3N1
Yi1jYS5jcmwwEwYDVR0lBAwwCgYIKwYBBQUHAwIwDgYDVR0PAQH/BAQDAgeAMB0G
A1UdDgQWBBTs2bi00IppWXhOqVU5kkYwKvKfBzANBgkqhkiG9w0BAQsFAAOCAQEA
JDSmZsRof6q8mMNlOI2sgLk9VcltKk6EnmmTI6ViqndsdF7Xu5sFhyG9bdoaxpWh
hIORbNbKYwLJvBncALq8Oa9gOHAItPZLvV44he4CzITo0BfQcRAWx3JO/b3xUIRA
3xxxIYrL2bOzFxXEACq09Nfy7S4N8WWxKdypxHpYqYz+Ng/TaRD8Ez1xH1eaLz17
RdEthZI4YL97AHExNBg1xWpLCj3JuUUraSNT1SzkvR5OU+WLmI5x+K/y2xdTZXup
cOGizoistWFSd0Ay38B9vrznPpI/PMJijd9J5ZtSQpK73o7UfbLlakmzYCsxopLs
wXgDd5yGjab+VjusF//Gpw==
-----END CERTIFICATE-----
