Certificate:
    Data:
        Version: 3 (0x2)
        Serial Number:
            90:4c:66:1b:96:18:b9:99:11:ea:e2:b7:9b:98:cf:b6
        Signature Algorithm: sha256WithRSAEncryption
        Issuer: C=US, O=Portland State University, CN=Sub CA
        Validity
            Not Before: Apr 29 02:51:29 2021 GMT
            Not After : Apr 29 02:51:29 2022 GMT
        Subject: C=US, O=Portland State University, CN=Sub CA
        Subject Public Key Info:
            Public Key Algorithm: rsaEncryption
                RSA Public-Key: (2048 bit)
                Modulus:
                    00:bb:ed:97:24:6d:0c:98:b5:58:c8:ce:d9:36:ac:
                    7c:8b:d2:07:a7:fc:f1:bf:ba:0c:c4:23:0b:01:d6:
                    5d:1d:b4:d6:be:f0:01:20:1e:c2:5e:0f:63:cd:be:
                    5b:d4:8e:a9:16:75:2e:e9:88:7a:f2:a3:7e:3e:3c:
                    e2:09:a4:0c:8a:32:78:8e:32:33:c6:f5:fc:ca:a8:
                    3d:f6:52:a2:fb:5f:59:78:42:b4:61:55:9a:bf:dc:
                    08:24:79:75:60:cb:c6:08:70:51:2b:35:53:60:05:
                    20:e3:1f:3f:55:77:e0:ae:6b:3e:ea:1f:1e:0a:c8:
                    95:55:4f:75:e4:41:8c:3d:f9:44:17:53:2b:da:1c:
                    93:58:44:36:93:0e:bd:36:a5:f4:c7:b3:d7:4b:d7:
                    95:67:98:4f:57:9f:ce:d6:43:af:52:78:5d:7e:cf:
                    1f:b9:6d:aa:0a:13:ae:33:50:1e:c7:21:ab:58:8a:
                    45:68:48:12:9b:2d:d9:df:47:94:9e:04:18:27:83:
                    67:63:b7:45:64:d1:35:3e:bc:42:f4:63:73:c1:c5:
                    fe:02:6a:b7:4a:e5:b4:78:c3:de:db:b4:e8:d5:d2:
                    1a:42:95:03:77:cc:5c:a7:d0:a3:c4:19:42:dc:86:
                    dd:4f:ca:d8:05:6b:cb:93:71:db:27:96:2f:45:1c:
                    87:3f
                Exponent: 65537 (0x10001)
        X509v3 extensions:
            Authority Information Access: 
                CA Issuers - URI:http://sub-ca.localhost/sub-ca.crt
                OCSP - URI:http://ocsp.sub-ca.localhost:9081

            X509v3 Authority Key Identifier: 
                keyid:20:4E:F0:B3:1E:BF:BC:1F:35:6A:C5:70:8E:A0:D8:70:D5:D1:57:44

            X509v3 Basic Constraints: critical
                CA:FALSE
            X509v3 CRL Distribution Points: 

                Full Name:
                  URI:http://sub-ca.localhost/sub-ca.crl

            X509v3 Extended Key Usage: 
                TLS Web Client Authentication, TLS Web Server Authentication
            X509v3 Key Usage: critical
                Digital Signature, Key Encipherment
            X509v3 Subject Key Identifier: 
                00:40:5F:24:9C:38:45:92:70:C0:0A:8D:C7:0E:BF:64:96:A1:6D:27
    Signature Algorithm: sha256WithRSAEncryption
         83:5c:4d:f2:28:4e:02:0e:ce:9d:13:16:c9:9a:5f:fd:e6:0f:
         93:a2:b9:be:2d:85:5d:6e:63:7f:2b:86:fc:8a:03:ab:ea:bd:
         d8:ed:fa:d6:09:72:40:34:97:95:84:e9:61:da:59:a5:47:11:
         f4:c5:41:e6:96:a5:42:64:3c:99:19:7d:f1:08:f2:a4:b5:c9:
         b8:e8:de:b9:a3:49:8b:7a:af:b9:1c:20:26:e9:7c:18:2f:83:
         5e:7d:c0:ad:15:87:3c:a3:8b:08:4e:a9:0e:05:36:4d:12:21:
         49:3e:52:5a:e6:cf:ef:9f:a2:ee:54:1e:6e:6a:4f:7f:c7:20:
         55:0b:be:22:a8:21:4e:0e:50:31:3e:a7:64:5d:d9:42:f8:11:
         f8:6d:e3:9f:21:dc:2e:96:ca:f6:20:f2:cc:81:8d:fc:c1:91:
         ab:80:df:cb:d0:4e:70:a4:df:b5:0f:17:35:8f:02:bb:b9:7b:
         8d:dd:40:d4:1c:d7:51:cf:fd:9d:b7:f1:0a:4f:98:09:1c:61:
         ec:56:b4:e7:51:25:79:de:f8:f6:d5:0e:ae:0e:4e:db:b9:3a:
         20:d0:d1:fd:9c:8e:51:c8:f8:1b:db:da:b9:f2:2a:c2:76:2c:
         e9:81:16:2b:7c:49:9c:fb:bf:ec:9f:ba:99:83:98:58:44:8d:
         7c:ab:00:6c
-----BEGIN CERTIFICATE-----
MIIENjCCAx6gAwIBAgIRAJBMZhuWGLmZEerit5uYz7YwDQYJKoZIhvcNAQELBQAw
QjELMAkGA1UEBhMCVVMxIjAgBgNVBAoMGVBvcnRsYW5kIFN0YXRlIFVuaXZlcnNp
dHkxDzANBgNVBAMMBlN1YiBDQTAeFw0yMTA0MjkwMjUxMjlaFw0yMjA0MjkwMjUx
MjlaMEIxCzAJBgNVBAYTAlVTMSIwIAYDVQQKDBlQb3J0bGFuZCBTdGF0ZSBVbml2
ZXJzaXR5MQ8wDQYDVQQDDAZTdWIgQ0EwggEiMA0GCSqGSIb3DQEBAQUAA4IBDwAw
ggEKAoIBAQC77ZckbQyYtVjIztk2rHyL0gen/PG/ugzEIwsB1l0dtNa+8AEgHsJe
D2PNvlvUjqkWdS7piHryo34+POIJpAyKMniOMjPG9fzKqD32UqL7X1l4QrRhVZq/
3AgkeXVgy8YIcFErNVNgBSDjHz9Vd+Cuaz7qHx4KyJVVT3XkQYw9+UQXUyvaHJNY
RDaTDr02pfTHs9dL15VnmE9Xn87WQ69SeF1+zx+5baoKE64zUB7HIatYikVoSBKb
LdnfR5SeBBgng2djt0Vk0TU+vEL0Y3PBxf4CardK5bR4w97btOjV0hpClQN3zFyn
0KPEGULcht1PytgFa8uTcdsnli9FHIc/AgMBAAGjggElMIIBITBtBggrBgEFBQcB
AQRhMF8wLgYIKwYBBQUHMAKGImh0dHA6Ly9zdWItY2EubG9jYWxob3N0L3N1Yi1j
YS5jcnQwLQYIKwYBBQUHMAGGIWh0dHA6Ly9vY3NwLnN1Yi1jYS5sb2NhbGhvc3Q6
OTA4MTAfBgNVHSMEGDAWgBQgTvCzHr+8HzVqxXCOoNhw1dFXRDAMBgNVHRMBAf8E
AjAAMDMGA1UdHwQsMCowKKAmoCSGImh0dHA6Ly9zdWItY2EubG9jYWxob3N0L3N1
Yi1jYS5jcmwwHQYDVR0lBBYwFAYIKwYBBQUHAwIGCCsGAQUFBwMBMA4GA1UdDwEB
/wQEAwIFoDAdBgNVHQ4EFgQUAEBfJJw4RZJwwAqNxw6/ZJahbScwDQYJKoZIhvcN
AQELBQADggEBAINcTfIoTgIOzp0TFsmaX/3mD5Oiub4thV1uY38rhvyKA6vqvdjt
+tYJckA0l5WE6WHaWaVHEfTFQeaWpUJkPJkZffEI8qS1ybjo3rmjSYt6r7kcICbp
fBgvg159wK0VhzyjiwhOqQ4FNk0SIUk+Ulrmz++fou5UHm5qT3/HIFULviKoIU4O
UDE+p2Rd2UL4Efht458h3C6WyvYg8syBjfzBkauA38vQTnCk37UPFzWPAru5e43d
QNQc11HP/Z238QpPmAkcYexWtOdRJXne+PbVDq4OTtu5OiDQ0f2cjlHI+Bvb2rny
KsJ2LOmBFit8SZz7v+yfupmDmFhEjXyrAGw=
-----END CERTIFICATE-----
