Certificate:
    Data:
        Version: 3 (0x2)
        Serial Number:
            90:4c:66:1b:96:18:b9:99:11:ea:e2:b7:9b:98:d0:08
        Signature Algorithm: sha256WithRSAEncryption
        Issuer: C=US, O=Portland State University, CN=Sub CA
        Validity
            Not Before: Apr  5 20:37:26 2022 GMT
            Not After : Apr  5 20:37:26 2023 GMT
        Subject: C=US, O=Portland State University, CN=Sub CA
        Subject Public Key Info:
            Public Key Algorithm: rsaEncryption
                RSA Public-Key: (2048 bit)
                Modulus:
                    00:b9:1d:b7:8f:c8:87:77:40:6e:13:ff:ff:ae:80:
                    ef:e2:82:58:2d:8f:34:b0:ca:8c:b2:30:60:0e:28:
                    9d:3c:b0:26:9f:cf:19:12:72:d4:a4:bf:13:3d:27:
                    05:59:68:a7:38:07:d9:8c:e3:68:d8:dd:14:75:a9:
                    63:44:ef:e0:fd:20:db:3b:0d:f1:ea:c7:6e:44:45:
                    1e:c5:69:9d:32:3c:86:b1:ba:68:f6:66:e8:c9:db:
                    7b:31:99:fc:17:12:38:8d:0f:c8:a9:d5:1b:9d:e7:
                    00:e1:c0:b3:03:fd:9c:40:79:96:cb:ab:7c:30:00:
                    24:e1:64:7f:99:f2:9b:15:16:ce:db:6a:7f:73:e3:
                    2c:1f:63:6f:3e:a6:db:5b:81:cf:30:7e:b9:ae:47:
                    c4:cc:ae:dc:a1:6d:6a:81:15:13:8e:e7:9e:65:82:
                    24:d4:a6:49:98:b4:11:cd:2b:48:d3:86:ee:4b:50:
                    6f:b5:47:f7:68:c1:2d:06:ed:ac:2d:2e:d6:be:e6:
                    24:c2:05:99:1d:78:bc:b4:15:83:ca:40:9f:bd:24:
                    ec:86:0d:30:b1:83:e3:21:ca:24:2c:2a:1c:09:c9:
                    2c:34:f4:ca:95:14:8a:a4:be:e5:f4:bc:c3:ca:74:
                    42:5c:c1:20:aa:e7:82:d5:5d:4a:d5:c1:8f:19:cb:
                    0d:05
                Exponent: 65537 (0x10001)
        X509v3 extensions:
            Authority Information Access: 
                CA Issuers - URI:http://sub-ca.localhost/sub-ca.crt
                OCSP - URI:http://ocsp.sub-ca.localhost:9081

            X509v3 Authority Key Identifier: 
                keyid:20:4E:F0:B3:1E:BF:BC:1F:35:6A:C5:70:8E:A0:D8:70:D5:D1:57:44

            X509v3 Basic Constraints: critical
                CA:FALSE
            X509v3 CRL Distribution Points: 

                Full Name:
                  URI:http://sub-ca.localhost/sub-ca.crl

            X509v3 Extended Key Usage: 
                TLS Web Client Authentication
            X509v3 Key Usage: critical
                Digital Signature
            X509v3 Subject Key Identifier: 
                5D:F3:F3:F1:CE:7B:AD:F0:19:90:40:18:F9:9D:75:19:A1:07:EB:90
    Signature Algorithm: sha256WithRSAEncryption
         7e:63:2b:cc:5c:0a:90:5f:c6:47:e7:eb:24:78:b5:87:8f:3d:
         ad:19:d6:81:44:5d:13:0c:40:74:83:f5:a7:bd:a5:80:0d:62:
         a1:4a:60:2a:31:50:a0:03:00:0b:70:8c:ef:76:51:6c:8e:d3:
         dc:6f:d1:08:c2:a8:78:f0:6f:10:b8:7c:3c:ab:7d:12:bf:b5:
         76:b1:25:ed:9e:9c:f9:84:5d:1a:f4:10:c9:4b:61:42:26:2b:
         f4:c9:3f:8b:f5:0c:53:b4:d9:b7:c7:67:bf:3b:51:4e:88:d1:
         a5:df:79:f5:11:45:2d:99:9f:8c:2e:41:35:aa:ab:e7:d7:4c:
         58:88:bb:7c:be:f9:b5:b2:b2:d3:16:81:9e:2d:b5:49:99:f0:
         14:6c:1e:47:20:be:29:7c:5c:57:b5:22:e4:89:fe:12:ac:bd:
         b7:7f:bf:21:15:bd:b4:6e:61:f6:1a:fe:1b:59:1a:6b:86:d9:
         8c:43:00:18:02:80:36:5b:c9:1d:3a:1f:37:d0:c5:12:03:bf:
         f8:3a:80:b6:25:6c:1f:d8:46:98:a3:53:4d:be:8f:88:40:ac:
         37:fc:a6:a5:75:85:dd:79:38:da:a8:99:b5:f7:c2:b9:9c:1a:
         21:f8:84:62:a4:43:9d:61:80:45:30:6b:83:e9:cc:87:75:4d:
         ca:06:d6:ea
-----BEGIN CERTIFICATE-----
MIIELDCCAxSgAwIBAgIRAJBMZhuWGLmZEerit5uY0AgwDQYJKoZIhvcNAQELBQAw
QjELMAkGA1UEBhMCVVMxIjAgBgNVBAoMGVBvcnRsYW5kIFN0YXRlIFVuaXZlcnNp
dHkxDzANBgNVBAMMBlN1YiBDQTAeFw0yMjA0MDUyMDM3MjZaFw0yMzA0MDUyMDM3
MjZaMEIxCzAJBgNVBAYTAlVTMSIwIAYDVQQKDBlQb3J0bGFuZCBTdGF0ZSBVbml2
ZXJzaXR5MQ8wDQYDVQQDDAZTdWIgQ0EwggEiMA0GCSqGSIb3DQEBAQUAA4IBDwAw
ggEKAoIBAQC5HbePyId3QG4T//+ugO/iglgtjzSwyoyyMGAOKJ08sCafzxkSctSk
vxM9JwVZaKc4B9mM42jY3RR1qWNE7+D9INs7DfHqx25ERR7FaZ0yPIaxumj2ZujJ
23sxmfwXEjiND8ip1Rud5wDhwLMD/ZxAeZbLq3wwACThZH+Z8psVFs7ban9z4ywf
Y28+pttbgc8wfrmuR8TMrtyhbWqBFROO555lgiTUpkmYtBHNK0jThu5LUG+1R/do
wS0G7awtLta+5iTCBZkdeLy0FYPKQJ+9JOyGDTCxg+MhyiQsKhwJySw09MqVFIqk
vuX0vMPKdEJcwSCq54LVXUrVwY8Zyw0FAgMBAAGjggEbMIIBFzBtBggrBgEFBQcB
AQRhMF8wLgYIKwYBBQUHMAKGImh0dHA6Ly9zdWItY2EubG9jYWxob3N0L3N1Yi1j
YS5jcnQwLQYIKwYBBQUHMAGGIWh0dHA6Ly9vY3NwLnN1Yi1jYS5sb2NhbGhvc3Q6
OTA4MTAfBgNVHSMEGDAWgBQgTvCzHr+8HzVqxXCOoNhw1dFXRDAMBgNVHRMBAf8E
AjAAMDMGA1UdHwQsMCowKKAmoCSGImh0dHA6Ly9zdWItY2EubG9jYWxob3N0L3N1
Yi1jYS5jcmwwEwYDVR0lBAwwCgYIKwYBBQUHAwIwDgYDVR0PAQH/BAQDAgeAMB0G
A1UdDgQWBBRd8/Pxznut8BmQQBj5nXUZoQfrkDANBgkqhkiG9w0BAQsFAAOCAQEA
fmMrzFwKkF/GR+frJHi1h489rRnWgURdEwxAdIP1p72lgA1ioUpgKjFQoAMAC3CM
73ZRbI7T3G/RCMKoePBvELh8PKt9Er+1drEl7Z6c+YRdGvQQyUthQiYr9Mk/i/UM
U7TZt8dnvztRTojRpd959RFFLZmfjC5BNaqr59dMWIi7fL75tbKy0xaBni21SZnw
FGweRyC+KXxcV7Ui5In+Eqy9t3+/IRW9tG5h9hr+G1kaa4bZjEMAGAKANlvJHTof
N9DFEgO/+DqAtiVsH9hGmKNTTb6PiECsN/ympXWF3Xk42qiZtffCuZwaIfiEYqRD
nWGARTBrg+nMh3VNygbW6g==
-----END CERTIFICATE-----
