Certificate:
    Data:
        Version: 3 (0x2)
        Serial Number:
            90:4c:66:1b:96:18:b9:99:11:ea:e2:b7:9b:98:d0:12
        Signature Algorithm: sha256WithRSAEncryption
        Issuer: C=US, O=Portland State University, CN=Sub CA
        Validity
            Not Before: Apr  5 20:37:27 2022 GMT
            Not After : Apr  5 20:37:27 2023 GMT
        Subject: C=US, O=Portland State University, CN=Sub CA
        Subject Public Key Info:
            Public Key Algorithm: rsaEncryption
                RSA Public-Key: (2048 bit)
                Modulus:
                    00:c2:8b:ea:00:c6:72:49:b4:f2:02:3b:4e:b2:92:
                    d6:a6:44:58:b9:6c:63:3b:d0:ec:db:55:c5:d0:71:
                    8b:4d:87:da:c8:3b:60:27:3b:5f:02:3a:9b:17:8d:
                    a4:a9:ef:78:2f:d9:9e:56:2d:dc:7a:b5:b4:a5:04:
                    9d:c0:74:08:53:a4:d0:b5:0f:98:5a:b1:a5:b3:76:
                    45:ea:77:01:54:5d:5d:7b:a9:02:64:ad:34:ae:90:
                    71:3c:6c:1d:21:a7:f8:b4:25:b4:c4:4b:71:4b:87:
                    da:c3:de:39:30:bf:73:28:05:4d:e8:a6:bd:c8:25:
                    69:6d:db:e8:2f:f1:e9:9b:c5:31:de:de:18:ff:d1:
                    f4:70:a3:d8:e4:1d:c0:aa:59:10:ce:a6:86:11:40:
                    27:0e:fe:69:f6:1a:aa:90:6e:db:4e:05:b5:53:03:
                    07:7f:6b:15:82:b1:69:fb:8f:f5:f8:43:da:bf:13:
                    5e:1d:61:e8:ab:94:ee:8e:e6:38:4f:d1:4d:fd:74:
                    db:22:ec:95:7a:96:db:28:13:d8:3d:32:cb:30:fa:
                    21:33:15:c9:a5:3e:8f:3c:05:83:61:27:4c:bb:95:
                    13:9f:19:e1:c8:6d:64:89:6d:c5:e1:e8:a1:6d:91:
                    a7:73:75:f7:3d:be:a6:d7:ba:15:05:5d:b5:70:03:
                    2c:d5
                Exponent: 65537 (0x10001)
        X509v3 extensions:
            Authority Information Access: 
                CA Issuers - URI:http://sub-ca.localhost/sub-ca.crt
                OCSP - URI:http://ocsp.sub-ca.localhost:9081

            X509v3 Authority Key Identifier: 
                keyid:20:4E:F0:B3:1E:BF:BC:1F:35:6A:C5:70:8E:A0:D8:70:D5:D1:57:44

            X509v3 Basic Constraints: critical
                CA:FALSE
            X509v3 CRL Distribution Points: 

                Full Name:
                  URI:http://sub-ca.localhost/sub-ca.crl

            X509v3 Extended Key Usage: 
                TLS Web Client Authentication
            X509v3 Key Usage: critical
                Digital Signature
            X509v3 Subject Key Identifier: 
                19:92:90:0A:D4:1D:AA:A5:70:70:EF:E9:89:CC:8A:84:4D:ED:34:2E
    Signature Algorithm: sha256WithRSAEncryption
         04:57:1b:04:47:e2:8b:98:06:fb:df:3e:1e:67:d4:64:5d:ad:
         2a:3c:8e:3c:5d:c8:27:2e:ea:88:e1:86:05:88:9a:13:25:f0:
         ec:d2:8b:08:76:fe:91:27:3d:1a:9a:a0:18:2c:f4:de:67:17:
         be:90:ab:f0:43:a3:c4:96:e7:1b:19:f4:19:ea:08:5d:ed:92:
         8a:4f:c5:bf:27:03:1c:f6:c8:fd:bc:ff:a8:a9:fd:c7:45:72:
         26:ad:07:35:e1:17:05:76:ff:6d:fb:e0:10:8c:c2:55:a5:17:
         19:93:63:79:96:ed:d8:ed:c1:f1:44:c2:fb:b4:10:18:c4:2a:
         2f:e9:99:89:bb:4d:be:cd:45:e3:92:52:6a:aa:c1:d0:fb:28:
         7a:88:65:2c:9d:70:d5:12:6e:c3:46:33:5b:43:4d:ee:29:34:
         5c:a9:f1:d0:ce:12:7c:9f:03:1a:6a:6a:28:dd:6b:65:6a:90:
         5d:22:0d:90:10:e8:70:3d:e9:a2:a5:d0:4d:dc:c6:1d:31:46:
         21:41:99:ed:b9:46:6d:2c:8b:c5:4a:a4:c7:72:98:e1:14:ff:
         39:81:32:25:d9:f1:f0:fb:95:ab:fb:c7:e6:32:b8:81:e7:66:
         c2:57:89:fd:01:ce:eb:04:db:01:02:92:4b:dd:75:1a:ff:4a:
         f8:1e:c5:1f
-----BEGIN CERTIFICATE-----
MIIELDCCAxSgAwIBAgIRAJBMZhuWGLmZEerit5uY0BIwDQYJKoZIhvcNAQELBQAw
QjELMAkGA1UEBhMCVVMxIjAgBgNVBAoMGVBvcnRsYW5kIFN0YXRlIFVuaXZlcnNp
dHkxDzANBgNVBAMMBlN1YiBDQTAeFw0yMjA0MDUyMDM3MjdaFw0yMzA0MDUyMDM3
MjdaMEIxCzAJBgNVBAYTAlVTMSIwIAYDVQQKDBlQb3J0bGFuZCBTdGF0ZSBVbml2
ZXJzaXR5MQ8wDQYDVQQDDAZTdWIgQ0EwggEiMA0GCSqGSIb3DQEBAQUAA4IBDwAw
ggEKAoIBAQDCi+oAxnJJtPICO06yktamRFi5bGM70OzbVcXQcYtNh9rIO2AnO18C
OpsXjaSp73gv2Z5WLdx6tbSlBJ3AdAhTpNC1D5hasaWzdkXqdwFUXV17qQJkrTSu
kHE8bB0hp/i0JbTES3FLh9rD3jkwv3MoBU3opr3IJWlt2+gv8embxTHe3hj/0fRw
o9jkHcCqWRDOpoYRQCcO/mn2GqqQbttOBbVTAwd/axWCsWn7j/X4Q9q/E14dYeir
lO6O5jhP0U39dNsi7JV6ltsoE9g9Mssw+iEzFcmlPo88BYNhJ0y7lROfGeHIbWSJ
bcXh6KFtkadzdfc9vqbXuhUFXbVwAyzVAgMBAAGjggEbMIIBFzBtBggrBgEFBQcB
AQRhMF8wLgYIKwYBBQUHMAKGImh0dHA6Ly9zdWItY2EubG9jYWxob3N0L3N1Yi1j
YS5jcnQwLQYIKwYBBQUHMAGGIWh0dHA6Ly9vY3NwLnN1Yi1jYS5sb2NhbGhvc3Q6
OTA4MTAfBgNVHSMEGDAWgBQgTvCzHr+8HzVqxXCOoNhw1dFXRDAMBgNVHRMBAf8E
AjAAMDMGA1UdHwQsMCowKKAmoCSGImh0dHA6Ly9zdWItY2EubG9jYWxob3N0L3N1
Yi1jYS5jcmwwEwYDVR0lBAwwCgYIKwYBBQUHAwIwDgYDVR0PAQH/BAQDAgeAMB0G
A1UdDgQWBBQZkpAK1B2qpXBw7+mJzIqETe00LjANBgkqhkiG9w0BAQsFAAOCAQEA
BFcbBEfii5gG+98+HmfUZF2tKjyOPF3IJy7qiOGGBYiaEyXw7NKLCHb+kSc9Gpqg
GCz03mcXvpCr8EOjxJbnGxn0GeoIXe2Sik/FvycDHPbI/bz/qKn9x0VyJq0HNeEX
BXb/bfvgEIzCVaUXGZNjeZbt2O3B8UTC+7QQGMQqL+mZibtNvs1F45JSaqrB0Pso
eohlLJ1w1RJuw0YzW0NN7ik0XKnx0M4SfJ8DGmpqKN1rZWqQXSINkBDocD3poqXQ
TdzGHTFGIUGZ7blGbSyLxUqkx3KY4RT/OYEyJdnx8PuVq/vH5jK4gedmwleJ/QHO
6wTbAQKSS911Gv9K+B7FHw==
-----END CERTIFICATE-----
