Certificate:
    Data:
        Version: 3 (0x2)
        Serial Number:
            c8:b0:ee:f0:24:01:d7:8a:1d:14:40:3b:90:ff:47:1b
        Signature Algorithm: sha256WithRSAEncryption
        Issuer: C=US, O=Portland State University, CN=Sub CA
        Validity
            Not Before: Jun 19 16:06:11 2023 GMT
            Not After : Jun 16 16:06:11 2033 GMT
        Subject: C=US, O=Portland State University, CN=Sub CA
        Subject Public Key Info:
            Public Key Algorithm: rsaEncryption
                Public-Key: (2048 bit)
                Modulus:
                    00:be:e4:1f:8c:20:ed:2b:cd:59:67:0c:9c:d8:b6:
                    ef:9a:9f:bc:c3:37:15:f5:97:f1:b4:a7:d3:56:2a:
                    71:a6:9e:7d:ca:bb:73:6b:cf:50:94:26:b4:bf:f8:
                    5c:85:ae:3b:96:54:4e:20:2f:4a:13:3f:7b:73:78:
                    af:cd:67:ff:d2:6b:8f:37:b4:fd:12:48:38:c3:55:
                    05:28:8d:d6:98:4c:de:a2:28:82:05:fc:d0:0d:3b:
                    0d:bc:17:ae:e0:79:f2:74:09:4c:98:fe:6b:19:1b:
                    4f:ea:b8:5e:01:b4:28:5c:26:ed:ec:33:af:5b:78:
                    fe:d3:4b:07:08:77:9b:c5:8f:f1:8a:63:e8:f1:35:
                    29:de:d9:a2:2e:86:0b:ae:ca:36:5d:36:e4:f7:0c:
                    57:b7:a2:49:91:fe:8e:df:ad:f3:16:45:f1:e7:37:
                    48:21:3f:83:db:27:c5:9a:dd:07:cc:ba:f9:b1:ef:
                    e0:99:9d:60:7f:2b:b5:fa:1f:b5:e1:1c:b8:46:3f:
                    d8:c2:32:56:34:d7:f7:f2:e4:7b:8c:80:25:d3:60:
                    26:c9:64:db:ac:47:62:1c:4a:95:b5:51:a8:fb:2f:
                    1d:fc:c6:ff:02:d4:2e:0c:a2:52:cb:dc:0c:80:8c:
                    10:1b:b0:4a:f7:bc:b3:39:0f:94:19:de:64:d5:13:
                    cd:b1
                Exponent: 65537 (0x10001)
        X509v3 extensions:
            Authority Information Access: 
                CA Issuers - URI:http://sub-ca.localhost/sub-ca.crt
                OCSP - URI:http://ocsp.sub-ca.localhost:9081
            X509v3 Authority Key Identifier: 
                4D:A1:8D:85:C1:C1:ED:E8:9A:39:B5:05:2D:3B:72:88:8F:77:D0:82
            X509v3 Basic Constraints: critical
                CA:FALSE
            X509v3 CRL Distribution Points: 
                Full Name:
                  URI:http://sub-ca.localhost/sub-ca.crl
            X509v3 Extended Key Usage: 
                TLS Web Client Authentication
            X509v3 Key Usage: critical
                Digital Signature
            X509v3 Subject Key Identifier: 
                90:E5:D6:00:B2:5B:7B:FA:9B:8B:30:B0:33:C4:E1:0C:3F:EF:40:48
    Signature Algorithm: sha256WithRSAEncryption
    Signature Value:
        94:20:d6:ba:94:fd:0b:39:0d:8a:1e:c8:f3:c8:c8:00:ac:91:
        f4:ae:91:f0:d4:96:30:26:61:eb:c0:9b:27:af:31:d8:40:40:
        1d:32:d4:b7:54:a9:71:da:67:ec:8d:37:ff:a5:45:7f:07:18:
        6f:d7:9e:52:02:9a:86:6f:4f:67:b5:e6:e2:36:1a:70:fa:21:
        b6:70:bd:92:7d:23:47:c7:c4:84:64:f3:f1:20:d3:a7:f8:e7:
        9e:f4:d8:77:2f:e9:55:7a:1a:5b:d7:22:f4:d8:31:15:d0:8b:
        35:67:17:00:2c:82:27:ae:ab:cf:70:f8:76:d2:11:0d:92:93:
        72:6e:f4:78:37:62:ed:7c:98:23:83:da:c9:d0:9f:7d:e0:96:
        ba:82:43:35:46:40:d0:c3:72:85:41:c1:c1:da:ea:c3:a4:64:
        44:f7:a7:07:35:77:24:d6:b7:17:c0:fc:65:ac:61:c0:4c:e4:
        16:62:4d:10:7b:a3:a2:b9:87:be:2c:80:35:70:06:96:a2:0f:
        d2:15:4e:91:a3:3f:8c:48:04:e6:79:82:2b:64:77:7f:88:23:
        ae:82:da:de:d2:30:e7:c3:18:db:29:a6:44:f4:c7:3a:bb:5b:
        7f:a6:9e:8a:d1:9a:a7:7a:72:fb:c6:9b:49:e3:75:f9:71:84:
        dc:20:4d:bb
-----BEGIN CERTIFICATE-----
MIIELDCCAxSgAwIBAgIRAMiw7vAkAdeKHRRAO5D/RxswDQYJKoZIhvcNAQELBQAw
QjELMAkGA1UEBhMCVVMxIjAgBgNVBAoMGVBvcnRsYW5kIFN0YXRlIFVuaXZlcnNp
dHkxDzANBgNVBAMMBlN1YiBDQTAeFw0yMzA2MTkxNjA2MTFaFw0zMzA2MTYxNjA2
MTFaMEIxCzAJBgNVBAYTAlVTMSIwIAYDVQQKDBlQb3J0bGFuZCBTdGF0ZSBVbml2
ZXJzaXR5MQ8wDQYDVQQDDAZTdWIgQ0EwggEiMA0GCSqGSIb3DQEBAQUAA4IBDwAw
ggEKAoIBAQC+5B+MIO0rzVlnDJzYtu+an7zDNxX1l/G0p9NWKnGmnn3Ku3Nrz1CU
JrS/+FyFrjuWVE4gL0oTP3tzeK/NZ//Sa483tP0SSDjDVQUojdaYTN6iKIIF/NAN
Ow28F67gefJ0CUyY/msZG0/quF4BtChcJu3sM69beP7TSwcId5vFj/GKY+jxNSne
2aIuhguuyjZdNuT3DFe3okmR/o7frfMWRfHnN0ghP4PbJ8Wa3QfMuvmx7+CZnWB/
K7X6H7XhHLhGP9jCMlY01/fy5HuMgCXTYCbJZNusR2IcSpW1Uaj7Lx38xv8C1C4M
olLL3AyAjBAbsEr3vLM5D5QZ3mTVE82xAgMBAAGjggEbMIIBFzBtBggrBgEFBQcB
AQRhMF8wLgYIKwYBBQUHMAKGImh0dHA6Ly9zdWItY2EubG9jYWxob3N0L3N1Yi1j
YS5jcnQwLQYIKwYBBQUHMAGGIWh0dHA6Ly9vY3NwLnN1Yi1jYS5sb2NhbGhvc3Q6
OTA4MTAfBgNVHSMEGDAWgBRNoY2FwcHt6Jo5tQUtO3KIj3fQgjAMBgNVHRMBAf8E
AjAAMDMGA1UdHwQsMCowKKAmoCSGImh0dHA6Ly9zdWItY2EubG9jYWxob3N0L3N1
Yi1jYS5jcmwwEwYDVR0lBAwwCgYIKwYBBQUHAwIwDgYDVR0PAQH/BAQDAgeAMB0G
A1UdDgQWBBSQ5dYAslt7+puLMLAzxOEMP+9ASDANBgkqhkiG9w0BAQsFAAOCAQEA
lCDWupT9CzkNih7I88jIAKyR9K6R8NSWMCZh68CbJ68x2EBAHTLUt1Spcdpn7I03
/6VFfwcYb9eeUgKahm9PZ7Xm4jYacPohtnC9kn0jR8fEhGTz8SDTp/jnnvTYdy/p
VXoaW9ci9NgxFdCLNWcXACyCJ66rz3D4dtIRDZKTcm70eDdi7XyYI4PaydCffeCW
uoJDNUZA0MNyhUHBwdrqw6RkRPenBzV3JNa3F8D8ZaxhwEzkFmJNEHujormHviyA
NXAGlqIP0hVOkaM/jEgE5nmCK2R3f4gjroLa3tIw58MY2ymmRPTHOrtbf6aeitGa
p3py+8abSeN1+XGE3CBNuw==
-----END CERTIFICATE-----
