Certificate:
    Data:
        Version: 3 (0x2)
        Serial Number:
            c8:b0:ee:f0:24:01:d7:8a:1d:14:40:3b:90:ff:46:db
        Signature Algorithm: sha256WithRSAEncryption
        Issuer: C=US, O=Portland State University, CN=Sub CA
        Validity
            Not Before: Nov  8 20:34:36 2022 GMT
            Not After : Nov  5 20:34:36 2032 GMT
        Subject: C=US, O=Portland State University, CN=Sub CA
        Subject Public Key Info:
            Public Key Algorithm: rsaEncryption
                Public-Key: (2048 bit)
                Modulus:
                    00:c6:85:f3:a1:7f:55:05:1f:df:ce:4b:a4:02:c1:
                    fa:f7:73:35:97:ba:72:a8:17:89:fc:63:b9:fd:4e:
                    d1:0a:4c:57:55:15:85:6e:d8:56:cb:86:2e:ad:7a:
                    47:d4:a3:3d:dd:bf:8b:b4:b1:12:79:a6:12:29:cb:
                    7b:4b:f8:2c:db:e4:9c:18:0f:5b:05:a2:98:7c:2e:
                    6d:47:80:53:95:89:34:4a:13:08:b8:48:49:79:94:
                    dd:d2:5a:05:55:db:74:84:1d:a5:87:67:5e:ed:6d:
                    99:08:10:c3:1e:59:ce:53:ad:5c:34:ee:30:d2:fa:
                    03:9c:9c:ab:c1:39:f3:03:23:8b:3e:2d:13:69:fd:
                    95:53:05:7a:78:7c:44:7f:55:e3:4b:18:50:32:b7:
                    9f:14:24:bb:55:64:77:92:87:76:2d:e4:ce:1c:7b:
                    55:50:ed:fb:2e:bd:2d:43:f1:cc:97:7e:7e:e5:de:
                    d5:d5:f0:7c:d9:3b:40:86:ef:8d:44:ad:67:d2:ed:
                    7e:13:46:49:d6:b2:77:84:ad:1a:5c:c7:b6:d7:a5:
                    7f:d7:36:af:cd:b8:1a:fb:17:9b:ee:6f:ad:0e:fd:
                    83:90:8d:28:7a:3f:09:0f:55:99:ff:8f:f3:f5:75:
                    a4:c9:91:bb:07:29:49:17:0f:0a:13:70:5e:c1:0c:
                    0e:81
                Exponent: 65537 (0x10001)
        X509v3 extensions:
            Authority Information Access: 
                CA Issuers - URI:http://sub-ca.localhost/sub-ca.crt
                OCSP - URI:http://ocsp.sub-ca.localhost:9081
            X509v3 Authority Key Identifier: 
                4D:A1:8D:85:C1:C1:ED:E8:9A:39:B5:05:2D:3B:72:88:8F:77:D0:82
            X509v3 Basic Constraints: critical
                CA:FALSE
            X509v3 CRL Distribution Points: 
                Full Name:
                  URI:http://sub-ca.localhost/sub-ca.crl
            X509v3 Extended Key Usage: 
                TLS Web Client Authentication, TLS Web Server Authentication
            X509v3 Key Usage: critical
                Digital Signature, Key Encipherment
            X509v3 Subject Key Identifier: 
                B8:A0:45:AA:32:3F:1E:8E:3B:F1:84:4F:64:41:FF:E7:31:23:7B:7E
    Signature Algorithm: sha256WithRSAEncryption
    Signature Value:
        60:90:ff:10:53:8a:a3:1c:70:ec:e3:4c:28:08:2a:f9:87:2c:
        18:52:d4:5c:62:c0:55:03:7e:71:ce:66:fd:6f:bd:75:4c:b8:
        f5:9d:24:1f:84:03:43:94:5f:ee:7d:26:be:9c:8a:ec:a9:ca:
        a7:e0:ee:53:00:e2:bd:58:3b:78:31:71:8d:18:ee:a2:ac:4a:
        bc:19:6a:3e:50:d7:7a:a9:63:f1:47:dc:16:53:36:2d:b9:e6:
        0e:f2:6b:fd:4f:39:96:73:d1:1b:20:ad:84:41:f4:ec:13:34:
        c6:97:8b:04:ba:bc:87:72:4a:62:0a:a1:9f:2f:91:a1:34:76:
        04:82:22:e2:4a:01:13:0d:62:f9:fe:92:a1:11:59:55:3c:46:
        dd:e8:bc:71:be:ab:22:cb:74:bc:cf:1d:a9:c0:89:14:8d:44:
        a7:f7:a4:99:f2:c4:ae:02:1e:ab:78:9f:74:68:59:a0:96:d3:
        9a:86:29:82:3d:fb:59:65:a5:a1:87:3e:22:00:ab:c4:a7:33:
        f9:13:c7:89:34:63:b4:6c:17:c7:26:81:71:12:e6:44:76:5c:
        a5:71:93:ea:99:2b:b8:3e:7b:ee:92:15:2f:a0:e0:4e:2f:6e:
        61:41:f0:ed:6b:5c:e7:39:5f:22:44:37:85:56:6c:f8:3b:cc:
        e2:93:3a:d8
-----BEGIN CERTIFICATE-----
MIIENjCCAx6gAwIBAgIRAMiw7vAkAdeKHRRAO5D/RtswDQYJKoZIhvcNAQELBQAw
QjELMAkGA1UEBhMCVVMxIjAgBgNVBAoMGVBvcnRsYW5kIFN0YXRlIFVuaXZlcnNp
dHkxDzANBgNVBAMMBlN1YiBDQTAeFw0yMjExMDgyMDM0MzZaFw0zMjExMDUyMDM0
MzZaMEIxCzAJBgNVBAYTAlVTMSIwIAYDVQQKDBlQb3J0bGFuZCBTdGF0ZSBVbml2
ZXJzaXR5MQ8wDQYDVQQDDAZTdWIgQ0EwggEiMA0GCSqGSIb3DQEBAQUAA4IBDwAw
ggEKAoIBAQDGhfOhf1UFH9/OS6QCwfr3czWXunKoF4n8Y7n9TtEKTFdVFYVu2FbL
hi6tekfUoz3dv4u0sRJ5phIpy3tL+Czb5JwYD1sFoph8Lm1HgFOViTRKEwi4SEl5
lN3SWgVV23SEHaWHZ17tbZkIEMMeWc5TrVw07jDS+gOcnKvBOfMDI4s+LRNp/ZVT
BXp4fER/VeNLGFAyt58UJLtVZHeSh3Yt5M4ce1VQ7fsuvS1D8cyXfn7l3tXV8HzZ
O0CG741ErWfS7X4TRknWsneErRpcx7bXpX/XNq/NuBr7F5vub60O/YOQjSh6PwkP
VZn/j/P1daTJkbsHKUkXDwoTcF7BDA6BAgMBAAGjggElMIIBITBtBggrBgEFBQcB
AQRhMF8wLgYIKwYBBQUHMAKGImh0dHA6Ly9zdWItY2EubG9jYWxob3N0L3N1Yi1j
YS5jcnQwLQYIKwYBBQUHMAGGIWh0dHA6Ly9vY3NwLnN1Yi1jYS5sb2NhbGhvc3Q6
OTA4MTAfBgNVHSMEGDAWgBRNoY2FwcHt6Jo5tQUtO3KIj3fQgjAMBgNVHRMBAf8E
AjAAMDMGA1UdHwQsMCowKKAmoCSGImh0dHA6Ly9zdWItY2EubG9jYWxob3N0L3N1
Yi1jYS5jcmwwHQYDVR0lBBYwFAYIKwYBBQUHAwIGCCsGAQUFBwMBMA4GA1UdDwEB
/wQEAwIFoDAdBgNVHQ4EFgQUuKBFqjI/Ho478YRPZEH/5zEje34wDQYJKoZIhvcN
AQELBQADggEBAGCQ/xBTiqMccOzjTCgIKvmHLBhS1FxiwFUDfnHOZv1vvXVMuPWd
JB+EA0OUX+59Jr6ciuypyqfg7lMA4r1YO3gxcY0Y7qKsSrwZaj5Q13qpY/FH3BZT
Ni255g7ya/1POZZz0RsgrYRB9OwTNMaXiwS6vIdySmIKoZ8vkaE0dgSCIuJKARMN
Yvn+kqERWVU8Rt3ovHG+qyLLdLzPHanAiRSNRKf3pJnyxK4CHqt4n3RoWaCW05qG
KYI9+1llpaGHPiIAq8SnM/kTx4k0Y7RsF8cmgXES5kR2XKVxk+qZK7g+e+6SFS+g
4E4vbmFB8O1rXOc5XyJEN4VWbPg7zOKTOtg=
-----END CERTIFICATE-----
