Certificate:
    Data:
        Version: 3 (0x2)
        Serial Number:
            c8:b0:ee:f0:24:01:d7:8a:1d:14:40:3b:90:ff:46:de
        Signature Algorithm: sha256WithRSAEncryption
        Issuer: C=US, O=Portland State University, CN=Sub CA
        Validity
            Not Before: Nov  8 20:35:28 2022 GMT
            Not After : Nov  5 20:35:28 2032 GMT
        Subject: C=US, O=Portland State University, CN=Sub CA
        Subject Public Key Info:
            Public Key Algorithm: rsaEncryption
                Public-Key: (2048 bit)
                Modulus:
                    00:d3:ee:44:ff:b7:bc:ed:c3:ed:67:16:98:ab:1c:
                    3d:e3:97:2f:d8:9e:92:f4:8c:6d:94:32:60:d5:b0:
                    de:60:1c:30:03:9d:68:21:ee:f6:07:ce:be:4d:7c:
                    ea:17:fc:4f:7e:c0:d8:c5:e8:56:56:4b:e4:ac:b4:
                    33:4d:3f:b1:28:1f:24:c8:c5:f1:a2:79:09:f7:72:
                    4a:30:da:f9:02:82:53:a8:a2:5b:d9:70:94:39:d1:
                    b2:32:cf:46:2d:ad:43:e6:ab:7a:01:69:ae:3a:9a:
                    d7:c1:c4:91:72:06:95:60:07:a6:f9:a4:94:11:b9:
                    4c:cb:24:75:24:2e:6d:04:e0:ca:c6:fb:bc:fe:2f:
                    a7:ba:26:5b:08:3c:26:04:17:2b:5d:4b:80:19:f2:
                    a6:92:b3:91:03:80:a2:16:9d:29:d5:86:fa:58:bd:
                    65:13:a1:95:22:e0:16:87:65:a8:85:c9:7a:42:2c:
                    1d:45:1a:d3:4a:3f:09:86:52:18:07:eb:e6:b6:46:
                    cd:47:e1:4d:de:a3:fe:c5:dd:73:98:7a:3c:4e:98:
                    d4:ac:32:14:af:79:c0:04:6f:be:d4:8a:f0:60:be:
                    e7:92:70:06:8c:79:06:1a:9f:8e:cc:e2:4b:f1:4a:
                    b4:35:37:c9:27:ae:26:ff:d2:03:05:c3:31:a0:b4:
                    40:0f
                Exponent: 65537 (0x10001)
        X509v3 extensions:
            Authority Information Access: 
                CA Issuers - URI:http://sub-ca.localhost/sub-ca.crt
                OCSP - URI:http://ocsp.sub-ca.localhost:9081
            X509v3 Authority Key Identifier: 
                4D:A1:8D:85:C1:C1:ED:E8:9A:39:B5:05:2D:3B:72:88:8F:77:D0:82
            X509v3 Basic Constraints: critical
                CA:FALSE
            X509v3 CRL Distribution Points: 
                Full Name:
                  URI:http://sub-ca.localhost/sub-ca.crl
            X509v3 Extended Key Usage: 
                TLS Web Client Authentication
            X509v3 Key Usage: critical
                Digital Signature
            X509v3 Subject Key Identifier: 
                EE:09:D3:BD:D7:6D:52:99:A5:08:06:5B:04:23:69:B0:5B:63:3D:14
    Signature Algorithm: sha256WithRSAEncryption
    Signature Value:
        1a:c0:c5:02:e4:39:f5:66:31:ef:55:5b:b4:63:eb:48:0c:35:
        9d:ef:88:70:9e:ca:45:13:78:cd:26:e5:4c:16:ac:bd:6c:56:
        d4:81:4e:7f:4f:02:a8:84:af:aa:1e:0e:73:59:8b:e9:ea:e2:
        28:4a:60:21:d0:95:7b:55:05:0d:fd:db:7e:15:14:41:72:8c:
        e6:df:3d:c6:f4:a6:00:62:67:ed:c2:0e:e7:c5:fd:ce:6d:3d:
        72:9b:31:e8:f4:08:67:2b:bc:60:4a:1c:cc:f5:56:d2:95:46:
        4e:03:36:0b:91:8b:32:7f:53:1c:9d:2c:ae:ad:cf:eb:22:c5:
        38:32:b0:c3:1d:08:c9:11:5f:a2:40:a6:1f:17:16:24:5c:94:
        7b:45:91:f1:d1:73:e0:96:53:55:c5:6e:f8:f8:9e:06:21:79:
        96:31:c5:9b:97:7e:11:ef:32:6d:9a:3b:45:c7:3f:42:bc:f5:
        73:7e:e5:fa:7b:ae:00:90:86:1b:8e:0b:e2:8c:8c:a5:54:2b:
        06:f4:38:c7:87:a3:66:09:ba:9c:7b:b3:5b:bb:1f:e7:3d:99:
        36:03:f9:19:79:d4:f6:f9:3f:ed:46:c0:4a:4f:74:7e:45:65:
        a4:b1:0b:7a:0e:5b:a8:ac:1b:f5:dd:ed:ba:98:c2:7c:83:1c:
        8e:82:77:d8
-----BEGIN CERTIFICATE-----
MIIELDCCAxSgAwIBAgIRAMiw7vAkAdeKHRRAO5D/Rt4wDQYJKoZIhvcNAQELBQAw
QjELMAkGA1UEBhMCVVMxIjAgBgNVBAoMGVBvcnRsYW5kIFN0YXRlIFVuaXZlcnNp
dHkxDzANBgNVBAMMBlN1YiBDQTAeFw0yMjExMDgyMDM1MjhaFw0zMjExMDUyMDM1
MjhaMEIxCzAJBgNVBAYTAlVTMSIwIAYDVQQKDBlQb3J0bGFuZCBTdGF0ZSBVbml2
ZXJzaXR5MQ8wDQYDVQQDDAZTdWIgQ0EwggEiMA0GCSqGSIb3DQEBAQUAA4IBDwAw
ggEKAoIBAQDT7kT/t7ztw+1nFpirHD3jly/YnpL0jG2UMmDVsN5gHDADnWgh7vYH
zr5NfOoX/E9+wNjF6FZWS+SstDNNP7EoHyTIxfGieQn3ckow2vkCglOoolvZcJQ5
0bIyz0YtrUPmq3oBaa46mtfBxJFyBpVgB6b5pJQRuUzLJHUkLm0E4MrG+7z+L6e6
JlsIPCYEFytdS4AZ8qaSs5EDgKIWnSnVhvpYvWUToZUi4BaHZaiFyXpCLB1FGtNK
PwmGUhgH6+a2Rs1H4U3eo/7F3XOYejxOmNSsMhSvecAEb77UivBgvueScAaMeQYa
n47M4kvxSrQ1N8knrib/0gMFwzGgtEAPAgMBAAGjggEbMIIBFzBtBggrBgEFBQcB
AQRhMF8wLgYIKwYBBQUHMAKGImh0dHA6Ly9zdWItY2EubG9jYWxob3N0L3N1Yi1j
YS5jcnQwLQYIKwYBBQUHMAGGIWh0dHA6Ly9vY3NwLnN1Yi1jYS5sb2NhbGhvc3Q6
OTA4MTAfBgNVHSMEGDAWgBRNoY2FwcHt6Jo5tQUtO3KIj3fQgjAMBgNVHRMBAf8E
AjAAMDMGA1UdHwQsMCowKKAmoCSGImh0dHA6Ly9zdWItY2EubG9jYWxob3N0L3N1
Yi1jYS5jcmwwEwYDVR0lBAwwCgYIKwYBBQUHAwIwDgYDVR0PAQH/BAQDAgeAMB0G
A1UdDgQWBBTuCdO9121SmaUIBlsEI2mwW2M9FDANBgkqhkiG9w0BAQsFAAOCAQEA
GsDFAuQ59WYx71VbtGPrSAw1ne+IcJ7KRRN4zSblTBasvWxW1IFOf08CqISvqh4O
c1mL6eriKEpgIdCVe1UFDf3bfhUUQXKM5t89xvSmAGJn7cIO58X9zm09cpsx6PQI
Zyu8YEoczPVW0pVGTgM2C5GLMn9THJ0srq3P6yLFODKwwx0IyRFfokCmHxcWJFyU
e0WR8dFz4JZTVcVu+PieBiF5ljHFm5d+Ee8ybZo7Rcc/Qrz1c37l+nuuAJCGG44L
4oyMpVQrBvQ4x4ejZgm6nHuzW7sf5z2ZNgP5GXnU9vk/7UbASk90fkVlpLELeg5b
qKwb9d3tupjCfIMcjoJ32A==
-----END CERTIFICATE-----
