Certificate:
    Data:
        Version: 3 (0x2)
        Serial Number:
            c8:b0:ee:f0:24:01:d7:8a:1d:14:40:3b:90:ff:46:f9
        Signature Algorithm: sha256WithRSAEncryption
        Issuer: C=US, O=Portland State University, CN=Sub CA
        Validity
            Not Before: Jun 19 16:06:06 2023 GMT
            Not After : Jun 16 16:06:06 2033 GMT
        Subject: C=US, O=Portland State University, CN=Sub CA
        Subject Public Key Info:
            Public Key Algorithm: rsaEncryption
                Public-Key: (2048 bit)
                Modulus:
                    00:b6:78:d1:b6:3c:b7:67:04:77:f7:bc:48:02:23:
                    e4:ed:8c:a6:05:1f:e1:5d:b7:fe:7d:bd:3a:95:34:
                    d0:59:c4:c6:fe:73:d1:6c:72:41:f3:60:e3:46:af:
                    6b:ed:d1:f8:60:09:d3:b7:73:9e:eb:4e:1c:92:78:
                    3d:b6:1d:b7:41:43:59:73:46:e0:9f:40:83:50:65:
                    60:d5:c6:c1:5c:3d:b6:71:33:32:41:5b:be:8d:6c:
                    ac:ec:2b:77:45:1b:b2:fe:4a:4a:12:62:48:d5:67:
                    44:b9:90:ef:59:f9:e2:88:57:6a:64:52:74:a3:2e:
                    c9:7c:6b:d1:99:4c:d2:18:c2:49:db:fc:8e:e5:00:
                    3d:96:20:5d:e6:60:df:6c:bd:42:12:91:ea:9e:0c:
                    62:c0:cc:91:08:3d:44:bf:60:fb:b8:8f:78:8f:a8:
                    30:94:38:cb:e5:f6:33:b5:85:e3:28:01:45:be:17:
                    ad:7a:5c:d5:ee:6a:87:ec:35:9c:7e:cc:e1:16:fd:
                    fe:b2:e3:08:9e:ed:e1:ce:63:4c:57:ba:14:86:17:
                    3c:c6:1f:6c:58:e0:22:dd:da:bb:a3:d6:59:0e:d3:
                    e7:07:a7:50:9a:cb:a5:12:3f:c4:dd:17:9c:f9:58:
                    38:0d:cf:82:7d:db:3e:c7:c6:36:bc:3c:58:33:41:
                    89:b5
                Exponent: 65537 (0x10001)
        X509v3 extensions:
            Authority Information Access: 
                CA Issuers - URI:http://sub-ca.localhost/sub-ca.crt
                OCSP - URI:http://ocsp.sub-ca.localhost:9081
            X509v3 Authority Key Identifier: 
                4D:A1:8D:85:C1:C1:ED:E8:9A:39:B5:05:2D:3B:72:88:8F:77:D0:82
            X509v3 Basic Constraints: critical
                CA:FALSE
            X509v3 CRL Distribution Points: 
                Full Name:
                  URI:http://sub-ca.localhost/sub-ca.crl
            X509v3 Extended Key Usage: 
                TLS Web Client Authentication
            X509v3 Key Usage: critical
                Digital Signature
            X509v3 Subject Key Identifier: 
                83:DD:A6:60:C4:38:EA:58:76:54:95:5F:95:69:97:5B:1D:99:92:33
    Signature Algorithm: sha256WithRSAEncryption
    Signature Value:
        5e:0d:50:b7:c1:7a:76:87:ab:f7:8d:21:ef:3d:06:db:b5:b4:
        f0:ad:10:46:1b:6c:a4:03:3b:64:20:73:67:36:fc:6f:e3:75:
        96:f4:4f:8d:05:1a:6a:7a:43:5c:ea:05:bc:ae:9c:17:6e:b5:
        28:1b:08:47:3c:bd:01:a3:f6:90:08:9c:62:98:53:0b:0a:30:
        76:b3:f8:78:f4:3a:1b:a3:3f:70:24:59:b5:d8:fd:9d:20:64:
        e2:92:46:17:e7:d4:0c:36:53:c0:ec:74:3d:19:10:7f:9e:8c:
        a1:7d:80:62:fc:41:14:48:ad:1c:7e:30:01:fb:d2:7a:fb:9f:
        27:15:c2:4e:7b:ff:00:d1:90:7b:77:41:9d:db:7a:a9:65:d2:
        37:49:91:55:f5:c3:43:58:12:ac:79:8c:66:27:09:63:ca:42:
        0e:29:08:fa:ba:4b:5d:56:7e:4f:b5:ba:47:70:b6:bf:e2:7d:
        ea:88:5e:9f:87:e3:4d:6a:b2:c6:0e:7e:20:a7:f6:bb:94:c8:
        30:ec:0c:69:2a:d1:66:77:cf:1f:69:ab:4f:ba:e5:d7:ff:a8:
        29:68:08:0e:14:9f:8b:77:0d:ba:32:08:92:d9:8b:44:5b:2c:
        31:64:a3:22:cf:6b:c3:2e:9a:fd:d1:9a:3e:89:da:ad:7f:8a:
        c8:28:c9:11
-----BEGIN CERTIFICATE-----
MIIELDCCAxSgAwIBAgIRAMiw7vAkAdeKHRRAO5D/RvkwDQYJKoZIhvcNAQELBQAw
QjELMAkGA1UEBhMCVVMxIjAgBgNVBAoMGVBvcnRsYW5kIFN0YXRlIFVuaXZlcnNp
dHkxDzANBgNVBAMMBlN1YiBDQTAeFw0yMzA2MTkxNjA2MDZaFw0zMzA2MTYxNjA2
MDZaMEIxCzAJBgNVBAYTAlVTMSIwIAYDVQQKDBlQb3J0bGFuZCBTdGF0ZSBVbml2
ZXJzaXR5MQ8wDQYDVQQDDAZTdWIgQ0EwggEiMA0GCSqGSIb3DQEBAQUAA4IBDwAw
ggEKAoIBAQC2eNG2PLdnBHf3vEgCI+TtjKYFH+Fdt/59vTqVNNBZxMb+c9FsckHz
YONGr2vt0fhgCdO3c57rThySeD22HbdBQ1lzRuCfQINQZWDVxsFcPbZxMzJBW76N
bKzsK3dFG7L+SkoSYkjVZ0S5kO9Z+eKIV2pkUnSjLsl8a9GZTNIYwknb/I7lAD2W
IF3mYN9svUISkeqeDGLAzJEIPUS/YPu4j3iPqDCUOMvl9jO1heMoAUW+F616XNXu
aofsNZx+zOEW/f6y4wie7eHOY0xXuhSGFzzGH2xY4CLd2ruj1lkO0+cHp1Cay6US
P8TdF5z5WDgNz4J92z7Hxja8PFgzQYm1AgMBAAGjggEbMIIBFzBtBggrBgEFBQcB
AQRhMF8wLgYIKwYBBQUHMAKGImh0dHA6Ly9zdWItY2EubG9jYWxob3N0L3N1Yi1j
YS5jcnQwLQYIKwYBBQUHMAGGIWh0dHA6Ly9vY3NwLnN1Yi1jYS5sb2NhbGhvc3Q6
OTA4MTAfBgNVHSMEGDAWgBRNoY2FwcHt6Jo5tQUtO3KIj3fQgjAMBgNVHRMBAf8E
AjAAMDMGA1UdHwQsMCowKKAmoCSGImh0dHA6Ly9zdWItY2EubG9jYWxob3N0L3N1
Yi1jYS5jcmwwEwYDVR0lBAwwCgYIKwYBBQUHAwIwDgYDVR0PAQH/BAQDAgeAMB0G
A1UdDgQWBBSD3aZgxDjqWHZUlV+VaZdbHZmSMzANBgkqhkiG9w0BAQsFAAOCAQEA
Xg1Qt8F6doer940h7z0G27W08K0QRhtspAM7ZCBzZzb8b+N1lvRPjQUaanpDXOoF
vK6cF261KBsIRzy9AaP2kAicYphTCwowdrP4ePQ6G6M/cCRZtdj9nSBk4pJGF+fU
DDZTwOx0PRkQf56MoX2AYvxBFEitHH4wAfvSevufJxXCTnv/ANGQe3dBndt6qWXS
N0mRVfXDQ1gSrHmMZicJY8pCDikI+rpLXVZ+T7W6R3C2v+J96ohen4fjTWqyxg5+
IKf2u5TIMOwMaSrRZnfPH2mrT7rl1/+oKWgIDhSfi3cNujIIktmLRFssMWSjIs9r
wy6a/dGaPonarX+KyCjJEQ==
-----END CERTIFICATE-----
