Certificate:
    Data:
        Version: 3 (0x2)
        Serial Number:
            c8:b0:ee:f0:24:01:d7:8a:1d:14:40:3b:90:ff:46:d9
        Signature Algorithm: sha256WithRSAEncryption
        Issuer: C=US, O=Portland State University, CN=Root CA
        Validity
            Not Before: Nov  8 20:33:13 2022 GMT
            Not After : Nov  5 20:33:13 2032 GMT
        Subject: C=US, O=Portland State University, CN=Root CA
        Subject Public Key Info:
            Public Key Algorithm: rsaEncryption
                Public-Key: (2048 bit)
                Modulus:
                    00:f3:35:f7:2a:e5:70:08:01:b1:48:d3:1c:dc:81:
                    f0:6e:86:ad:2f:7d:02:b0:b4:00:b7:10:f9:d5:3e:
                    a1:38:8d:2a:3d:a8:0c:d0:dc:19:e8:93:5b:85:33:
                    80:ef:d0:35:20:e4:d4:82:62:2f:66:97:1f:c3:2b:
                    b3:74:e2:89:0c:e2:c3:42:7b:7c:70:aa:08:19:20:
                    ad:0f:14:c3:21:4e:00:b4:8e:24:62:c6:73:1a:09:
                    47:71:1a:a2:ce:6f:d3:b2:63:34:f7:37:3a:66:f6:
                    c2:d0:a1:c4:e9:38:dd:2e:3f:44:cb:0f:55:80:3c:
                    31:72:0b:58:57:6e:7a:e5:70:65:f4:fc:8d:bc:63:
                    78:8c:d9:9d:ae:d9:25:6f:d2:60:f4:d5:e3:de:10:
                    4c:91:6f:7d:52:01:0e:60:0e:6d:54:5c:67:82:5b:
                    8a:d4:2c:d1:2e:8e:b4:ae:ab:91:cd:02:3c:6a:c5:
                    6d:16:5b:b1:1f:a0:e6:ca:ec:a3:bf:67:51:f2:62:
                    73:42:75:60:10:53:a4:de:d4:21:10:c4:52:af:91:
                    91:67:81:11:95:a3:47:a4:fe:2b:15:8b:10:b5:71:
                    20:14:a7:ed:ea:9a:ef:4d:85:63:8f:78:cb:89:5a:
                    46:c9:33:1b:a9:07:b8:a8:be:77:73:b4:88:dd:d1:
                    da:53
                Exponent: 65537 (0x10001)
        X509v3 extensions:
            X509v3 Basic Constraints: critical
                CA:TRUE
            X509v3 Key Usage: critical
                Certificate Sign, CRL Sign
            X509v3 Subject Key Identifier: 
                EE:94:FD:8F:04:E2:D9:10:D7:BC:82:1A:3B:BC:E7:B0:98:38:D0:4E
    Signature Algorithm: sha256WithRSAEncryption
    Signature Value:
        08:fd:6f:1c:cd:f6:f6:ff:71:d1:ba:f2:cd:23:6f:a0:94:61:
        c3:d1:8b:b7:58:d7:91:6b:23:4c:38:e9:be:37:0d:5c:a4:ef:
        56:74:7b:48:4d:3e:19:0c:be:ed:58:66:e5:59:47:ed:17:cc:
        79:43:8b:69:ae:ba:99:36:c1:e7:7e:a8:3e:64:dc:38:85:68:
        4b:03:71:15:97:4b:c7:79:1a:94:03:90:9a:7f:c2:c4:8c:4e:
        d2:26:72:b3:ca:ea:15:6e:fb:5f:e3:1e:4e:af:da:71:db:46:
        6f:11:54:42:71:3d:72:a8:98:9c:58:50:eb:c4:f4:c3:24:9b:
        ff:e9:5a:6b:ca:4e:65:72:c8:f5:3b:c8:b8:4a:52:64:53:3a:
        89:bb:39:2b:9d:76:57:86:b0:de:ce:7f:ca:ec:54:6b:e4:7f:
        3e:85:3b:86:2c:16:8c:e7:57:de:f8:97:d6:b8:8d:13:1b:68:
        a2:11:d8:50:ee:95:38:c9:2a:a4:b0:73:88:26:2f:29:97:c3:
        74:81:c4:47:13:35:b0:11:02:73:4e:34:32:b5:34:80:cc:17:
        3e:ba:bc:a8:c3:89:13:59:07:c9:ea:59:04:35:8d:9d:ae:8d:
        a6:49:8e:7e:90:66:98:30:a6:67:80:54:49:75:c9:f6:d9:90:
        49:c8:7f:ef
-----BEGIN CERTIFICATE-----
MIIDUzCCAjugAwIBAgIRAMiw7vAkAdeKHRRAO5D/RtkwDQYJKoZIhvcNAQELBQAw
QzELMAkGA1UEBhMCVVMxIjAgBgNVBAoMGVBvcnRsYW5kIFN0YXRlIFVuaXZlcnNp
dHkxEDAOBgNVBAMMB1Jvb3QgQ0EwHhcNMjIxMTA4MjAzMzEzWhcNMzIxMTA1MjAz
MzEzWjBDMQswCQYDVQQGEwJVUzEiMCAGA1UECgwZUG9ydGxhbmQgU3RhdGUgVW5p
dmVyc2l0eTEQMA4GA1UEAwwHUm9vdCBDQTCCASIwDQYJKoZIhvcNAQEBBQADggEP
ADCCAQoCggEBAPM19yrlcAgBsUjTHNyB8G6GrS99ArC0ALcQ+dU+oTiNKj2oDNDc
GeiTW4UzgO/QNSDk1IJiL2aXH8Mrs3TiiQziw0J7fHCqCBkgrQ8UwyFOALSOJGLG
cxoJR3Eaos5v07JjNPc3Omb2wtChxOk43S4/RMsPVYA8MXILWFdueuVwZfT8jbxj
eIzZna7ZJW/SYPTV494QTJFvfVIBDmAObVRcZ4JbitQs0S6OtK6rkc0CPGrFbRZb
sR+g5srso79nUfJic0J1YBBTpN7UIRDEUq+RkWeBEZWjR6T+KxWLELVxIBSn7eqa
702FY494y4laRskzG6kHuKi+d3O0iN3R2lMCAwEAAaNCMEAwDwYDVR0TAQH/BAUw
AwEB/zAOBgNVHQ8BAf8EBAMCAQYwHQYDVR0OBBYEFO6U/Y8E4tkQ17yCGju857CY
ONBOMA0GCSqGSIb3DQEBCwUAA4IBAQAI/W8czfb2/3HRuvLNI2+glGHD0Yu3WNeR
ayNMOOm+Nw1cpO9WdHtITT4ZDL7tWGblWUftF8x5Q4tprrqZNsHnfqg+ZNw4hWhL
A3EVl0vHeRqUA5Caf8LEjE7SJnKzyuoVbvtf4x5Or9px20ZvEVRCcT1yqJicWFDr
xPTDJJv/6Vpryk5lcsj1O8i4SlJkUzqJuzkrnXZXhrDezn/K7FRr5H8+hTuGLBaM
51fe+JfWuI0TG2iiEdhQ7pU4ySqksHOIJi8pl8N0gcRHEzWwEQJzTjQytTSAzBc+
uryow4kTWQfJ6lkENY2dro2mSY5+kGaYMKZngFRJdcn22ZBJyH/v
-----END CERTIFICATE-----
