Certificate:
    Data:
        Version: 3 (0x2)
        Serial Number:
            c8:b0:ee:f0:24:01:d7:8a:1d:14:40:3b:90:ff:47:37
        Signature Algorithm: sha256WithRSAEncryption
        Issuer: C=US, O=Portland State University, CN=Sub CA
        Validity
            Not Before: Jun 19 16:06:16 2023 GMT
            Not After : Jun 16 16:06:16 2033 GMT
        Subject: C=US, O=Portland State University, CN=Sub CA
        Subject Public Key Info:
            Public Key Algorithm: rsaEncryption
                Public-Key: (2048 bit)
                Modulus:
                    00:e1:5f:de:05:7f:6b:7f:ee:24:74:5b:ef:5c:77:
                    38:1a:19:05:70:a0:3c:20:bc:3d:22:45:76:40:59:
                    17:7a:36:c1:d8:16:00:4c:a8:bb:4c:e5:13:a3:3d:
                    af:0f:24:29:da:d8:f9:7e:d7:1d:c4:74:4b:69:a6:
                    3d:86:d2:43:ff:e7:a8:7b:48:02:33:e9:2b:1b:1d:
                    66:23:25:fd:94:1d:25:f5:0a:15:06:3e:94:40:5d:
                    ee:a8:d8:07:f3:2b:b3:5b:53:2b:96:63:7c:70:8f:
                    65:cd:81:0f:9c:b7:30:38:38:74:05:22:43:42:3a:
                    03:ca:f1:ad:81:d4:ad:1e:1c:ac:ce:7d:f8:c0:56:
                    4d:ff:e5:3d:0f:f9:d0:85:ea:20:a4:b1:79:b2:1c:
                    4a:7f:4c:0f:f3:b9:28:79:f0:f3:76:80:c8:8b:2c:
                    9c:8f:36:96:79:21:9c:f0:39:0f:df:39:ef:87:4c:
                    8c:b7:aa:ce:68:54:d4:be:cd:ee:d2:4d:5b:40:07:
                    5b:c6:91:4f:ee:c6:e3:85:11:52:2f:5f:cf:aa:fd:
                    98:d2:50:de:1c:e2:8d:95:3e:f0:49:8d:c0:11:82:
                    7d:a9:8a:0a:bf:0a:19:7d:ff:80:d1:1c:dc:57:ae:
                    aa:a1:89:8b:d9:b3:bf:5f:3b:f0:e0:db:6c:91:2e:
                    fb:99
                Exponent: 65537 (0x10001)
        X509v3 extensions:
            Authority Information Access: 
                CA Issuers - URI:http://sub-ca.localhost/sub-ca.crt
                OCSP - URI:http://ocsp.sub-ca.localhost:9081
            X509v3 Authority Key Identifier: 
                4D:A1:8D:85:C1:C1:ED:E8:9A:39:B5:05:2D:3B:72:88:8F:77:D0:82
            X509v3 Basic Constraints: critical
                CA:FALSE
            X509v3 CRL Distribution Points: 
                Full Name:
                  URI:http://sub-ca.localhost/sub-ca.crl
            X509v3 Extended Key Usage: 
                TLS Web Client Authentication
            X509v3 Key Usage: critical
                Digital Signature
            X509v3 Subject Key Identifier: 
                EE:64:D8:DE:6B:42:54:6F:C9:6A:72:BE:80:AA:9F:58:3C:4D:AA:2D
    Signature Algorithm: sha256WithRSAEncryption
    Signature Value:
        67:8b:27:2a:03:f4:0b:0c:5c:57:c6:3c:3b:64:5f:7c:a7:e9:
        2d:1b:6d:2f:62:f8:91:81:a3:a3:30:22:d6:7a:a2:96:65:0f:
        bc:a7:1c:78:3f:18:3f:7b:9c:e7:55:7c:a8:40:4e:35:75:cb:
        f7:7c:08:d5:50:84:71:e6:18:cf:90:f4:07:22:07:cb:2e:82:
        2a:b1:1f:2f:7e:91:6c:48:09:fd:1c:52:25:55:24:20:d1:93:
        de:9e:e0:31:33:85:6b:de:80:48:37:fc:74:b3:2b:df:05:37:
        7a:0f:e6:4b:b2:44:f4:83:34:fa:d0:14:06:73:33:22:5e:66:
        9e:d8:5a:0f:fc:41:08:3c:f3:99:fe:18:a2:e8:df:a9:4a:63:
        36:b8:fc:1b:a8:3e:a3:04:bb:af:b2:4d:25:79:b7:f8:c6:dc:
        c4:49:1a:d5:eb:0c:3f:4c:ae:af:14:88:6b:ca:af:50:4f:14:
        d9:54:1a:91:e2:b9:bd:5d:2a:62:31:7d:f4:12:b6:39:84:5d:
        a7:6d:41:93:7d:9e:e7:10:53:01:17:20:5f:1a:40:a7:f6:e1:
        99:77:bf:d6:40:7a:a2:04:e3:fd:f1:7b:fd:24:63:8f:fb:b4:
        c4:37:ae:39:ba:6f:24:7e:a1:66:52:5b:2b:73:55:9f:7b:64:
        a5:bb:54:f3
-----BEGIN CERTIFICATE-----
MIIELDCCAxSgAwIBAgIRAMiw7vAkAdeKHRRAO5D/RzcwDQYJKoZIhvcNAQELBQAw
QjELMAkGA1UEBhMCVVMxIjAgBgNVBAoMGVBvcnRsYW5kIFN0YXRlIFVuaXZlcnNp
dHkxDzANBgNVBAMMBlN1YiBDQTAeFw0yMzA2MTkxNjA2MTZaFw0zMzA2MTYxNjA2
MTZaMEIxCzAJBgNVBAYTAlVTMSIwIAYDVQQKDBlQb3J0bGFuZCBTdGF0ZSBVbml2
ZXJzaXR5MQ8wDQYDVQQDDAZTdWIgQ0EwggEiMA0GCSqGSIb3DQEBAQUAA4IBDwAw
ggEKAoIBAQDhX94Ff2t/7iR0W+9cdzgaGQVwoDwgvD0iRXZAWRd6NsHYFgBMqLtM
5ROjPa8PJCna2Pl+1x3EdEtppj2G0kP/56h7SAIz6SsbHWYjJf2UHSX1ChUGPpRA
Xe6o2AfzK7NbUyuWY3xwj2XNgQ+ctzA4OHQFIkNCOgPK8a2B1K0eHKzOffjAVk3/
5T0P+dCF6iCksXmyHEp/TA/zuSh58PN2gMiLLJyPNpZ5IZzwOQ/fOe+HTIy3qs5o
VNS+ze7STVtAB1vGkU/uxuOFEVIvX8+q/ZjSUN4c4o2VPvBJjcARgn2pigq/Chl9
/4DRHNxXrqqhiYvZs79fO/Dg22yRLvuZAgMBAAGjggEbMIIBFzBtBggrBgEFBQcB
AQRhMF8wLgYIKwYBBQUHMAKGImh0dHA6Ly9zdWItY2EubG9jYWxob3N0L3N1Yi1j
YS5jcnQwLQYIKwYBBQUHMAGGIWh0dHA6Ly9vY3NwLnN1Yi1jYS5sb2NhbGhvc3Q6
OTA4MTAfBgNVHSMEGDAWgBRNoY2FwcHt6Jo5tQUtO3KIj3fQgjAMBgNVHRMBAf8E
AjAAMDMGA1UdHwQsMCowKKAmoCSGImh0dHA6Ly9zdWItY2EubG9jYWxob3N0L3N1
Yi1jYS5jcmwwEwYDVR0lBAwwCgYIKwYBBQUHAwIwDgYDVR0PAQH/BAQDAgeAMB0G
A1UdDgQWBBTuZNjea0JUb8lqcr6Aqp9YPE2qLTANBgkqhkiG9w0BAQsFAAOCAQEA
Z4snKgP0CwxcV8Y8O2RffKfpLRttL2L4kYGjozAi1nqilmUPvKcceD8YP3uc51V8
qEBONXXL93wI1VCEceYYz5D0ByIHyy6CKrEfL36RbEgJ/RxSJVUkINGT3p7gMTOF
a96ASDf8dLMr3wU3eg/mS7JE9IM0+tAUBnMzIl5mnthaD/xBCDzzmf4YoujfqUpj
Nrj8G6g+owS7r7JNJXm3+MbcxEka1esMP0yurxSIa8qvUE8U2VQakeK5vV0qYjF9
9BK2OYRdp21Bk32e5xBTARcgXxpAp/bhmXe/1kB6ogTj/fF7/SRjj/u0xDeuObpv
JH6hZlJbK3NVn3tkpbtU8w==
-----END CERTIFICATE-----
