Certificate:
    Data:
        Version: 3 (0x2)
        Serial Number:
            c8:b0:ee:f0:24:01:d7:8a:1d:14:40:3b:90:ff:47:23
        Signature Algorithm: sha256WithRSAEncryption
        Issuer: C=US, O=Portland State University, CN=Sub CA
        Validity
            Not Before: Jun 19 16:06:12 2023 GMT
            Not After : Jun 16 16:06:12 2033 GMT
        Subject: C=US, O=Portland State University, CN=Sub CA
        Subject Public Key Info:
            Public Key Algorithm: rsaEncryption
                Public-Key: (2048 bit)
                Modulus:
                    00:b5:27:96:73:c3:c7:6d:18:3b:e4:b8:53:d9:5f:
                    dc:ef:71:90:19:0b:a8:72:9b:90:8d:35:c5:5e:c3:
                    c6:7a:43:f0:ae:cf:8f:ed:cc:c0:5e:66:22:5a:18:
                    be:da:e2:f4:d0:29:9c:49:c6:69:e6:e4:3f:7c:1d:
                    6d:8f:89:fd:d4:6c:4c:15:30:17:fa:87:12:8a:61:
                    d4:c5:51:16:4f:43:cf:eb:9b:4a:28:65:95:e8:ed:
                    5a:b5:6f:06:71:c9:c7:0b:26:e6:4e:8a:b5:fa:0b:
                    f6:23:6d:5f:1e:de:4c:6e:83:19:c8:37:bb:ca:15:
                    3b:63:f9:79:1a:c7:dd:de:91:b2:c5:9a:f8:fe:79:
                    06:64:6a:28:f7:fa:89:de:1d:3e:9e:1c:1e:a8:25:
                    05:83:a6:8b:7a:42:6d:f9:ed:e4:44:fa:aa:47:ee:
                    1e:ff:1e:70:41:18:8e:f8:3a:a4:68:3b:75:2f:e5:
                    ed:d7:0c:e4:6a:04:04:f1:7a:17:b9:19:3a:57:37:
                    3f:c0:db:39:fc:c5:d4:80:a4:d6:97:d5:ff:51:f2:
                    98:aa:c4:2c:f7:f5:36:ed:e4:4f:15:c9:4e:b6:35:
                    5a:9e:d7:19:30:a0:9a:0d:fc:90:03:57:ab:c0:53:
                    a1:8d:91:c1:e6:0e:8c:67:c7:ce:f0:d9:fb:c1:0d:
                    60:8b
                Exponent: 65537 (0x10001)
        X509v3 extensions:
            Authority Information Access: 
                CA Issuers - URI:http://sub-ca.localhost/sub-ca.crt
                OCSP - URI:http://ocsp.sub-ca.localhost:9081
            X509v3 Authority Key Identifier: 
                4D:A1:8D:85:C1:C1:ED:E8:9A:39:B5:05:2D:3B:72:88:8F:77:D0:82
            X509v3 Basic Constraints: critical
                CA:FALSE
            X509v3 CRL Distribution Points: 
                Full Name:
                  URI:http://sub-ca.localhost/sub-ca.crl
            X509v3 Extended Key Usage: 
                TLS Web Client Authentication
            X509v3 Key Usage: critical
                Digital Signature
            X509v3 Subject Key Identifier: 
                3C:9A:54:42:16:B5:2A:FF:1A:1D:4B:59:E4:42:45:78:12:B4:27:C9
    Signature Algorithm: sha256WithRSAEncryption
    Signature Value:
        a3:f3:d4:ab:7c:93:7c:ad:d5:ab:8a:d7:5d:16:37:6f:aa:46:
        79:8e:be:c2:79:ce:e3:f8:ff:f5:1f:19:86:da:6a:26:bb:3f:
        48:8f:4e:5b:62:df:26:e8:3f:af:63:72:67:d1:95:13:f6:c3:
        e0:91:f3:4a:5a:8b:eb:43:22:53:50:8d:85:b6:a4:bb:02:88:
        2d:82:4d:21:e3:cf:00:2e:d9:0c:85:8d:7a:c2:eb:9a:55:a8:
        f5:7a:bf:7d:5b:ac:9b:c1:d1:14:2d:17:b7:61:6a:21:77:7f:
        66:3e:13:3e:c2:97:be:83:7a:e7:93:dc:30:92:38:6b:b3:07:
        f3:9b:60:c5:1b:bf:d1:65:30:b4:60:95:74:be:b4:3e:9a:fe:
        3e:29:31:e4:6b:7f:50:4b:6c:be:b7:e9:ab:6e:ed:be:f7:3c:
        4f:c2:7b:01:26:b0:dc:7b:69:4f:98:d0:42:bc:a8:52:a0:fc:
        a0:3d:51:63:fe:3e:4c:98:62:0d:81:0a:3e:b1:7a:60:83:ec:
        37:c6:7f:2f:ed:d3:c9:88:d5:37:c8:85:8b:fd:a3:9c:ee:c5:
        ce:de:68:43:0e:a3:f3:75:c4:33:85:bc:78:0c:9a:81:72:33:
        20:fb:4d:aa:e6:34:5a:38:da:d6:16:9f:6d:52:ea:ef:c2:b8:
        c8:e4:85:51
-----BEGIN CERTIFICATE-----
MIIELDCCAxSgAwIBAgIRAMiw7vAkAdeKHRRAO5D/RyMwDQYJKoZIhvcNAQELBQAw
QjELMAkGA1UEBhMCVVMxIjAgBgNVBAoMGVBvcnRsYW5kIFN0YXRlIFVuaXZlcnNp
dHkxDzANBgNVBAMMBlN1YiBDQTAeFw0yMzA2MTkxNjA2MTJaFw0zMzA2MTYxNjA2
MTJaMEIxCzAJBgNVBAYTAlVTMSIwIAYDVQQKDBlQb3J0bGFuZCBTdGF0ZSBVbml2
ZXJzaXR5MQ8wDQYDVQQDDAZTdWIgQ0EwggEiMA0GCSqGSIb3DQEBAQUAA4IBDwAw
ggEKAoIBAQC1J5Zzw8dtGDvkuFPZX9zvcZAZC6hym5CNNcVew8Z6Q/Cuz4/tzMBe
ZiJaGL7a4vTQKZxJxmnm5D98HW2Pif3UbEwVMBf6hxKKYdTFURZPQ8/rm0ooZZXo
7Vq1bwZxyccLJuZOirX6C/YjbV8e3kxugxnIN7vKFTtj+Xkax93ekbLFmvj+eQZk
aij3+oneHT6eHB6oJQWDpot6Qm357eRE+qpH7h7/HnBBGI74OqRoO3Uv5e3XDORq
BATxehe5GTpXNz/A2zn8xdSApNaX1f9R8piqxCz39Tbt5E8VyU62NVqe1xkwoJoN
/JADV6vAU6GNkcHmDoxnx87w2fvBDWCLAgMBAAGjggEbMIIBFzBtBggrBgEFBQcB
AQRhMF8wLgYIKwYBBQUHMAKGImh0dHA6Ly9zdWItY2EubG9jYWxob3N0L3N1Yi1j
YS5jcnQwLQYIKwYBBQUHMAGGIWh0dHA6Ly9vY3NwLnN1Yi1jYS5sb2NhbGhvc3Q6
OTA4MTAfBgNVHSMEGDAWgBRNoY2FwcHt6Jo5tQUtO3KIj3fQgjAMBgNVHRMBAf8E
AjAAMDMGA1UdHwQsMCowKKAmoCSGImh0dHA6Ly9zdWItY2EubG9jYWxob3N0L3N1
Yi1jYS5jcmwwEwYDVR0lBAwwCgYIKwYBBQUHAwIwDgYDVR0PAQH/BAQDAgeAMB0G
A1UdDgQWBBQ8mlRCFrUq/xodS1nkQkV4ErQnyTANBgkqhkiG9w0BAQsFAAOCAQEA
o/PUq3yTfK3Vq4rXXRY3b6pGeY6+wnnO4/j/9R8ZhtpqJrs/SI9OW2LfJug/r2Ny
Z9GVE/bD4JHzSlqL60MiU1CNhbakuwKILYJNIePPAC7ZDIWNesLrmlWo9Xq/fVus
m8HRFC0Xt2FqIXd/Zj4TPsKXvoN655PcMJI4a7MH85tgxRu/0WUwtGCVdL60Ppr+
Pikx5Gt/UEtsvrfpq27tvvc8T8J7ASaw3HtpT5jQQryoUqD8oD1RY/4+TJhiDYEK
PrF6YIPsN8Z/L+3TyYjVN8iFi/2jnO7Fzt5oQw6j83XEM4W8eAyagXIzIPtNquY0
Wjja1hafbVLq78K4yOSFUQ==
-----END CERTIFICATE-----
