Certificate:
    Data:
        Version: 3 (0x2)
        Serial Number:
            c8:b0:ee:f0:24:01:d7:8a:1d:14:40:3b:90:ff:46:e8
        Signature Algorithm: sha256WithRSAEncryption
        Issuer: C=US, O=Portland State University, CN=Sub CA
        Validity
            Not Before: Jun 19 16:06:04 2023 GMT
            Not After : Jun 16 16:06:04 2033 GMT
        Subject: C=US, O=Portland State University, CN=Sub CA
        Subject Public Key Info:
            Public Key Algorithm: rsaEncryption
                Public-Key: (2048 bit)
                Modulus:
                    00:d1:5e:ad:61:12:bb:1d:1c:b7:40:59:ab:81:ec:
                    fe:f8:40:a3:e5:9f:85:2a:f9:2f:7d:73:2b:b2:91:
                    c3:7f:5a:51:58:66:c0:6e:82:b6:0b:8c:8a:10:fd:
                    ef:99:e4:08:b6:4d:b4:de:7f:aa:f4:c5:cf:c5:5b:
                    9d:e2:93:d2:fd:a6:07:df:4d:2d:46:ff:fe:f1:b1:
                    42:a3:13:ac:06:f5:17:b6:db:8d:f1:71:09:33:76:
                    2f:09:ba:bc:3e:41:ce:d5:c6:7a:ef:79:36:a8:ef:
                    b0:6c:6e:21:21:17:a6:0f:fc:d8:1f:8b:4b:85:e1:
                    56:9a:50:5c:dd:83:83:f2:13:3d:83:c8:fb:b7:95:
                    c4:b6:cc:1a:36:65:61:ba:24:8b:38:44:ca:9d:07:
                    a4:f5:b0:94:a6:f2:61:ae:55:d2:36:0a:e5:24:fd:
                    a6:04:43:54:d5:f7:d0:6a:59:27:83:3a:54:e2:2f:
                    e4:03:07:93:f8:bf:39:db:05:4e:8b:3c:a3:d7:99:
                    c7:5a:fc:33:20:0d:65:0a:77:06:94:7f:31:4c:ff:
                    e7:e3:c4:a7:16:5c:79:10:fc:2b:a1:4e:56:07:c8:
                    3b:19:9f:25:25:e7:8c:3c:be:82:1d:8d:ed:72:bb:
                    e8:c1:7f:7e:59:03:15:6c:ce:87:64:f3:56:47:f6:
                    4e:d3
                Exponent: 65537 (0x10001)
        X509v3 extensions:
            Authority Information Access: 
                CA Issuers - URI:http://sub-ca.localhost/sub-ca.crt
                OCSP - URI:http://ocsp.sub-ca.localhost:9081
            X509v3 Authority Key Identifier: 
                4D:A1:8D:85:C1:C1:ED:E8:9A:39:B5:05:2D:3B:72:88:8F:77:D0:82
            X509v3 Basic Constraints: critical
                CA:FALSE
            X509v3 CRL Distribution Points: 
                Full Name:
                  URI:http://sub-ca.localhost/sub-ca.crl
            X509v3 Extended Key Usage: 
                TLS Web Client Authentication
            X509v3 Key Usage: critical
                Digital Signature
            X509v3 Subject Key Identifier: 
                40:DF:7C:84:7E:01:B7:83:DA:4F:7F:58:22:8D:D4:55:9D:B7:3A:8D
    Signature Algorithm: sha256WithRSAEncryption
    Signature Value:
        6f:94:be:84:6c:0e:ba:f7:9f:81:df:b4:4d:33:98:af:8d:f8:
        27:1b:15:f0:85:c4:4d:ac:08:e1:8a:00:c7:df:ae:09:da:e1:
        67:82:99:3b:52:dc:2c:9f:c3:9b:30:55:d4:02:8a:81:db:31:
        fd:7b:43:56:14:8f:58:f6:b6:4a:48:bd:32:de:35:57:20:a6:
        21:35:c8:b9:b3:43:ad:58:04:3a:1b:cd:1e:06:66:b6:3e:66:
        59:fd:e2:71:86:6d:f5:a2:93:cd:76:5e:52:40:5a:35:60:e4:
        7c:8f:13:9d:7e:81:de:02:27:f3:6a:f7:71:c2:9e:73:e0:0a:
        6f:35:83:2c:7c:4a:b6:09:1d:7d:cd:82:5a:8a:97:18:5c:9f:
        d9:82:00:37:63:bd:0e:11:56:34:70:11:c5:8c:b1:59:bf:93:
        0d:9a:00:60:b5:6d:de:53:a8:db:6a:e8:c9:1f:09:fb:26:90:
        39:82:bf:12:24:0d:30:5c:a9:27:19:c5:f9:65:db:c8:b9:ac:
        3a:21:73:b0:80:c6:7b:74:08:05:2c:e1:ee:5d:02:0c:34:d3:
        96:b1:bf:7d:2f:6a:15:0c:b9:d1:95:d7:3f:a6:b0:1f:32:57:
        5e:4c:28:93:e5:c8:2d:8c:07:d2:7a:ec:84:d7:28:43:b8:bc:
        9f:e1:da:77
-----BEGIN CERTIFICATE-----
MIIELDCCAxSgAwIBAgIRAMiw7vAkAdeKHRRAO5D/RugwDQYJKoZIhvcNAQELBQAw
QjELMAkGA1UEBhMCVVMxIjAgBgNVBAoMGVBvcnRsYW5kIFN0YXRlIFVuaXZlcnNp
dHkxDzANBgNVBAMMBlN1YiBDQTAeFw0yMzA2MTkxNjA2MDRaFw0zMzA2MTYxNjA2
MDRaMEIxCzAJBgNVBAYTAlVTMSIwIAYDVQQKDBlQb3J0bGFuZCBTdGF0ZSBVbml2
ZXJzaXR5MQ8wDQYDVQQDDAZTdWIgQ0EwggEiMA0GCSqGSIb3DQEBAQUAA4IBDwAw
ggEKAoIBAQDRXq1hErsdHLdAWauB7P74QKPln4Uq+S99cyuykcN/WlFYZsBugrYL
jIoQ/e+Z5Ai2TbTef6r0xc/FW53ik9L9pgffTS1G//7xsUKjE6wG9Re2243xcQkz
di8Jurw+Qc7VxnrveTao77BsbiEhF6YP/Ngfi0uF4VaaUFzdg4PyEz2DyPu3lcS2
zBo2ZWG6JIs4RMqdB6T1sJSm8mGuVdI2CuUk/aYEQ1TV99BqWSeDOlTiL+QDB5P4
vznbBU6LPKPXmcda/DMgDWUKdwaUfzFM/+fjxKcWXHkQ/CuhTlYHyDsZnyUl54w8
voIdje1yu+jBf35ZAxVszodk81ZH9k7TAgMBAAGjggEbMIIBFzBtBggrBgEFBQcB
AQRhMF8wLgYIKwYBBQUHMAKGImh0dHA6Ly9zdWItY2EubG9jYWxob3N0L3N1Yi1j
YS5jcnQwLQYIKwYBBQUHMAGGIWh0dHA6Ly9vY3NwLnN1Yi1jYS5sb2NhbGhvc3Q6
OTA4MTAfBgNVHSMEGDAWgBRNoY2FwcHt6Jo5tQUtO3KIj3fQgjAMBgNVHRMBAf8E
AjAAMDMGA1UdHwQsMCowKKAmoCSGImh0dHA6Ly9zdWItY2EubG9jYWxob3N0L3N1
Yi1jYS5jcmwwEwYDVR0lBAwwCgYIKwYBBQUHAwIwDgYDVR0PAQH/BAQDAgeAMB0G
A1UdDgQWBBRA33yEfgG3g9pPf1gijdRVnbc6jTANBgkqhkiG9w0BAQsFAAOCAQEA
b5S+hGwOuvefgd+0TTOYr434JxsV8IXETawI4YoAx9+uCdrhZ4KZO1LcLJ/DmzBV
1AKKgdsx/XtDVhSPWPa2Ski9Mt41VyCmITXIubNDrVgEOhvNHgZmtj5mWf3icYZt
9aKTzXZeUkBaNWDkfI8TnX6B3gIn82r3ccKec+AKbzWDLHxKtgkdfc2CWoqXGFyf
2YIAN2O9DhFWNHARxYyxWb+TDZoAYLVt3lOo22royR8J+yaQOYK/EiQNMFypJxnF
+WXbyLmsOiFzsIDGe3QIBSzh7l0CDDTTlrG/fS9qFQy50ZXXP6awHzJXXkwok+XI
LYwH0nrshNcoQ7i8n+Hadw==
-----END CERTIFICATE-----
