Certificate:
    Data:
        Version: 3 (0x2)
        Serial Number:
            c8:b0:ee:f0:24:01:d7:8a:1d:14:40:3b:90:ff:47:1f
        Signature Algorithm: sha256WithRSAEncryption
        Issuer: C=US, O=Portland State University, CN=Sub CA
        Validity
            Not Before: Jun 19 16:06:12 2023 GMT
            Not After : Jun 16 16:06:12 2033 GMT
        Subject: C=US, O=Portland State University, CN=Sub CA
        Subject Public Key Info:
            Public Key Algorithm: rsaEncryption
                Public-Key: (2048 bit)
                Modulus:
                    00:a1:ce:77:44:52:7c:12:91:0f:8c:23:6d:bf:87:
                    c4:1b:91:ce:b3:87:61:d9:f4:c0:ac:34:45:f6:68:
                    6f:f5:67:07:aa:48:5a:61:b4:1e:0b:a8:88:25:df:
                    86:00:16:78:c6:bf:fb:ed:ef:50:88:99:ec:98:1e:
                    28:cb:f2:81:19:60:40:19:47:9c:c0:cf:6e:cc:96:
                    6b:d6:dc:ba:a4:da:a7:1e:cb:13:82:d5:c2:5b:0b:
                    ff:3f:58:62:d5:95:21:8e:cb:6f:3f:32:9f:a6:b1:
                    b9:29:52:ca:82:43:77:f8:d0:b3:4f:d6:38:77:a6:
                    43:9b:82:d4:2f:4b:09:4a:e7:ab:63:ec:44:5c:ef:
                    ad:f5:35:75:68:f1:b4:16:db:37:fc:b6:85:77:b0:
                    b6:ca:05:a3:5f:02:3e:40:35:e7:31:b0:c9:df:f9:
                    cd:d5:1a:5c:f9:08:82:0d:e4:4d:ab:e5:ec:1d:7c:
                    68:44:2e:46:04:87:86:ab:dc:32:01:cd:aa:db:87:
                    bf:a2:04:e1:4a:14:88:40:48:24:f7:01:ed:00:b9:
                    62:14:fc:76:70:41:4b:72:b9:66:b7:96:a9:d1:c8:
                    73:7d:b1:2f:e3:d1:0d:76:58:7e:b8:c5:1c:9d:a8:
                    04:70:01:1e:d1:fa:1a:89:39:8c:47:e9:44:48:09:
                    88:bd
                Exponent: 65537 (0x10001)
        X509v3 extensions:
            Authority Information Access: 
                CA Issuers - URI:http://sub-ca.localhost/sub-ca.crt
                OCSP - URI:http://ocsp.sub-ca.localhost:9081
            X509v3 Authority Key Identifier: 
                4D:A1:8D:85:C1:C1:ED:E8:9A:39:B5:05:2D:3B:72:88:8F:77:D0:82
            X509v3 Basic Constraints: critical
                CA:FALSE
            X509v3 CRL Distribution Points: 
                Full Name:
                  URI:http://sub-ca.localhost/sub-ca.crl
            X509v3 Extended Key Usage: 
                TLS Web Client Authentication
            X509v3 Key Usage: critical
                Digital Signature
            X509v3 Subject Key Identifier: 
                46:22:10:4E:F0:96:B7:DF:15:82:B9:B9:CD:9D:44:C2:1E:66:3B:D0
    Signature Algorithm: sha256WithRSAEncryption
    Signature Value:
        34:3a:31:2b:11:a7:d1:15:fa:ea:7a:31:7b:e3:4d:53:60:d2:
        f5:74:53:00:56:5e:1d:21:1d:16:c1:61:a0:e5:d0:b4:94:34:
        36:fd:95:f9:99:60:4b:64:b4:cf:3d:72:11:85:8e:bd:13:be:
        a9:6d:9c:2a:8f:66:6b:bf:2e:cc:96:87:e7:b6:ea:25:4c:b4:
        2c:83:ae:f2:fd:0b:30:ad:d3:d6:87:1d:a8:9f:95:6a:7f:fa:
        2f:84:51:47:95:84:53:46:f5:1a:5b:9e:48:be:4c:ec:cf:4e:
        f9:42:1c:89:a6:06:43:86:a9:a4:13:b6:db:8d:4e:85:26:2d:
        86:8f:ca:03:67:01:ea:d7:8d:c0:a8:14:f6:37:f0:08:eb:b7:
        f4:73:c2:27:6b:87:e8:e6:79:67:ed:c9:2d:98:5a:79:fd:62:
        d1:3a:31:c3:3d:25:a1:98:6c:31:3d:15:00:b4:15:b4:2c:25:
        ac:b1:14:f8:d7:c4:3e:9b:af:9b:c7:4f:57:a0:4d:81:ef:ec:
        ce:09:00:40:58:83:59:de:1c:af:21:8a:ff:46:1f:b7:11:a4:
        2e:a4:32:e1:6c:5f:ca:38:3d:81:45:d0:64:4d:14:ab:08:7d:
        14:8c:14:34:c0:92:0a:f6:d0:2e:7a:77:91:9b:4d:6f:d4:bb:
        b3:f4:d1:bb
-----BEGIN CERTIFICATE-----
MIIELDCCAxSgAwIBAgIRAMiw7vAkAdeKHRRAO5D/Rx8wDQYJKoZIhvcNAQELBQAw
QjELMAkGA1UEBhMCVVMxIjAgBgNVBAoMGVBvcnRsYW5kIFN0YXRlIFVuaXZlcnNp
dHkxDzANBgNVBAMMBlN1YiBDQTAeFw0yMzA2MTkxNjA2MTJaFw0zMzA2MTYxNjA2
MTJaMEIxCzAJBgNVBAYTAlVTMSIwIAYDVQQKDBlQb3J0bGFuZCBTdGF0ZSBVbml2
ZXJzaXR5MQ8wDQYDVQQDDAZTdWIgQ0EwggEiMA0GCSqGSIb3DQEBAQUAA4IBDwAw
ggEKAoIBAQChzndEUnwSkQ+MI22/h8Qbkc6zh2HZ9MCsNEX2aG/1ZweqSFphtB4L
qIgl34YAFnjGv/vt71CImeyYHijL8oEZYEAZR5zAz27MlmvW3Lqk2qceyxOC1cJb
C/8/WGLVlSGOy28/Mp+msbkpUsqCQ3f40LNP1jh3pkObgtQvSwlK56tj7ERc7631
NXVo8bQW2zf8toV3sLbKBaNfAj5ANecxsMnf+c3VGlz5CIIN5E2r5ewdfGhELkYE
h4ar3DIBzarbh7+iBOFKFIhASCT3Ae0AuWIU/HZwQUtyuWa3lqnRyHN9sS/j0Q12
WH64xRydqARwAR7R+hqJOYxH6URICYi9AgMBAAGjggEbMIIBFzBtBggrBgEFBQcB
AQRhMF8wLgYIKwYBBQUHMAKGImh0dHA6Ly9zdWItY2EubG9jYWxob3N0L3N1Yi1j
YS5jcnQwLQYIKwYBBQUHMAGGIWh0dHA6Ly9vY3NwLnN1Yi1jYS5sb2NhbGhvc3Q6
OTA4MTAfBgNVHSMEGDAWgBRNoY2FwcHt6Jo5tQUtO3KIj3fQgjAMBgNVHRMBAf8E
AjAAMDMGA1UdHwQsMCowKKAmoCSGImh0dHA6Ly9zdWItY2EubG9jYWxob3N0L3N1
Yi1jYS5jcmwwEwYDVR0lBAwwCgYIKwYBBQUHAwIwDgYDVR0PAQH/BAQDAgeAMB0G
A1UdDgQWBBRGIhBO8Ja33xWCubnNnUTCHmY70DANBgkqhkiG9w0BAQsFAAOCAQEA
NDoxKxGn0RX66noxe+NNU2DS9XRTAFZeHSEdFsFhoOXQtJQ0Nv2V+ZlgS2S0zz1y
EYWOvRO+qW2cKo9ma78uzJaH57bqJUy0LIOu8v0LMK3T1ocdqJ+Van/6L4RRR5WE
U0b1GlueSL5M7M9O+UIciaYGQ4appBO2241OhSYtho/KA2cB6teNwKgU9jfwCOu3
9HPCJ2uH6OZ5Z+3JLZhaef1i0Toxwz0loZhsMT0VALQVtCwlrLEU+NfEPpuvm8dP
V6BNge/szgkAQFiDWd4cryGK/0YftxGkLqQy4Wxfyjg9gUXQZE0Uqwh9FIwUNMCS
CvbQLnp3kZtNb9S7s/TRuw==
-----END CERTIFICATE-----
