Certificate:
    Data:
        Version: 3 (0x2)
        Serial Number:
            c8:b0:ee:f0:24:01:d7:8a:1d:14:40:3b:90:ff:46:ed
        Signature Algorithm: sha256WithRSAEncryption
        Issuer: C=US, O=Portland State University, CN=Sub CA
        Validity
            Not Before: Jun 19 16:06:05 2023 GMT
            Not After : Jun 16 16:06:05 2033 GMT
        Subject: C=US, O=Portland State University, CN=Sub CA
        Subject Public Key Info:
            Public Key Algorithm: rsaEncryption
                Public-Key: (2048 bit)
                Modulus:
                    00:96:86:69:7f:c6:4b:90:af:25:45:c0:51:6c:03:
                    ad:52:38:12:a8:a6:bb:03:f3:54:98:4d:1c:4f:b7:
                    ae:03:cd:cb:25:71:1a:da:d4:3e:9c:65:a8:c5:a4:
                    50:ab:b1:23:2b:bd:64:d2:5a:23:09:8d:47:fd:2f:
                    44:89:a0:e2:00:a0:21:1d:2c:d9:76:fb:28:00:13:
                    62:c7:97:18:3d:d8:f0:da:dc:66:e2:24:eb:d0:df:
                    d2:4b:a0:a2:b3:c5:c5:5d:7b:35:59:ca:a2:6a:ec:
                    a8:ea:02:d5:f5:4f:6a:2b:bb:82:eb:0a:ca:47:6b:
                    31:32:49:fe:4b:26:c7:e7:08:a1:bf:79:88:d0:17:
                    f1:bc:6b:73:d3:b0:c1:db:a0:50:73:da:ce:39:10:
                    85:50:b5:2c:ca:0e:1a:42:90:8b:9a:07:22:41:8a:
                    0e:01:89:24:70:cc:10:55:94:43:69:0e:7f:d4:66:
                    71:7c:c5:9a:b1:de:35:19:3b:3b:ec:97:0a:3c:b9:
                    90:6b:40:4a:c7:f1:88:11:8f:21:32:9d:c6:8d:c8:
                    60:73:ee:af:bc:dc:8b:1d:f0:d8:75:02:c5:15:f9:
                    0e:fa:6a:86:b3:59:e2:ab:d3:50:c4:fc:8a:50:22:
                    d4:62:10:22:00:73:72:66:51:6b:01:f7:96:35:e5:
                    46:d3
                Exponent: 65537 (0x10001)
        X509v3 extensions:
            Authority Information Access: 
                CA Issuers - URI:http://sub-ca.localhost/sub-ca.crt
                OCSP - URI:http://ocsp.sub-ca.localhost:9081
            X509v3 Authority Key Identifier: 
                4D:A1:8D:85:C1:C1:ED:E8:9A:39:B5:05:2D:3B:72:88:8F:77:D0:82
            X509v3 Basic Constraints: critical
                CA:FALSE
            X509v3 CRL Distribution Points: 
                Full Name:
                  URI:http://sub-ca.localhost/sub-ca.crl
            X509v3 Extended Key Usage: 
                TLS Web Client Authentication
            X509v3 Key Usage: critical
                Digital Signature
            X509v3 Subject Key Identifier: 
                F6:7C:FF:CA:8B:40:2B:38:ED:21:6D:DC:08:D7:82:49:DE:A1:6D:D6
    Signature Algorithm: sha256WithRSAEncryption
    Signature Value:
        46:cc:2e:3a:45:a8:c4:64:09:42:33:8d:bf:e1:e9:30:23:0e:
        e6:bf:dd:fe:2d:68:0e:b3:a3:88:4b:25:21:73:50:42:fa:76:
        2f:18:1f:bf:35:4a:6a:93:81:9d:03:de:e7:76:3b:76:36:65:
        92:e0:ab:01:4b:f8:28:67:fb:31:32:4b:29:f9:e7:d6:0c:f0:
        6f:2e:77:d9:b6:c7:0f:5c:52:92:13:43:66:ed:6c:78:2b:98:
        bb:68:16:29:54:07:97:84:32:67:2b:db:05:85:34:f0:d8:0a:
        11:02:a7:18:4d:1e:53:87:eb:54:37:75:e7:40:93:3d:b9:6c:
        7f:f8:47:70:b1:2e:87:1e:9f:56:b1:0f:85:7f:d7:c9:fe:16:
        19:9b:e5:bb:2c:87:92:62:fd:bd:3f:a3:fb:da:a5:09:fb:cb:
        b4:fd:52:1c:71:43:41:33:8d:d9:14:91:5f:8c:6c:a0:74:15:
        0a:be:6f:7e:a6:5f:f0:17:49:04:bb:da:76:9d:cd:a8:4c:af:
        9b:0a:97:b0:e6:c9:3f:cc:8e:a2:63:2d:11:e2:f1:88:af:f0:
        13:b8:1e:7a:5a:2d:d3:f1:da:65:1b:f0:d0:fb:d0:44:ab:c3:
        0b:8c:d5:33:1c:5f:0e:16:b2:02:4f:e3:79:44:e7:99:06:cf:
        88:8b:58:df
-----BEGIN CERTIFICATE-----
MIIELDCCAxSgAwIBAgIRAMiw7vAkAdeKHRRAO5D/Ru0wDQYJKoZIhvcNAQELBQAw
QjELMAkGA1UEBhMCVVMxIjAgBgNVBAoMGVBvcnRsYW5kIFN0YXRlIFVuaXZlcnNp
dHkxDzANBgNVBAMMBlN1YiBDQTAeFw0yMzA2MTkxNjA2MDVaFw0zMzA2MTYxNjA2
MDVaMEIxCzAJBgNVBAYTAlVTMSIwIAYDVQQKDBlQb3J0bGFuZCBTdGF0ZSBVbml2
ZXJzaXR5MQ8wDQYDVQQDDAZTdWIgQ0EwggEiMA0GCSqGSIb3DQEBAQUAA4IBDwAw
ggEKAoIBAQCWhml/xkuQryVFwFFsA61SOBKoprsD81SYTRxPt64DzcslcRra1D6c
ZajFpFCrsSMrvWTSWiMJjUf9L0SJoOIAoCEdLNl2+ygAE2LHlxg92PDa3GbiJOvQ
39JLoKKzxcVdezVZyqJq7KjqAtX1T2oru4LrCspHazEySf5LJsfnCKG/eYjQF/G8
a3PTsMHboFBz2s45EIVQtSzKDhpCkIuaByJBig4BiSRwzBBVlENpDn/UZnF8xZqx
3jUZOzvslwo8uZBrQErH8YgRjyEyncaNyGBz7q+83Isd8Nh1AsUV+Q76aoazWeKr
01DE/IpQItRiECIAc3JmUWsB95Y15UbTAgMBAAGjggEbMIIBFzBtBggrBgEFBQcB
AQRhMF8wLgYIKwYBBQUHMAKGImh0dHA6Ly9zdWItY2EubG9jYWxob3N0L3N1Yi1j
YS5jcnQwLQYIKwYBBQUHMAGGIWh0dHA6Ly9vY3NwLnN1Yi1jYS5sb2NhbGhvc3Q6
OTA4MTAfBgNVHSMEGDAWgBRNoY2FwcHt6Jo5tQUtO3KIj3fQgjAMBgNVHRMBAf8E
AjAAMDMGA1UdHwQsMCowKKAmoCSGImh0dHA6Ly9zdWItY2EubG9jYWxob3N0L3N1
Yi1jYS5jcmwwEwYDVR0lBAwwCgYIKwYBBQUHAwIwDgYDVR0PAQH/BAQDAgeAMB0G
A1UdDgQWBBT2fP/Ki0ArOO0hbdwI14JJ3qFt1jANBgkqhkiG9w0BAQsFAAOCAQEA
RswuOkWoxGQJQjONv+HpMCMO5r/d/i1oDrOjiEslIXNQQvp2LxgfvzVKapOBnQPe
53Y7djZlkuCrAUv4KGf7MTJLKfnn1gzwby532bbHD1xSkhNDZu1seCuYu2gWKVQH
l4QyZyvbBYU08NgKEQKnGE0eU4frVDd150CTPblsf/hHcLEuhx6fVrEPhX/Xyf4W
GZvluyyHkmL9vT+j+9qlCfvLtP1SHHFDQTON2RSRX4xsoHQVCr5vfqZf8BdJBLva
dp3NqEyvmwqXsObJP8yOomMtEeLxiK/wE7geelot0/HaZRvw0PvQRKvDC4zVMxxf
DhayAk/jeUTnmQbPiItY3w==
-----END CERTIFICATE-----
