Certificate:
    Data:
        Version: 3 (0x2)
        Serial Number:
            c8:b0:ee:f0:24:01:d7:8a:1d:14:40:3b:90:ff:46:f2
        Signature Algorithm: sha256WithRSAEncryption
        Issuer: C=US, O=Portland State University, CN=Sub CA
        Validity
            Not Before: Jun 19 16:06:06 2023 GMT
            Not After : Jun 16 16:06:06 2033 GMT
        Subject: C=US, O=Portland State University, CN=Sub CA
        Subject Public Key Info:
            Public Key Algorithm: rsaEncryption
                Public-Key: (2048 bit)
                Modulus:
                    00:97:50:88:f0:dc:df:6e:0d:03:a0:25:d6:c7:7e:
                    29:2b:79:d0:85:d7:2a:a4:cc:b9:c9:81:b5:12:c1:
                    8e:3c:ff:b8:db:69:bd:c0:a3:fd:b1:5c:29:7c:45:
                    a0:88:87:26:e9:48:e5:4a:bd:ff:13:e4:75:35:02:
                    54:97:f1:f8:17:23:f0:51:8f:db:77:dc:a1:c1:d4:
                    20:0f:a1:58:3a:4c:3a:5b:69:26:2d:04:58:83:12:
                    35:64:e8:d1:9e:9b:1f:7a:9f:74:b5:fd:b3:09:fc:
                    1d:0c:c6:0c:61:42:16:b4:b9:5b:10:86:26:ca:f1:
                    a1:93:81:14:c0:94:d6:fc:41:2f:59:c4:f7:cc:1e:
                    11:b6:4a:a1:c8:db:d0:17:92:17:e3:91:af:12:a5:
                    81:32:91:4a:df:dd:46:69:77:1b:41:68:28:9b:ff:
                    3b:da:67:0b:23:3d:3f:6c:98:8b:18:ce:bc:b6:79:
                    25:ee:a0:8a:e9:5c:1c:17:61:b2:55:a3:ff:cb:03:
                    84:f9:4a:5b:6f:63:a0:a7:02:2c:f0:e8:22:a6:e6:
                    a5:50:3d:e8:d4:b5:6a:fa:45:4e:7b:01:b3:7c:3d:
                    35:15:52:1e:13:27:6f:8d:cf:8a:10:e8:53:8a:fa:
                    4f:71:cc:3d:30:d5:42:4c:41:67:a7:4d:be:c4:40:
                    da:6b
                Exponent: 65537 (0x10001)
        X509v3 extensions:
            Authority Information Access: 
                CA Issuers - URI:http://sub-ca.localhost/sub-ca.crt
                OCSP - URI:http://ocsp.sub-ca.localhost:9081
            X509v3 Authority Key Identifier: 
                4D:A1:8D:85:C1:C1:ED:E8:9A:39:B5:05:2D:3B:72:88:8F:77:D0:82
            X509v3 Basic Constraints: critical
                CA:FALSE
            X509v3 CRL Distribution Points: 
                Full Name:
                  URI:http://sub-ca.localhost/sub-ca.crl
            X509v3 Extended Key Usage: 
                TLS Web Client Authentication
            X509v3 Key Usage: critical
                Digital Signature
            X509v3 Subject Key Identifier: 
                B1:03:3E:D4:47:79:2F:36:0C:53:DA:F1:10:9E:30:1E:B1:C0:3C:86
    Signature Algorithm: sha256WithRSAEncryption
    Signature Value:
        aa:d0:cb:b0:2d:4b:52:1d:82:6c:30:8b:90:0f:ce:6a:e5:d3:
        d4:48:69:be:13:65:2a:72:c5:e4:43:31:5e:20:c9:15:1b:49:
        32:0c:65:b6:20:f8:e8:ff:94:d8:e7:4b:ea:1d:73:78:5a:ef:
        a0:4c:51:71:9c:d9:f4:48:85:c4:77:ce:4e:77:bb:4a:85:17:
        71:21:c0:a2:a1:53:93:87:f7:05:45:67:ca:2c:d3:76:55:ba:
        6b:03:24:45:ef:34:43:7a:b3:fa:de:c5:5f:44:6c:f3:46:42:
        68:1d:a1:80:ad:54:fa:bc:03:e1:e4:3f:34:a1:81:1b:02:33:
        6d:94:f9:7c:53:f9:04:0e:bd:be:58:d3:5e:8b:0b:f2:7a:f8:
        c0:1a:2d:c3:af:45:6e:06:e6:ea:7d:32:50:ac:0c:1b:d4:61:
        c7:2d:e5:c3:fa:f3:0e:8b:04:33:04:08:ce:1b:1a:b5:4d:17:
        d4:be:01:65:c8:ea:66:83:d1:59:8d:7b:09:9c:e7:91:b9:1a:
        b2:e8:83:04:da:76:b0:d6:14:a2:b1:1c:11:a4:7f:3d:ff:91:
        10:70:14:9f:47:1f:da:cc:1c:17:2e:10:2b:78:54:c3:a4:5d:
        56:98:49:62:dd:45:1b:33:52:9e:34:be:6b:04:33:9c:a7:4b:
        90:ca:48:ad
-----BEGIN CERTIFICATE-----
MIIELDCCAxSgAwIBAgIRAMiw7vAkAdeKHRRAO5D/RvIwDQYJKoZIhvcNAQELBQAw
QjELMAkGA1UEBhMCVVMxIjAgBgNVBAoMGVBvcnRsYW5kIFN0YXRlIFVuaXZlcnNp
dHkxDzANBgNVBAMMBlN1YiBDQTAeFw0yMzA2MTkxNjA2MDZaFw0zMzA2MTYxNjA2
MDZaMEIxCzAJBgNVBAYTAlVTMSIwIAYDVQQKDBlQb3J0bGFuZCBTdGF0ZSBVbml2
ZXJzaXR5MQ8wDQYDVQQDDAZTdWIgQ0EwggEiMA0GCSqGSIb3DQEBAQUAA4IBDwAw
ggEKAoIBAQCXUIjw3N9uDQOgJdbHfikredCF1yqkzLnJgbUSwY48/7jbab3Ao/2x
XCl8RaCIhybpSOVKvf8T5HU1AlSX8fgXI/BRj9t33KHB1CAPoVg6TDpbaSYtBFiD
EjVk6NGemx96n3S1/bMJ/B0MxgxhQha0uVsQhibK8aGTgRTAlNb8QS9ZxPfMHhG2
SqHI29AXkhfjka8SpYEykUrf3UZpdxtBaCib/zvaZwsjPT9smIsYzry2eSXuoIrp
XBwXYbJVo//LA4T5SltvY6CnAizw6CKm5qVQPejUtWr6RU57AbN8PTUVUh4TJ2+N
z4oQ6FOK+k9xzD0w1UJMQWenTb7EQNprAgMBAAGjggEbMIIBFzBtBggrBgEFBQcB
AQRhMF8wLgYIKwYBBQUHMAKGImh0dHA6Ly9zdWItY2EubG9jYWxob3N0L3N1Yi1j
YS5jcnQwLQYIKwYBBQUHMAGGIWh0dHA6Ly9vY3NwLnN1Yi1jYS5sb2NhbGhvc3Q6
OTA4MTAfBgNVHSMEGDAWgBRNoY2FwcHt6Jo5tQUtO3KIj3fQgjAMBgNVHRMBAf8E
AjAAMDMGA1UdHwQsMCowKKAmoCSGImh0dHA6Ly9zdWItY2EubG9jYWxob3N0L3N1
Yi1jYS5jcmwwEwYDVR0lBAwwCgYIKwYBBQUHAwIwDgYDVR0PAQH/BAQDAgeAMB0G
A1UdDgQWBBSxAz7UR3kvNgxT2vEQnjAescA8hjANBgkqhkiG9w0BAQsFAAOCAQEA
qtDLsC1LUh2CbDCLkA/OauXT1EhpvhNlKnLF5EMxXiDJFRtJMgxltiD46P+U2OdL
6h1zeFrvoExRcZzZ9EiFxHfOTne7SoUXcSHAoqFTk4f3BUVnyizTdlW6awMkRe80
Q3qz+t7FX0Rs80ZCaB2hgK1U+rwD4eQ/NKGBGwIzbZT5fFP5BA69vljTXosL8nr4
wBotw69Fbgbm6n0yUKwMG9Rhxy3lw/rzDosEMwQIzhsatU0X1L4BZcjqZoPRWY17
CZznkbkasuiDBNp2sNYUorEcEaR/Pf+REHAUn0cf2swcFy4QK3hUw6RdVphJYt1F
GzNSnjS+awQznKdLkMpIrQ==
-----END CERTIFICATE-----
