Certificate:
    Data:
        Version: 3 (0x2)
        Serial Number:
            c8:b0:ee:f0:24:01:d7:8a:1d:14:40:3b:90:ff:47:0e
        Signature Algorithm: sha256WithRSAEncryption
        Issuer: C=US, O=Portland State University, CN=Sub CA
        Validity
            Not Before: Jun 19 16:06:09 2023 GMT
            Not After : Jun 16 16:06:09 2033 GMT
        Subject: C=US, O=Portland State University, CN=Sub CA
        Subject Public Key Info:
            Public Key Algorithm: rsaEncryption
                Public-Key: (2048 bit)
                Modulus:
                    00:ac:b5:f9:a0:c3:d5:2e:68:8c:8b:2c:d8:80:8c:
                    d9:23:58:5e:cc:82:0a:37:3a:db:04:28:1d:c1:82:
                    7d:a9:eb:49:fd:a2:96:2b:c5:8b:20:cc:91:96:42:
                    c3:cc:11:8f:a7:a8:74:c1:3d:fb:26:3e:b9:72:72:
                    dc:ea:51:b7:41:1f:8e:80:d6:2e:4f:43:4e:39:d2:
                    8b:34:02:4b:b4:9d:e7:d1:b4:3a:fa:ff:33:98:20:
                    de:20:4f:cb:d3:10:d9:18:64:a3:2e:da:a0:ad:51:
                    bf:19:94:f4:7d:5b:95:be:ff:15:e9:c0:e3:ab:dc:
                    8b:8d:0e:e6:3a:a9:79:f2:a8:5d:b8:60:5a:ad:cf:
                    31:7d:2f:8b:13:69:c5:43:23:20:f4:af:80:1e:14:
                    06:43:36:fd:cd:ba:29:a3:da:ed:ae:34:94:3b:9b:
                    28:e8:09:48:06:0d:1f:e7:7b:ba:39:39:38:7c:3d:
                    41:4e:af:13:d5:4c:fc:79:f7:b9:c4:04:16:44:4c:
                    84:9f:dc:4f:2c:61:7b:47:5f:d5:d7:a6:39:67:fb:
                    2a:d5:d2:f1:02:f8:fc:36:35:8c:bf:8a:ba:aa:05:
                    c0:57:a3:ea:ad:66:3f:2f:12:e2:fa:ef:39:2c:05:
                    16:b7:2d:82:43:2d:51:ef:c8:f9:ed:fe:5d:73:cc:
                    93:c7
                Exponent: 65537 (0x10001)
        X509v3 extensions:
            Authority Information Access: 
                CA Issuers - URI:http://sub-ca.localhost/sub-ca.crt
                OCSP - URI:http://ocsp.sub-ca.localhost:9081
            X509v3 Authority Key Identifier: 
                4D:A1:8D:85:C1:C1:ED:E8:9A:39:B5:05:2D:3B:72:88:8F:77:D0:82
            X509v3 Basic Constraints: critical
                CA:FALSE
            X509v3 CRL Distribution Points: 
                Full Name:
                  URI:http://sub-ca.localhost/sub-ca.crl
            X509v3 Extended Key Usage: 
                TLS Web Client Authentication
            X509v3 Key Usage: critical
                Digital Signature
            X509v3 Subject Key Identifier: 
                1E:47:30:F8:61:B2:29:7A:0F:D9:9D:73:A5:4A:60:18:DD:20:25:5C
    Signature Algorithm: sha256WithRSAEncryption
    Signature Value:
        44:0f:b3:5a:cf:30:4c:2c:8c:73:6e:61:2b:58:bf:30:b6:b9:
        c9:09:0f:f2:c9:00:c8:96:0d:25:a4:a5:8d:51:8f:f7:16:36:
        ad:b4:8f:81:91:7b:7f:ff:38:9e:39:f7:b3:55:79:45:bc:95:
        51:b3:db:cc:1e:0e:6e:d7:9e:7c:a3:cc:37:23:cd:97:a8:d7:
        90:20:b3:52:d1:8e:2e:d7:3f:2f:1e:ba:9a:07:13:0d:cd:80:
        22:57:0d:86:04:04:36:85:3c:53:f4:fd:28:98:a6:2f:f6:7d:
        6b:e0:d1:8f:a2:90:0a:af:8a:ec:70:66:a9:bd:65:dc:d5:c1:
        60:52:2f:9d:75:68:8b:16:05:f5:ca:1d:ef:10:2f:92:d3:e2:
        76:6c:c9:be:e2:78:9b:31:e4:85:71:46:23:7f:9c:e5:b7:49:
        6a:b3:70:88:8b:13:cd:36:e4:d6:d1:2b:7e:a5:8e:2d:f7:85:
        14:4a:59:f0:d2:96:fd:b5:05:6b:ab:a2:8b:f3:4f:7b:b1:cd:
        54:ec:90:f1:62:36:91:f9:28:23:83:08:2f:47:42:3d:52:5c:
        30:0e:c4:05:63:dd:bb:60:42:f7:91:be:da:8e:9e:2c:32:de:
        37:b6:4f:73:db:e8:d0:61:87:e2:6a:cd:94:5d:c0:72:71:0a:
        a6:02:25:ff
-----BEGIN CERTIFICATE-----
MIIELDCCAxSgAwIBAgIRAMiw7vAkAdeKHRRAO5D/Rw4wDQYJKoZIhvcNAQELBQAw
QjELMAkGA1UEBhMCVVMxIjAgBgNVBAoMGVBvcnRsYW5kIFN0YXRlIFVuaXZlcnNp
dHkxDzANBgNVBAMMBlN1YiBDQTAeFw0yMzA2MTkxNjA2MDlaFw0zMzA2MTYxNjA2
MDlaMEIxCzAJBgNVBAYTAlVTMSIwIAYDVQQKDBlQb3J0bGFuZCBTdGF0ZSBVbml2
ZXJzaXR5MQ8wDQYDVQQDDAZTdWIgQ0EwggEiMA0GCSqGSIb3DQEBAQUAA4IBDwAw
ggEKAoIBAQCstfmgw9UuaIyLLNiAjNkjWF7Mggo3OtsEKB3Bgn2p60n9opYrxYsg
zJGWQsPMEY+nqHTBPfsmPrlyctzqUbdBH46A1i5PQ0450os0Aku0nefRtDr6/zOY
IN4gT8vTENkYZKMu2qCtUb8ZlPR9W5W+/xXpwOOr3IuNDuY6qXnyqF24YFqtzzF9
L4sTacVDIyD0r4AeFAZDNv3Nuimj2u2uNJQ7myjoCUgGDR/ne7o5OTh8PUFOrxPV
TPx597nEBBZETISf3E8sYXtHX9XXpjln+yrV0vEC+Pw2NYy/irqqBcBXo+qtZj8v
EuL67zksBRa3LYJDLVHvyPnt/l1zzJPHAgMBAAGjggEbMIIBFzBtBggrBgEFBQcB
AQRhMF8wLgYIKwYBBQUHMAKGImh0dHA6Ly9zdWItY2EubG9jYWxob3N0L3N1Yi1j
YS5jcnQwLQYIKwYBBQUHMAGGIWh0dHA6Ly9vY3NwLnN1Yi1jYS5sb2NhbGhvc3Q6
OTA4MTAfBgNVHSMEGDAWgBRNoY2FwcHt6Jo5tQUtO3KIj3fQgjAMBgNVHRMBAf8E
AjAAMDMGA1UdHwQsMCowKKAmoCSGImh0dHA6Ly9zdWItY2EubG9jYWxob3N0L3N1
Yi1jYS5jcmwwEwYDVR0lBAwwCgYIKwYBBQUHAwIwDgYDVR0PAQH/BAQDAgeAMB0G
A1UdDgQWBBQeRzD4YbIpeg/ZnXOlSmAY3SAlXDANBgkqhkiG9w0BAQsFAAOCAQEA
RA+zWs8wTCyMc25hK1i/MLa5yQkP8skAyJYNJaSljVGP9xY2rbSPgZF7f/84njn3
s1V5RbyVUbPbzB4ObteefKPMNyPNl6jXkCCzUtGOLtc/Lx66mgcTDc2AIlcNhgQE
NoU8U/T9KJimL/Z9a+DRj6KQCq+K7HBmqb1l3NXBYFIvnXVoixYF9cod7xAvktPi
dmzJvuJ4mzHkhXFGI3+c5bdJarNwiIsTzTbk1tErfqWOLfeFFEpZ8NKW/bUFa6ui
i/NPe7HNVOyQ8WI2kfkoI4MIL0dCPVJcMA7EBWPdu2BC95G+2o6eLDLeN7ZPc9vo
0GGH4mrNlF3AcnEKpgIl/w==
-----END CERTIFICATE-----
