Certificate:
    Data:
        Version: 3 (0x2)
        Serial Number:
            c8:b0:ee:f0:24:01:d7:8a:1d:14:40:3b:90:ff:46:e4
        Signature Algorithm: sha256WithRSAEncryption
        Issuer: C=US, O=Portland State University, CN=Sub CA
        Validity
            Not Before: Nov  8 20:35:30 2022 GMT
            Not After : Nov  5 20:35:30 2032 GMT
        Subject: C=US, O=Portland State University, CN=Sub CA
        Subject Public Key Info:
            Public Key Algorithm: rsaEncryption
                Public-Key: (2048 bit)
                Modulus:
                    00:9d:f0:83:3f:bb:5e:9d:c2:9d:0f:6e:a8:f4:8a:
                    68:7b:fe:9c:f0:65:20:bb:6a:56:d3:ff:36:ee:b7:
                    04:93:05:05:02:09:71:9b:e8:41:02:0a:1a:7d:33:
                    79:dc:b2:6d:b6:7c:38:85:63:1c:09:54:fc:5c:37:
                    10:db:67:28:52:26:e3:12:f8:b0:50:28:bc:ec:0f:
                    07:c4:e5:22:35:bf:6a:fd:b0:32:66:43:06:99:9e:
                    14:6a:96:4e:2c:35:23:59:60:e3:71:3f:0f:55:65:
                    ab:7a:b3:bd:72:1a:c0:4b:2a:09:65:86:31:c6:71:
                    e0:5f:9e:7f:6e:87:b3:27:77:cb:7c:af:32:1b:8f:
                    f8:1a:36:79:10:5d:44:65:9e:73:13:a8:40:54:04:
                    e8:a8:77:1a:43:2b:99:2a:a0:67:00:c2:9a:9c:6c:
                    14:b5:04:e4:5f:f6:d3:d9:62:82:a8:5a:62:a6:9f:
                    24:5d:66:84:30:af:cc:6f:71:e1:77:57:b4:ad:ba:
                    6c:f1:d2:de:da:06:67:2f:a5:39:02:ed:0f:ba:3d:
                    21:30:94:b1:aa:72:4d:db:02:fb:48:92:60:b2:da:
                    6c:f6:e3:30:51:7e:11:b4:fc:c3:6b:9e:ca:10:2e:
                    cf:34:3f:9e:eb:69:eb:00:c4:14:ae:d6:05:18:65:
                    5e:bf
                Exponent: 65537 (0x10001)
        X509v3 extensions:
            Authority Information Access: 
                CA Issuers - URI:http://sub-ca.localhost/sub-ca.crt
                OCSP - URI:http://ocsp.sub-ca.localhost:9081
            X509v3 Authority Key Identifier: 
                4D:A1:8D:85:C1:C1:ED:E8:9A:39:B5:05:2D:3B:72:88:8F:77:D0:82
            X509v3 Basic Constraints: critical
                CA:FALSE
            X509v3 CRL Distribution Points: 
                Full Name:
                  URI:http://sub-ca.localhost/sub-ca.crl
            X509v3 Extended Key Usage: 
                TLS Web Client Authentication
            X509v3 Key Usage: critical
                Digital Signature
            X509v3 Subject Key Identifier: 
                86:B9:64:C0:AF:E6:7B:71:94:61:DC:4E:53:8D:38:9A:40:8C:57:FC
    Signature Algorithm: sha256WithRSAEncryption
    Signature Value:
        8e:9f:7a:01:25:dd:f9:c9:cb:25:2b:b2:ab:e0:10:d3:a7:30:
        cd:34:14:46:3c:94:41:ef:5e:4e:bb:79:d0:d8:f4:78:de:ae:
        59:c8:0a:46:8e:d4:b1:18:7c:23:39:92:eb:47:bc:90:7b:a0:
        48:23:4e:f3:08:fd:b7:56:a9:6e:d5:b7:8d:48:45:ce:6e:73:
        26:d1:82:0d:03:3a:28:17:f6:de:be:de:7c:db:3c:2c:73:10:
        4b:80:3f:00:33:2f:f4:c9:ac:78:2a:82:ec:97:8c:5b:4a:51:
        d9:2a:0a:85:18:0c:12:c2:9d:86:e5:b9:5b:95:33:12:10:c3:
        4d:f3:fd:9e:49:fa:0b:85:0c:4a:de:6a:e7:75:a1:36:84:54:
        b9:94:e0:f4:55:67:40:00:7b:7a:d4:51:72:a0:48:fe:8f:cd:
        4e:ea:93:1e:de:0a:dc:f5:48:87:95:87:35:30:6b:f9:74:98:
        ec:e6:f8:44:e2:48:9e:dc:95:ed:2c:61:d8:b1:0c:e1:06:31:
        97:53:90:d3:ae:76:81:b9:b5:96:6f:cd:74:ac:b7:50:25:65:
        67:79:3d:8f:4b:c8:e3:68:41:25:97:61:d6:da:f9:e2:28:f0:
        8a:d2:c8:6a:f6:cf:63:e6:d3:3a:fa:a4:82:43:56:45:81:b9:
        d4:c3:db:06
-----BEGIN CERTIFICATE-----
MIIELDCCAxSgAwIBAgIRAMiw7vAkAdeKHRRAO5D/RuQwDQYJKoZIhvcNAQELBQAw
QjELMAkGA1UEBhMCVVMxIjAgBgNVBAoMGVBvcnRsYW5kIFN0YXRlIFVuaXZlcnNp
dHkxDzANBgNVBAMMBlN1YiBDQTAeFw0yMjExMDgyMDM1MzBaFw0zMjExMDUyMDM1
MzBaMEIxCzAJBgNVBAYTAlVTMSIwIAYDVQQKDBlQb3J0bGFuZCBTdGF0ZSBVbml2
ZXJzaXR5MQ8wDQYDVQQDDAZTdWIgQ0EwggEiMA0GCSqGSIb3DQEBAQUAA4IBDwAw
ggEKAoIBAQCd8IM/u16dwp0Pbqj0imh7/pzwZSC7albT/zbutwSTBQUCCXGb6EEC
Chp9M3ncsm22fDiFYxwJVPxcNxDbZyhSJuMS+LBQKLzsDwfE5SI1v2r9sDJmQwaZ
nhRqlk4sNSNZYONxPw9VZat6s71yGsBLKgllhjHGceBfnn9uh7Mnd8t8rzIbj/ga
NnkQXURlnnMTqEBUBOiodxpDK5kqoGcAwpqcbBS1BORf9tPZYoKoWmKmnyRdZoQw
r8xvceF3V7Stumzx0t7aBmcvpTkC7Q+6PSEwlLGqck3bAvtIkmCy2mz24zBRfhG0
/MNrnsoQLs80P57raesAxBSu1gUYZV6/AgMBAAGjggEbMIIBFzBtBggrBgEFBQcB
AQRhMF8wLgYIKwYBBQUHMAKGImh0dHA6Ly9zdWItY2EubG9jYWxob3N0L3N1Yi1j
YS5jcnQwLQYIKwYBBQUHMAGGIWh0dHA6Ly9vY3NwLnN1Yi1jYS5sb2NhbGhvc3Q6
OTA4MTAfBgNVHSMEGDAWgBRNoY2FwcHt6Jo5tQUtO3KIj3fQgjAMBgNVHRMBAf8E
AjAAMDMGA1UdHwQsMCowKKAmoCSGImh0dHA6Ly9zdWItY2EubG9jYWxob3N0L3N1
Yi1jYS5jcmwwEwYDVR0lBAwwCgYIKwYBBQUHAwIwDgYDVR0PAQH/BAQDAgeAMB0G
A1UdDgQWBBSGuWTAr+Z7cZRh3E5TjTiaQIxX/DANBgkqhkiG9w0BAQsFAAOCAQEA
jp96ASXd+cnLJSuyq+AQ06cwzTQURjyUQe9eTrt50Nj0eN6uWcgKRo7UsRh8IzmS
60e8kHugSCNO8wj9t1apbtW3jUhFzm5zJtGCDQM6KBf23r7efNs8LHMQS4A/ADMv
9MmseCqC7JeMW0pR2SoKhRgMEsKdhuW5W5UzEhDDTfP9nkn6C4UMSt5q53WhNoRU
uZTg9FVnQAB7etRRcqBI/o/NTuqTHt4K3PVIh5WHNTBr+XSY7Ob4ROJIntyV7Sxh
2LEM4QYxl1OQ0652gbm1lm/NdKy3UCVlZ3k9j0vI42hBJZdh1tr54ijwitLIavbP
Y+bTOvqkgkNWRYG51MPbBg==
-----END CERTIFICATE-----
