Certificate:
    Data:
        Version: 3 (0x2)
        Serial Number:
            c8:b0:ee:f0:24:01:d7:8a:1d:14:40:3b:90:ff:46:f4
        Signature Algorithm: sha256WithRSAEncryption
        Issuer: C=US, O=Portland State University, CN=Sub CA
        Validity
            Not Before: Jun 19 16:06:06 2023 GMT
            Not After : Jun 16 16:06:06 2033 GMT
        Subject: C=US, O=Portland State University, CN=Sub CA
        Subject Public Key Info:
            Public Key Algorithm: rsaEncryption
                Public-Key: (2048 bit)
                Modulus:
                    00:94:b3:13:31:1c:ad:7f:43:99:11:09:1d:08:85:
                    93:f8:85:fc:d4:09:82:fb:e4:f7:06:2c:8b:9c:29:
                    09:f9:b3:36:62:c6:05:6a:bd:b1:df:c3:49:5f:ed:
                    72:1d:7b:c8:a3:5b:bc:3e:16:fa:58:22:5c:dd:6f:
                    51:9e:ff:d2:8e:89:3c:08:dc:24:69:5f:5c:64:49:
                    ea:ce:9d:b5:d9:4b:d4:1f:88:5d:75:04:fb:ff:b1:
                    ad:b8:af:77:43:2f:dd:63:fc:bb:b3:b3:6f:31:b8:
                    84:55:ee:5e:b7:84:e4:dd:62:2f:e9:c3:cc:fb:9e:
                    af:4f:a9:a6:d9:d3:72:4a:61:5f:da:68:62:da:f0:
                    67:5a:ec:b3:76:b3:e7:32:e1:b6:96:aa:24:d0:8a:
                    8e:3e:09:e1:c5:d7:1b:2f:ca:7b:73:90:95:42:3d:
                    f8:52:dc:79:39:a8:b2:53:59:14:d8:0b:41:1d:8c:
                    2d:a5:31:16:0e:29:13:0a:fc:d3:53:df:a1:4d:75:
                    31:56:68:58:09:e8:86:5d:04:ac:73:33:d3:62:b3:
                    27:7e:ba:dc:6f:7a:a1:62:7a:ee:a0:6a:8b:3a:1b:
                    39:24:46:ab:2e:75:97:01:15:7e:c9:ad:0c:70:5d:
                    be:08:9b:9b:ef:65:bf:5c:d5:2b:b6:c0:19:eb:1a:
                    43:ad
                Exponent: 65537 (0x10001)
        X509v3 extensions:
            Authority Information Access: 
                CA Issuers - URI:http://sub-ca.localhost/sub-ca.crt
                OCSP - URI:http://ocsp.sub-ca.localhost:9081
            X509v3 Authority Key Identifier: 
                4D:A1:8D:85:C1:C1:ED:E8:9A:39:B5:05:2D:3B:72:88:8F:77:D0:82
            X509v3 Basic Constraints: critical
                CA:FALSE
            X509v3 CRL Distribution Points: 
                Full Name:
                  URI:http://sub-ca.localhost/sub-ca.crl
            X509v3 Extended Key Usage: 
                TLS Web Client Authentication
            X509v3 Key Usage: critical
                Digital Signature
            X509v3 Subject Key Identifier: 
                E7:A1:5D:5B:DA:0C:A3:59:FC:5E:68:55:CE:C4:B0:73:E9:6C:06:E5
    Signature Algorithm: sha256WithRSAEncryption
    Signature Value:
        74:c9:97:61:94:0a:12:eb:24:95:07:fb:63:e5:b3:a9:85:f9:
        cd:2f:dc:b4:d4:4f:2a:d4:99:56:7b:76:8a:03:70:5f:50:9b:
        96:bf:0e:34:46:aa:fd:a2:c0:6d:e4:d0:4f:ce:ce:56:73:42:
        fd:6c:3a:ed:25:b5:62:67:1b:09:06:02:37:4d:2b:4f:ce:72:
        35:e1:aa:1c:2f:9b:60:6b:bb:ae:90:80:62:59:45:c6:5b:ba:
        8d:17:5c:00:49:fd:24:0f:a6:9c:c0:ca:5e:f7:01:23:9a:97:
        26:8c:db:66:bc:3f:65:4a:54:0a:05:c4:ec:3f:e0:b0:05:a8:
        38:ec:89:f3:5c:91:81:f3:a6:ac:65:f7:ce:ce:ac:14:5d:9d:
        17:5f:84:56:a4:35:d3:82:b6:12:ac:9c:2b:65:f5:80:35:c9:
        8a:4c:62:4a:e8:c5:b4:bd:87:60:bf:11:42:4e:51:66:12:c1:
        1c:ac:dd:b0:42:71:07:c3:78:b5:af:e3:8e:10:24:7e:3e:c8:
        ec:39:7d:0c:ff:7f:7f:5d:79:39:7f:ca:f6:1e:3a:da:55:0b:
        15:00:62:83:17:d3:48:9f:19:0c:58:83:c9:a0:52:42:85:fd:
        2b:24:16:bd:85:f5:01:fb:34:7a:86:0a:b2:52:b2:cd:b0:ae:
        eb:78:32:ec
-----BEGIN CERTIFICATE-----
MIIELDCCAxSgAwIBAgIRAMiw7vAkAdeKHRRAO5D/RvQwDQYJKoZIhvcNAQELBQAw
QjELMAkGA1UEBhMCVVMxIjAgBgNVBAoMGVBvcnRsYW5kIFN0YXRlIFVuaXZlcnNp
dHkxDzANBgNVBAMMBlN1YiBDQTAeFw0yMzA2MTkxNjA2MDZaFw0zMzA2MTYxNjA2
MDZaMEIxCzAJBgNVBAYTAlVTMSIwIAYDVQQKDBlQb3J0bGFuZCBTdGF0ZSBVbml2
ZXJzaXR5MQ8wDQYDVQQDDAZTdWIgQ0EwggEiMA0GCSqGSIb3DQEBAQUAA4IBDwAw
ggEKAoIBAQCUsxMxHK1/Q5kRCR0IhZP4hfzUCYL75PcGLIucKQn5szZixgVqvbHf
w0lf7XIde8ijW7w+FvpYIlzdb1Ge/9KOiTwI3CRpX1xkSerOnbXZS9QfiF11BPv/
sa24r3dDL91j/Luzs28xuIRV7l63hOTdYi/pw8z7nq9PqabZ03JKYV/aaGLa8Gda
7LN2s+cy4baWqiTQio4+CeHF1xsvyntzkJVCPfhS3Hk5qLJTWRTYC0EdjC2lMRYO
KRMK/NNT36FNdTFWaFgJ6IZdBKxzM9Nisyd+utxveqFieu6gaos6GzkkRqsudZcB
FX7JrQxwXb4Im5vvZb9c1Su2wBnrGkOtAgMBAAGjggEbMIIBFzBtBggrBgEFBQcB
AQRhMF8wLgYIKwYBBQUHMAKGImh0dHA6Ly9zdWItY2EubG9jYWxob3N0L3N1Yi1j
YS5jcnQwLQYIKwYBBQUHMAGGIWh0dHA6Ly9vY3NwLnN1Yi1jYS5sb2NhbGhvc3Q6
OTA4MTAfBgNVHSMEGDAWgBRNoY2FwcHt6Jo5tQUtO3KIj3fQgjAMBgNVHRMBAf8E
AjAAMDMGA1UdHwQsMCowKKAmoCSGImh0dHA6Ly9zdWItY2EubG9jYWxob3N0L3N1
Yi1jYS5jcmwwEwYDVR0lBAwwCgYIKwYBBQUHAwIwDgYDVR0PAQH/BAQDAgeAMB0G
A1UdDgQWBBTnoV1b2gyjWfxeaFXOxLBz6WwG5TANBgkqhkiG9w0BAQsFAAOCAQEA
dMmXYZQKEusklQf7Y+WzqYX5zS/ctNRPKtSZVnt2igNwX1Cblr8ONEaq/aLAbeTQ
T87OVnNC/Ww67SW1YmcbCQYCN00rT85yNeGqHC+bYGu7rpCAYllFxlu6jRdcAEn9
JA+mnMDKXvcBI5qXJozbZrw/ZUpUCgXE7D/gsAWoOOyJ81yRgfOmrGX3zs6sFF2d
F1+EVqQ104K2EqycK2X1gDXJikxiSujFtL2HYL8RQk5RZhLBHKzdsEJxB8N4ta/j
jhAkfj7I7Dl9DP9/f115OX/K9h462lULFQBigxfTSJ8ZDFiDyaBSQoX9KyQWvYX1
Afs0eoYKslKyzbCu63gy7A==
-----END CERTIFICATE-----
