Certificate:
    Data:
        Version: 3 (0x2)
        Serial Number:
            c8:b0:ee:f0:24:01:d7:8a:1d:14:40:3b:90:ff:47:25
        Signature Algorithm: sha256WithRSAEncryption
        Issuer: C=US, O=Portland State University, CN=Sub CA
        Validity
            Not Before: Jun 19 16:06:13 2023 GMT
            Not After : Jun 16 16:06:13 2033 GMT
        Subject: C=US, O=Portland State University, CN=Sub CA
        Subject Public Key Info:
            Public Key Algorithm: rsaEncryption
                Public-Key: (2048 bit)
                Modulus:
                    00:8a:75:9d:1b:7b:83:32:60:29:5d:26:2f:65:f7:
                    c9:79:ed:1c:7f:f2:52:75:b2:9d:13:5e:ef:26:fa:
                    a9:81:2f:3d:9b:1d:5e:59:ce:e2:08:38:1d:f5:4a:
                    8d:b1:08:d8:44:8d:7c:a6:76:d4:b2:5a:45:49:2c:
                    9b:cb:e6:dc:62:b7:1c:78:16:a6:b6:6c:ef:91:63:
                    50:70:08:c5:ff:9d:64:ea:b5:e5:00:7b:45:05:20:
                    75:05:6f:42:d2:f7:6d:89:b1:d4:7e:dd:8b:82:70:
                    38:5a:5d:81:0b:cb:f4:bb:dd:52:71:8d:d6:b8:23:
                    14:cd:3f:4b:e4:1e:e3:83:76:9d:a7:47:1b:29:ae:
                    f3:1d:d0:67:ba:30:40:27:9f:59:a6:39:82:4b:29:
                    0c:23:d9:30:dd:c9:11:e0:b5:91:99:ce:f5:c0:f5:
                    bf:b0:18:1b:1e:ae:82:b7:3d:7e:87:21:18:5d:9c:
                    7b:01:1c:23:98:b5:e8:b8:77:aa:d7:5a:51:94:bb:
                    8a:c3:17:fe:9d:1f:b6:ba:7f:c4:e0:16:16:a8:72:
                    62:a7:af:df:0e:a6:ad:59:e1:e1:f4:3d:35:78:77:
                    23:75:49:70:58:f8:05:82:e0:87:0c:86:ea:0e:2a:
                    00:74:f3:b7:f6:31:d8:b3:b9:4c:05:d2:82:15:88:
                    7c:6f
                Exponent: 65537 (0x10001)
        X509v3 extensions:
            Authority Information Access: 
                CA Issuers - URI:http://sub-ca.localhost/sub-ca.crt
                OCSP - URI:http://ocsp.sub-ca.localhost:9081
            X509v3 Authority Key Identifier: 
                4D:A1:8D:85:C1:C1:ED:E8:9A:39:B5:05:2D:3B:72:88:8F:77:D0:82
            X509v3 Basic Constraints: critical
                CA:FALSE
            X509v3 CRL Distribution Points: 
                Full Name:
                  URI:http://sub-ca.localhost/sub-ca.crl
            X509v3 Extended Key Usage: 
                TLS Web Client Authentication
            X509v3 Key Usage: critical
                Digital Signature
            X509v3 Subject Key Identifier: 
                1E:52:C3:AB:1C:60:F0:A3:CB:1F:67:49:AD:16:46:D8:0B:6C:F6:20
    Signature Algorithm: sha256WithRSAEncryption
    Signature Value:
        9b:66:15:1b:5e:fa:af:e5:fe:a5:fe:ef:16:59:67:48:f1:75:
        f6:64:7a:7f:14:3b:26:25:ec:a3:8d:a1:c4:ae:87:9f:dc:24:
        75:29:2b:0a:e6:73:a2:3a:d8:fd:69:76:c6:65:d2:ae:81:26:
        b6:ee:19:16:7e:bb:c5:f1:ba:2b:8b:e4:85:8d:a0:e7:33:31:
        42:bc:15:73:10:48:a6:5f:68:e1:71:b9:46:8b:cb:35:91:00:
        26:7a:63:9d:90:16:59:6c:58:dd:45:ea:d5:d0:49:20:1d:b7:
        55:db:01:56:8b:c9:93:c2:d3:1e:30:1e:d8:43:90:ce:d1:24:
        e9:ae:3e:5d:72:66:34:62:ed:ac:af:b1:0e:57:26:f9:8f:1b:
        b0:29:26:c0:54:8f:0b:70:24:ac:5f:cd:b7:06:60:b9:4e:bc:
        f4:40:ae:3f:0c:f4:40:05:20:d8:91:30:fa:62:5d:19:a6:57:
        06:a4:6a:2f:88:f8:9f:7a:94:d8:00:7a:6d:e3:a4:0f:04:fb:
        fa:9a:66:44:9c:ed:82:f8:27:16:93:e1:68:39:fe:f5:90:5b:
        a7:73:f9:17:b0:9a:c9:8a:d1:d0:3a:9c:d1:51:d0:cd:a4:53:
        58:b6:5e:f8:42:4f:18:83:5e:ea:de:f5:c3:33:93:54:ce:17:
        ac:ea:ac:f3
-----BEGIN CERTIFICATE-----
MIIELDCCAxSgAwIBAgIRAMiw7vAkAdeKHRRAO5D/RyUwDQYJKoZIhvcNAQELBQAw
QjELMAkGA1UEBhMCVVMxIjAgBgNVBAoMGVBvcnRsYW5kIFN0YXRlIFVuaXZlcnNp
dHkxDzANBgNVBAMMBlN1YiBDQTAeFw0yMzA2MTkxNjA2MTNaFw0zMzA2MTYxNjA2
MTNaMEIxCzAJBgNVBAYTAlVTMSIwIAYDVQQKDBlQb3J0bGFuZCBTdGF0ZSBVbml2
ZXJzaXR5MQ8wDQYDVQQDDAZTdWIgQ0EwggEiMA0GCSqGSIb3DQEBAQUAA4IBDwAw
ggEKAoIBAQCKdZ0be4MyYCldJi9l98l57Rx/8lJ1sp0TXu8m+qmBLz2bHV5ZzuII
OB31So2xCNhEjXymdtSyWkVJLJvL5txitxx4Fqa2bO+RY1BwCMX/nWTqteUAe0UF
IHUFb0LS922JsdR+3YuCcDhaXYELy/S73VJxjda4IxTNP0vkHuODdp2nRxsprvMd
0Ge6MEAnn1mmOYJLKQwj2TDdyRHgtZGZzvXA9b+wGBseroK3PX6HIRhdnHsBHCOY
tei4d6rXWlGUu4rDF/6dH7a6f8TgFhaocmKnr98Opq1Z4eH0PTV4dyN1SXBY+AWC
4IcMhuoOKgB087f2MdizuUwF0oIViHxvAgMBAAGjggEbMIIBFzBtBggrBgEFBQcB
AQRhMF8wLgYIKwYBBQUHMAKGImh0dHA6Ly9zdWItY2EubG9jYWxob3N0L3N1Yi1j
YS5jcnQwLQYIKwYBBQUHMAGGIWh0dHA6Ly9vY3NwLnN1Yi1jYS5sb2NhbGhvc3Q6
OTA4MTAfBgNVHSMEGDAWgBRNoY2FwcHt6Jo5tQUtO3KIj3fQgjAMBgNVHRMBAf8E
AjAAMDMGA1UdHwQsMCowKKAmoCSGImh0dHA6Ly9zdWItY2EubG9jYWxob3N0L3N1
Yi1jYS5jcmwwEwYDVR0lBAwwCgYIKwYBBQUHAwIwDgYDVR0PAQH/BAQDAgeAMB0G
A1UdDgQWBBQeUsOrHGDwo8sfZ0mtFkbYC2z2IDANBgkqhkiG9w0BAQsFAAOCAQEA
m2YVG176r+X+pf7vFllnSPF19mR6fxQ7JiXso42hxK6Hn9wkdSkrCuZzojrY/Wl2
xmXSroEmtu4ZFn67xfG6K4vkhY2g5zMxQrwVcxBIpl9o4XG5RovLNZEAJnpjnZAW
WWxY3UXq1dBJIB23VdsBVovJk8LTHjAe2EOQztEk6a4+XXJmNGLtrK+xDlcm+Y8b
sCkmwFSPC3AkrF/NtwZguU689ECuPwz0QAUg2JEw+mJdGaZXBqRqL4j4n3qU2AB6
beOkDwT7+ppmRJztgvgnFpPhaDn+9ZBbp3P5F7CayYrR0Dqc0VHQzaRTWLZe+EJP
GINe6t71wzOTVM4XrOqs8w==
-----END CERTIFICATE-----
