Certificate:
    Data:
        Version: 3 (0x2)
        Serial Number:
            c8:b0:ee:f0:24:01:d7:8a:1d:14:40:3b:90:ff:46:f7
        Signature Algorithm: sha256WithRSAEncryption
        Issuer: C=US, O=Portland State University, CN=Sub CA
        Validity
            Not Before: Jun 19 16:06:06 2023 GMT
            Not After : Jun 16 16:06:06 2033 GMT
        Subject: C=US, O=Portland State University, CN=Sub CA
        Subject Public Key Info:
            Public Key Algorithm: rsaEncryption
                Public-Key: (2048 bit)
                Modulus:
                    00:da:c6:83:89:29:0a:cc:33:30:4a:54:a9:48:f3:
                    f0:ca:d1:3e:b7:07:3b:b4:35:fe:77:82:79:ee:65:
                    bb:3d:63:08:52:ae:d4:29:92:c2:e3:50:82:d1:f4:
                    7b:63:20:d5:60:5f:1d:29:94:77:8b:13:c9:4d:7b:
                    d9:f7:d1:d3:59:04:e3:18:85:5e:eb:4a:b2:2c:13:
                    bb:16:52:ea:3f:d0:17:19:c7:3f:b1:e6:c8:c8:ae:
                    10:b6:48:f1:f7:44:65:7a:2d:4d:f1:e7:7c:3e:89:
                    52:a5:e8:3b:45:65:f3:79:27:cd:60:81:d8:7d:3d:
                    54:da:3e:1c:c4:ed:fd:de:a7:b0:06:99:74:0f:73:
                    3a:a9:bf:0e:8c:e7:bf:c5:4e:01:65:67:95:e4:08:
                    44:34:95:d9:80:6e:87:19:5a:96:c2:b7:86:ed:e8:
                    32:87:e0:57:b1:f2:81:ba:7f:28:3c:7e:75:50:f7:
                    8c:c8:1f:02:8b:2e:37:0d:74:46:e0:d8:33:f7:d1:
                    be:90:4f:ba:e9:2d:3d:af:15:7d:b2:1c:84:c2:56:
                    78:f5:f1:4e:50:0c:ed:cd:23:a5:ef:f7:7c:68:f3:
                    6f:c3:9a:df:39:e2:57:b4:ca:b9:8a:ce:ec:f1:7e:
                    af:dd:d2:db:da:32:66:c2:e3:1c:1c:8e:06:39:d1:
                    74:17
                Exponent: 65537 (0x10001)
        X509v3 extensions:
            Authority Information Access: 
                CA Issuers - URI:http://sub-ca.localhost/sub-ca.crt
                OCSP - URI:http://ocsp.sub-ca.localhost:9081
            X509v3 Authority Key Identifier: 
                4D:A1:8D:85:C1:C1:ED:E8:9A:39:B5:05:2D:3B:72:88:8F:77:D0:82
            X509v3 Basic Constraints: critical
                CA:FALSE
            X509v3 CRL Distribution Points: 
                Full Name:
                  URI:http://sub-ca.localhost/sub-ca.crl
            X509v3 Extended Key Usage: 
                TLS Web Client Authentication
            X509v3 Key Usage: critical
                Digital Signature
            X509v3 Subject Key Identifier: 
                7B:3A:B7:80:8D:0E:86:D4:30:01:01:87:DD:70:10:79:7B:36:A2:3B
    Signature Algorithm: sha256WithRSAEncryption
    Signature Value:
        17:99:f7:52:42:38:b4:78:85:99:b0:b8:9b:27:d4:b3:c0:84:
        c9:5b:d2:cf:e6:25:82:15:8b:d1:c1:68:ab:33:c4:dd:84:30:
        c8:c1:36:6b:58:c8:24:3f:41:02:ab:fc:5a:e3:01:b5:9d:c7:
        0b:0b:77:64:7f:59:5c:f0:de:b1:2f:7f:3b:0f:af:36:5d:dc:
        38:76:8c:26:9d:29:fc:a7:9a:a0:33:1d:88:6b:89:25:e9:57:
        5a:d0:18:06:93:b6:22:b7:71:38:ac:a2:af:01:62:d5:83:95:
        43:b6:fe:99:18:32:8e:6b:e5:1d:b6:ef:ff:32:bb:e0:f8:7f:
        ae:bd:24:24:dd:d1:7e:fa:5a:be:65:3a:9b:72:d2:e0:0e:59:
        93:d4:f4:ec:fa:53:af:92:91:60:12:1f:f9:b5:5e:9d:cf:db:
        89:e5:da:cb:09:a7:6c:17:64:12:36:bd:66:2e:1a:cf:6e:0a:
        9b:d7:4d:4e:ec:d7:3e:6f:e4:2d:4e:6e:3c:74:f0:56:c3:f9:
        0d:e5:9f:06:96:be:ca:ae:e2:f2:27:eb:2f:20:dc:76:d7:8a:
        71:17:7b:a3:94:bb:b2:ca:8c:d1:db:fc:78:b0:a0:ce:ec:c0:
        1a:02:f2:d6:8b:10:96:3b:aa:48:2c:a8:4b:8a:6a:1d:d5:35:
        87:20:04:d0
-----BEGIN CERTIFICATE-----
MIIELDCCAxSgAwIBAgIRAMiw7vAkAdeKHRRAO5D/RvcwDQYJKoZIhvcNAQELBQAw
QjELMAkGA1UEBhMCVVMxIjAgBgNVBAoMGVBvcnRsYW5kIFN0YXRlIFVuaXZlcnNp
dHkxDzANBgNVBAMMBlN1YiBDQTAeFw0yMzA2MTkxNjA2MDZaFw0zMzA2MTYxNjA2
MDZaMEIxCzAJBgNVBAYTAlVTMSIwIAYDVQQKDBlQb3J0bGFuZCBTdGF0ZSBVbml2
ZXJzaXR5MQ8wDQYDVQQDDAZTdWIgQ0EwggEiMA0GCSqGSIb3DQEBAQUAA4IBDwAw
ggEKAoIBAQDaxoOJKQrMMzBKVKlI8/DK0T63Bzu0Nf53gnnuZbs9YwhSrtQpksLj
UILR9HtjINVgXx0plHeLE8lNe9n30dNZBOMYhV7rSrIsE7sWUuo/0BcZxz+x5sjI
rhC2SPH3RGV6LU3x53w+iVKl6DtFZfN5J81ggdh9PVTaPhzE7f3ep7AGmXQPczqp
vw6M57/FTgFlZ5XkCEQ0ldmAbocZWpbCt4bt6DKH4Fex8oG6fyg8fnVQ94zIHwKL
LjcNdEbg2DP30b6QT7rpLT2vFX2yHITCVnj18U5QDO3NI6Xv93xo82/Dmt854le0
yrmKzuzxfq/d0tvaMmbC4xwcjgY50XQXAgMBAAGjggEbMIIBFzBtBggrBgEFBQcB
AQRhMF8wLgYIKwYBBQUHMAKGImh0dHA6Ly9zdWItY2EubG9jYWxob3N0L3N1Yi1j
YS5jcnQwLQYIKwYBBQUHMAGGIWh0dHA6Ly9vY3NwLnN1Yi1jYS5sb2NhbGhvc3Q6
OTA4MTAfBgNVHSMEGDAWgBRNoY2FwcHt6Jo5tQUtO3KIj3fQgjAMBgNVHRMBAf8E
AjAAMDMGA1UdHwQsMCowKKAmoCSGImh0dHA6Ly9zdWItY2EubG9jYWxob3N0L3N1
Yi1jYS5jcmwwEwYDVR0lBAwwCgYIKwYBBQUHAwIwDgYDVR0PAQH/BAQDAgeAMB0G
A1UdDgQWBBR7OreAjQ6G1DABAYfdcBB5ezaiOzANBgkqhkiG9w0BAQsFAAOCAQEA
F5n3UkI4tHiFmbC4myfUs8CEyVvSz+YlghWL0cFoqzPE3YQwyME2a1jIJD9BAqv8
WuMBtZ3HCwt3ZH9ZXPDesS9/Ow+vNl3cOHaMJp0p/KeaoDMdiGuJJelXWtAYBpO2
IrdxOKyirwFi1YOVQ7b+mRgyjmvlHbbv/zK74Ph/rr0kJN3RfvpavmU6m3LS4A5Z
k9T07PpTr5KRYBIf+bVenc/bieXaywmnbBdkEja9Zi4az24Km9dNTuzXPm/kLU5u
PHTwVsP5DeWfBpa+yq7i8ifrLyDcdteKcRd7o5S7ssqM0dv8eLCgzuzAGgLy1osQ
ljuqSCyoS4pqHdU1hyAE0A==
-----END CERTIFICATE-----
