Certificate:
    Data:
        Version: 3 (0x2)
        Serial Number:
            c8:b0:ee:f0:24:01:d7:8a:1d:14:40:3b:90:ff:47:33
        Signature Algorithm: sha256WithRSAEncryption
        Issuer: C=US, O=Portland State University, CN=Sub CA
        Validity
            Not Before: Jun 19 16:06:15 2023 GMT
            Not After : Jun 16 16:06:15 2033 GMT
        Subject: C=US, O=Portland State University, CN=Sub CA
        Subject Public Key Info:
            Public Key Algorithm: rsaEncryption
                Public-Key: (2048 bit)
                Modulus:
                    00:9c:75:5d:ee:4c:96:59:95:03:0c:38:cc:08:03:
                    f2:c5:c3:01:d4:7b:e9:bc:6e:f5:90:67:76:fc:8f:
                    5b:bd:9c:0e:17:25:cb:e7:f2:18:2f:5e:e8:84:a1:
                    5e:3c:8f:69:52:24:78:56:72:02:54:26:24:b3:e9:
                    f7:fe:0f:19:23:c9:f1:50:c6:06:8a:d9:ce:55:01:
                    5c:c7:2c:06:03:41:7b:3b:db:63:54:4f:27:1a:84:
                    f6:5c:d7:72:b3:7a:fc:19:c7:ee:20:d3:59:1d:f8:
                    6d:87:b0:d9:df:37:5c:84:7b:af:e5:96:61:fb:e5:
                    5b:c0:14:2e:34:68:0b:9c:c1:19:13:4a:5c:71:d4:
                    83:4d:e1:77:10:b0:b5:8b:3b:10:f6:f0:d7:c8:86:
                    47:78:ad:94:57:b1:ae:5b:39:1f:d0:04:54:a0:62:
                    09:ea:cf:ad:d5:14:9b:c1:b2:94:c1:61:c3:9a:10:
                    d5:df:cd:e4:45:78:43:2b:6c:d8:80:ec:05:d4:7e:
                    4d:bc:a9:32:b8:fa:c2:fb:44:ab:2a:71:59:d7:72:
                    e8:61:9c:83:56:ab:83:dd:e9:f5:39:9f:76:4d:82:
                    6f:5f:2d:d8:c1:bd:c4:5a:45:4c:82:47:0b:91:7a:
                    c2:8a:f0:06:54:85:2a:c4:5b:c6:71:7c:75:4c:94:
                    44:45
                Exponent: 65537 (0x10001)
        X509v3 extensions:
            Authority Information Access: 
                CA Issuers - URI:http://sub-ca.localhost/sub-ca.crt
                OCSP - URI:http://ocsp.sub-ca.localhost:9081
            X509v3 Authority Key Identifier: 
                4D:A1:8D:85:C1:C1:ED:E8:9A:39:B5:05:2D:3B:72:88:8F:77:D0:82
            X509v3 Basic Constraints: critical
                CA:FALSE
            X509v3 CRL Distribution Points: 
                Full Name:
                  URI:http://sub-ca.localhost/sub-ca.crl
            X509v3 Extended Key Usage: 
                TLS Web Client Authentication
            X509v3 Key Usage: critical
                Digital Signature
            X509v3 Subject Key Identifier: 
                FF:29:1B:F9:1C:A1:0C:97:61:BB:ED:C4:26:98:FB:77:26:ED:3D:50
    Signature Algorithm: sha256WithRSAEncryption
    Signature Value:
        0d:78:86:c2:5b:2b:7a:3a:33:1e:f6:94:59:0d:88:4d:53:45:
        f6:9b:6e:a4:d6:f5:65:ed:4f:fe:f3:00:fb:ca:22:7f:1c:09:
        e8:ff:f8:d5:f3:6d:32:b3:58:12:71:07:e0:ad:40:30:fc:9b:
        1f:d8:bc:08:61:97:97:60:c1:05:32:9c:fe:ca:e2:cc:b3:4c:
        da:e8:2c:a7:f6:6d:21:7e:b1:aa:9b:72:d3:c1:07:54:83:fb:
        0d:91:1f:5a:fc:53:ce:e3:b4:68:67:82:88:f2:cf:de:2a:1b:
        a6:a0:62:aa:f0:90:d7:35:19:14:ac:7d:eb:6e:9c:c7:48:a2:
        8d:6e:fd:38:09:56:ed:6d:56:a0:e6:72:0a:21:c7:71:7e:6d:
        6c:18:70:0b:13:5e:e6:2e:e6:52:34:f8:91:f0:09:da:f1:6c:
        6f:d3:86:f9:8a:73:b7:24:63:d3:26:27:f9:f4:77:f4:6e:21:
        82:6b:08:15:8a:5f:42:d2:84:ca:89:b6:4d:0b:77:ed:6c:2a:
        14:8d:2a:2f:62:56:2e:c1:00:ac:3d:b5:75:14:9b:69:44:9f:
        96:65:60:08:29:2a:5b:2b:c4:88:2d:37:a3:8e:cb:d3:d1:7f:
        2d:00:dc:6d:48:7c:8e:56:e6:fd:28:05:b5:93:13:f4:1c:a5:
        4e:9d:39:66
-----BEGIN CERTIFICATE-----
MIIELDCCAxSgAwIBAgIRAMiw7vAkAdeKHRRAO5D/RzMwDQYJKoZIhvcNAQELBQAw
QjELMAkGA1UEBhMCVVMxIjAgBgNVBAoMGVBvcnRsYW5kIFN0YXRlIFVuaXZlcnNp
dHkxDzANBgNVBAMMBlN1YiBDQTAeFw0yMzA2MTkxNjA2MTVaFw0zMzA2MTYxNjA2
MTVaMEIxCzAJBgNVBAYTAlVTMSIwIAYDVQQKDBlQb3J0bGFuZCBTdGF0ZSBVbml2
ZXJzaXR5MQ8wDQYDVQQDDAZTdWIgQ0EwggEiMA0GCSqGSIb3DQEBAQUAA4IBDwAw
ggEKAoIBAQCcdV3uTJZZlQMMOMwIA/LFwwHUe+m8bvWQZ3b8j1u9nA4XJcvn8hgv
XuiEoV48j2lSJHhWcgJUJiSz6ff+DxkjyfFQxgaK2c5VAVzHLAYDQXs722NUTyca
hPZc13KzevwZx+4g01kd+G2HsNnfN1yEe6/llmH75VvAFC40aAucwRkTSlxx1INN
4XcQsLWLOxD28NfIhkd4rZRXsa5bOR/QBFSgYgnqz63VFJvBspTBYcOaENXfzeRF
eEMrbNiA7AXUfk28qTK4+sL7RKsqcVnXcuhhnINWq4Pd6fU5n3ZNgm9fLdjBvcRa
RUyCRwuResKK8AZUhSrEW8ZxfHVMlERFAgMBAAGjggEbMIIBFzBtBggrBgEFBQcB
AQRhMF8wLgYIKwYBBQUHMAKGImh0dHA6Ly9zdWItY2EubG9jYWxob3N0L3N1Yi1j
YS5jcnQwLQYIKwYBBQUHMAGGIWh0dHA6Ly9vY3NwLnN1Yi1jYS5sb2NhbGhvc3Q6
OTA4MTAfBgNVHSMEGDAWgBRNoY2FwcHt6Jo5tQUtO3KIj3fQgjAMBgNVHRMBAf8E
AjAAMDMGA1UdHwQsMCowKKAmoCSGImh0dHA6Ly9zdWItY2EubG9jYWxob3N0L3N1
Yi1jYS5jcmwwEwYDVR0lBAwwCgYIKwYBBQUHAwIwDgYDVR0PAQH/BAQDAgeAMB0G
A1UdDgQWBBT/KRv5HKEMl2G77cQmmPt3Ju09UDANBgkqhkiG9w0BAQsFAAOCAQEA
DXiGwlsrejozHvaUWQ2ITVNF9ptupNb1Ze1P/vMA+8oifxwJ6P/41fNtMrNYEnEH
4K1AMPybH9i8CGGXl2DBBTKc/srizLNM2ugsp/ZtIX6xqpty08EHVIP7DZEfWvxT
zuO0aGeCiPLP3iobpqBiqvCQ1zUZFKx9626cx0iijW79OAlW7W1WoOZyCiHHcX5t
bBhwCxNe5i7mUjT4kfAJ2vFsb9OG+YpztyRj0yYn+fR39G4hgmsIFYpfQtKEyom2
TQt37WwqFI0qL2JWLsEArD21dRSbaUSflmVgCCkqWyvEiC03o47L09F/LQDcbUh8
jlbm/SgFtZMT9BylTp05Zg==
-----END CERTIFICATE-----
