Certificate:
    Data:
        Version: 3 (0x2)
        Serial Number:
            c8:b0:ee:f0:24:01:d7:8a:1d:14:40:3b:90:ff:47:38
        Signature Algorithm: sha256WithRSAEncryption
        Issuer: C=US, O=Portland State University, CN=Sub CA
        Validity
            Not Before: Jun 19 16:06:16 2023 GMT
            Not After : Jun 16 16:06:16 2033 GMT
        Subject: C=US, O=Portland State University, CN=Sub CA
        Subject Public Key Info:
            Public Key Algorithm: rsaEncryption
                Public-Key: (2048 bit)
                Modulus:
                    00:bf:01:6a:85:60:11:90:55:81:55:0f:40:a5:94:
                    e5:31:c4:97:43:b6:a9:f2:6e:38:a1:35:4d:34:36:
                    68:9f:2b:38:7b:92:af:71:03:fa:2d:85:70:6c:b6:
                    f2:54:85:a6:9f:1f:97:11:5a:b5:fa:e4:f8:5b:2b:
                    7c:de:4c:9a:f0:71:a0:88:63:4d:24:6f:86:cd:29:
                    ff:bd:da:9a:91:d0:62:36:0a:09:20:69:9d:98:8a:
                    74:17:33:be:f8:60:af:57:c8:b9:02:e1:e2:4c:50:
                    52:be:7d:0f:ab:8a:e4:d0:87:a7:0f:d3:a8:63:e8:
                    f3:56:da:79:27:ca:b5:9d:07:f9:95:76:1c:a4:fd:
                    05:c2:94:2a:da:f2:8d:f1:b2:71:6c:c9:bb:89:c5:
                    2f:7f:7c:bc:c8:1a:8d:2f:24:52:56:62:92:8d:81:
                    9e:e6:28:e0:e4:4e:14:3f:64:b7:d5:48:65:9e:1e:
                    59:ba:23:98:da:60:f4:a7:1a:11:cc:0e:c7:5b:46:
                    d4:d3:20:4b:8f:37:84:51:8f:37:cb:75:39:87:e7:
                    4c:b3:17:7b:3f:f4:35:d4:cc:90:f6:64:3c:24:59:
                    a5:d2:87:e8:bf:5d:32:ab:16:04:9b:70:63:10:42:
                    ca:10:63:87:9d:68:be:eb:bb:2f:67:b4:65:34:a7:
                    41:cb
                Exponent: 65537 (0x10001)
        X509v3 extensions:
            Authority Information Access: 
                CA Issuers - URI:http://sub-ca.localhost/sub-ca.crt
                OCSP - URI:http://ocsp.sub-ca.localhost:9081
            X509v3 Authority Key Identifier: 
                4D:A1:8D:85:C1:C1:ED:E8:9A:39:B5:05:2D:3B:72:88:8F:77:D0:82
            X509v3 Basic Constraints: critical
                CA:FALSE
            X509v3 CRL Distribution Points: 
                Full Name:
                  URI:http://sub-ca.localhost/sub-ca.crl
            X509v3 Extended Key Usage: 
                TLS Web Client Authentication
            X509v3 Key Usage: critical
                Digital Signature
            X509v3 Subject Key Identifier: 
                54:96:D7:CE:67:6A:AB:79:41:5A:76:B7:C3:E7:2C:50:0D:FF:75:41
    Signature Algorithm: sha256WithRSAEncryption
    Signature Value:
        36:3b:21:4e:c6:12:95:1c:87:59:b0:36:01:81:71:6a:39:23:
        0e:ed:ad:9b:4c:55:b6:62:8f:85:84:e0:da:2b:ca:06:d8:35:
        36:6a:18:22:cd:a3:48:52:02:2c:69:7d:8c:64:59:d0:69:66:
        65:c5:8c:c4:a8:f7:d9:54:22:56:21:76:4a:f6:a5:b3:a3:26:
        65:5b:ec:63:e6:33:3a:e6:74:96:30:66:b3:a7:8e:4f:20:fd:
        24:05:f2:28:06:0c:17:fb:2b:77:14:f7:1d:48:51:fb:e5:b1:
        81:1f:24:58:7b:a0:05:ea:06:05:84:a9:8b:01:bd:e2:d8:09:
        43:58:25:61:8a:de:01:16:ca:83:78:27:78:80:91:70:c3:a6:
        c7:1b:c9:06:fe:4b:2b:52:18:0b:b1:6f:df:75:23:c2:61:a4:
        80:56:0d:e9:ee:6e:d7:35:11:15:a6:a0:ac:c2:3e:6a:43:18:
        e8:27:fb:59:a2:7a:d4:fa:37:82:97:36:41:19:43:6f:05:56:
        47:65:a9:50:26:32:5d:8d:2c:e4:79:03:28:8d:29:41:2b:4f:
        82:9d:71:6c:83:2a:c2:3e:c6:52:a3:2e:32:27:a7:d2:a4:1a:
        c6:de:26:70:ee:70:a5:2c:bd:ee:88:00:6b:82:3a:a5:42:47:
        d6:d3:15:05
-----BEGIN CERTIFICATE-----
MIIELDCCAxSgAwIBAgIRAMiw7vAkAdeKHRRAO5D/RzgwDQYJKoZIhvcNAQELBQAw
QjELMAkGA1UEBhMCVVMxIjAgBgNVBAoMGVBvcnRsYW5kIFN0YXRlIFVuaXZlcnNp
dHkxDzANBgNVBAMMBlN1YiBDQTAeFw0yMzA2MTkxNjA2MTZaFw0zMzA2MTYxNjA2
MTZaMEIxCzAJBgNVBAYTAlVTMSIwIAYDVQQKDBlQb3J0bGFuZCBTdGF0ZSBVbml2
ZXJzaXR5MQ8wDQYDVQQDDAZTdWIgQ0EwggEiMA0GCSqGSIb3DQEBAQUAA4IBDwAw
ggEKAoIBAQC/AWqFYBGQVYFVD0CllOUxxJdDtqnybjihNU00NmifKzh7kq9xA/ot
hXBstvJUhaafH5cRWrX65PhbK3zeTJrwcaCIY00kb4bNKf+92pqR0GI2CgkgaZ2Y
inQXM774YK9XyLkC4eJMUFK+fQ+riuTQh6cP06hj6PNW2nknyrWdB/mVdhyk/QXC
lCra8o3xsnFsybuJxS9/fLzIGo0vJFJWYpKNgZ7mKODkThQ/ZLfVSGWeHlm6I5ja
YPSnGhHMDsdbRtTTIEuPN4RRjzfLdTmH50yzF3s/9DXUzJD2ZDwkWaXSh+i/XTKr
FgSbcGMQQsoQY4edaL7ruy9ntGU0p0HLAgMBAAGjggEbMIIBFzBtBggrBgEFBQcB
AQRhMF8wLgYIKwYBBQUHMAKGImh0dHA6Ly9zdWItY2EubG9jYWxob3N0L3N1Yi1j
YS5jcnQwLQYIKwYBBQUHMAGGIWh0dHA6Ly9vY3NwLnN1Yi1jYS5sb2NhbGhvc3Q6
OTA4MTAfBgNVHSMEGDAWgBRNoY2FwcHt6Jo5tQUtO3KIj3fQgjAMBgNVHRMBAf8E
AjAAMDMGA1UdHwQsMCowKKAmoCSGImh0dHA6Ly9zdWItY2EubG9jYWxob3N0L3N1
Yi1jYS5jcmwwEwYDVR0lBAwwCgYIKwYBBQUHAwIwDgYDVR0PAQH/BAQDAgeAMB0G
A1UdDgQWBBRUltfOZ2qreUFadrfD5yxQDf91QTANBgkqhkiG9w0BAQsFAAOCAQEA
NjshTsYSlRyHWbA2AYFxajkjDu2tm0xVtmKPhYTg2ivKBtg1NmoYIs2jSFICLGl9
jGRZ0GlmZcWMxKj32VQiViF2Svals6MmZVvsY+YzOuZ0ljBms6eOTyD9JAXyKAYM
F/srdxT3HUhR++WxgR8kWHugBeoGBYSpiwG94tgJQ1glYYreARbKg3gneICRcMOm
xxvJBv5LK1IYC7Fv33UjwmGkgFYN6e5u1zURFaagrMI+akMY6Cf7WaJ61Po3gpc2
QRlDbwVWR2WpUCYyXY0s5HkDKI0pQStPgp1xbIMqwj7GUqMuMien0qQaxt4mcO5w
pSy97ogAa4I6pUJH1tMVBQ==
-----END CERTIFICATE-----
