Certificate:
    Data:
        Version: 3 (0x2)
        Serial Number:
            c8:b0:ee:f0:24:01:d7:8a:1d:14:40:3b:90:ff:47:08
        Signature Algorithm: sha256WithRSAEncryption
        Issuer: C=US, O=Portland State University, CN=Sub CA
        Validity
            Not Before: Jun 19 16:06:08 2023 GMT
            Not After : Jun 16 16:06:08 2033 GMT
        Subject: C=US, O=Portland State University, CN=Sub CA
        Subject Public Key Info:
            Public Key Algorithm: rsaEncryption
                Public-Key: (2048 bit)
                Modulus:
                    00:c8:15:4c:13:c6:be:06:0b:3f:6b:dd:f9:af:17:
                    bd:2c:9a:18:d7:c9:47:2e:29:e8:5a:63:35:24:2a:
                    41:c8:54:02:a5:91:52:ba:85:1d:f6:b2:7f:7c:c2:
                    d2:10:0e:a2:b9:f9:44:3f:a8:c7:cf:66:e6:09:2b:
                    ad:db:fd:b3:54:e6:a9:e1:d6:83:c7:e3:60:11:50:
                    76:d1:62:0f:fa:c5:a0:54:91:c8:56:a6:10:cb:ca:
                    a0:4a:9f:42:64:6f:9c:84:30:93:81:1a:ca:9d:22:
                    f1:b9:04:97:34:ae:e6:f9:7f:10:d6:f6:42:35:b4:
                    af:ca:bc:78:55:17:10:e0:12:97:5c:18:99:c9:04:
                    b7:ef:55:81:64:f7:d9:f7:f2:a9:69:2b:70:28:02:
                    c8:35:19:fd:42:dd:62:d9:c8:e8:8f:cd:92:fd:bd:
                    a6:db:96:0b:80:2a:bc:22:8e:75:ab:00:db:02:f2:
                    a2:da:08:27:96:32:9c:8a:36:99:07:fe:87:b3:8c:
                    be:fc:98:92:a8:b8:81:5a:75:15:aa:1d:c6:c0:6c:
                    ac:1f:da:ff:6b:95:4f:af:4d:bd:5e:f9:dc:42:ca:
                    22:6c:39:00:d3:c9:ca:7c:a9:6f:d8:8b:bc:02:74:
                    f3:88:19:fd:b8:b1:4d:91:56:db:08:6a:71:cc:7e:
                    af:95
                Exponent: 65537 (0x10001)
        X509v3 extensions:
            Authority Information Access: 
                CA Issuers - URI:http://sub-ca.localhost/sub-ca.crt
                OCSP - URI:http://ocsp.sub-ca.localhost:9081
            X509v3 Authority Key Identifier: 
                4D:A1:8D:85:C1:C1:ED:E8:9A:39:B5:05:2D:3B:72:88:8F:77:D0:82
            X509v3 Basic Constraints: critical
                CA:FALSE
            X509v3 CRL Distribution Points: 
                Full Name:
                  URI:http://sub-ca.localhost/sub-ca.crl
            X509v3 Extended Key Usage: 
                TLS Web Client Authentication
            X509v3 Key Usage: critical
                Digital Signature
            X509v3 Subject Key Identifier: 
                C7:C4:CC:F1:8A:44:67:68:F7:24:87:F8:F6:7C:5E:DF:20:10:BB:AD
    Signature Algorithm: sha256WithRSAEncryption
    Signature Value:
        2c:55:f7:b2:10:ef:d5:e8:a0:db:66:26:87:cb:2f:bd:2d:16:
        8c:bb:6f:0c:36:dd:cb:40:f5:d1:d2:f9:f5:8b:21:0a:8d:bc:
        ab:25:9f:6b:3a:c5:34:18:6d:2d:f6:64:46:e2:ac:cc:62:65:
        bd:2a:a3:94:f0:a0:c7:fd:ce:0b:e3:8f:38:b4:ab:2d:ac:24:
        09:27:cf:7e:94:57:e0:79:fe:f2:be:8b:a8:16:6e:96:2b:16:
        e1:aa:34:09:f9:ac:39:bb:a5:b5:10:ee:fa:d3:24:4e:d1:1b:
        01:2a:bc:d8:9a:d4:75:fb:a9:39:9f:ba:34:93:00:1f:55:73:
        a1:1c:de:f1:5f:1b:e8:07:d0:e8:48:7f:8d:de:eb:f8:02:7e:
        37:0a:80:2e:86:37:80:f9:45:93:91:78:ca:8f:ea:3a:94:f6:
        cd:a0:2b:40:3d:02:5e:cf:79:92:1f:b9:ad:ea:5d:4d:e1:02:
        ba:74:cb:89:04:5c:bc:db:53:a5:14:0c:c1:07:be:91:94:27:
        4e:52:c5:2d:75:1f:c5:ae:41:7b:98:fb:0f:84:f0:d8:ce:c2:
        e0:21:be:57:38:d7:24:98:63:7a:40:75:45:23:cf:1b:02:ef:
        fe:8f:b9:f9:03:53:47:95:f7:9c:55:68:48:c5:93:d1:14:1d:
        eb:c2:00:10
-----BEGIN CERTIFICATE-----
MIIELDCCAxSgAwIBAgIRAMiw7vAkAdeKHRRAO5D/RwgwDQYJKoZIhvcNAQELBQAw
QjELMAkGA1UEBhMCVVMxIjAgBgNVBAoMGVBvcnRsYW5kIFN0YXRlIFVuaXZlcnNp
dHkxDzANBgNVBAMMBlN1YiBDQTAeFw0yMzA2MTkxNjA2MDhaFw0zMzA2MTYxNjA2
MDhaMEIxCzAJBgNVBAYTAlVTMSIwIAYDVQQKDBlQb3J0bGFuZCBTdGF0ZSBVbml2
ZXJzaXR5MQ8wDQYDVQQDDAZTdWIgQ0EwggEiMA0GCSqGSIb3DQEBAQUAA4IBDwAw
ggEKAoIBAQDIFUwTxr4GCz9r3fmvF70smhjXyUcuKehaYzUkKkHIVAKlkVK6hR32
sn98wtIQDqK5+UQ/qMfPZuYJK63b/bNU5qnh1oPH42ARUHbRYg/6xaBUkchWphDL
yqBKn0Jkb5yEMJOBGsqdIvG5BJc0rub5fxDW9kI1tK/KvHhVFxDgEpdcGJnJBLfv
VYFk99n38qlpK3AoAsg1Gf1C3WLZyOiPzZL9vabblguAKrwijnWrANsC8qLaCCeW
MpyKNpkH/oezjL78mJKouIFadRWqHcbAbKwf2v9rlU+vTb1e+dxCyiJsOQDTycp8
qW/Yi7wCdPOIGf24sU2RVtsIanHMfq+VAgMBAAGjggEbMIIBFzBtBggrBgEFBQcB
AQRhMF8wLgYIKwYBBQUHMAKGImh0dHA6Ly9zdWItY2EubG9jYWxob3N0L3N1Yi1j
YS5jcnQwLQYIKwYBBQUHMAGGIWh0dHA6Ly9vY3NwLnN1Yi1jYS5sb2NhbGhvc3Q6
OTA4MTAfBgNVHSMEGDAWgBRNoY2FwcHt6Jo5tQUtO3KIj3fQgjAMBgNVHRMBAf8E
AjAAMDMGA1UdHwQsMCowKKAmoCSGImh0dHA6Ly9zdWItY2EubG9jYWxob3N0L3N1
Yi1jYS5jcmwwEwYDVR0lBAwwCgYIKwYBBQUHAwIwDgYDVR0PAQH/BAQDAgeAMB0G
A1UdDgQWBBTHxMzxikRnaPckh/j2fF7fIBC7rTANBgkqhkiG9w0BAQsFAAOCAQEA
LFX3shDv1eig22Ymh8svvS0WjLtvDDbdy0D10dL59YshCo28qyWfazrFNBhtLfZk
RuKszGJlvSqjlPCgx/3OC+OPOLSrLawkCSfPfpRX4Hn+8r6LqBZulisW4ao0Cfms
ObultRDu+tMkTtEbASq82JrUdfupOZ+6NJMAH1VzoRze8V8b6AfQ6Eh/jd7r+AJ+
NwqALoY3gPlFk5F4yo/qOpT2zaArQD0CXs95kh+5repdTeECunTLiQRcvNtTpRQM
wQe+kZQnTlLFLXUfxa5Be5j7D4Tw2M7C4CG+VzjXJJhjekB1RSPPGwLv/o+5+QNT
R5X3nFVoSMWT0RQd68IAEA==
-----END CERTIFICATE-----
