Certificate:
    Data:
        Version: 3 (0x2)
        Serial Number:
            c8:b0:ee:f0:24:01:d7:8a:1d:14:40:3b:90:ff:47:26
        Signature Algorithm: sha256WithRSAEncryption
        Issuer: C=US, O=Portland State University, CN=Sub CA
        Validity
            Not Before: Jun 19 16:06:13 2023 GMT
            Not After : Jun 16 16:06:13 2033 GMT
        Subject: C=US, O=Portland State University, CN=Sub CA
        Subject Public Key Info:
            Public Key Algorithm: rsaEncryption
                Public-Key: (2048 bit)
                Modulus:
                    00:d1:1b:68:30:2a:2f:39:1b:99:c1:8a:24:5f:be:
                    e5:4b:ee:46:5d:d7:f0:ee:9c:e2:1a:74:a7:6e:ef:
                    4a:11:5a:f6:3a:8c:2e:6f:01:91:87:e0:04:db:92:
                    8e:1b:bf:59:3b:ba:47:8d:55:ac:48:87:72:d9:a4:
                    68:cd:62:ab:80:1b:37:3a:94:bd:3b:08:b9:fc:09:
                    a6:f5:a8:2e:31:db:d0:ab:2e:a3:ef:97:d6:85:94:
                    13:b3:47:b4:fe:69:c3:98:3a:c5:de:47:b7:c1:18:
                    f2:e0:2f:fd:13:46:f7:9e:6c:f6:ef:a4:7f:37:e4:
                    26:af:c3:b9:c7:2a:28:bd:da:75:0f:cb:77:8a:58:
                    c8:14:8b:9f:5c:e9:92:53:c4:68:06:e6:d7:62:18:
                    42:f1:b9:fb:f9:83:19:d8:63:8c:9c:f0:3f:3d:51:
                    44:b9:dd:81:a8:b0:53:b4:77:aa:25:d8:02:00:a3:
                    9e:41:e9:41:aa:ea:f3:61:6f:77:e4:37:7d:cd:dd:
                    07:98:64:c0:a5:1f:dc:bf:91:12:a1:31:71:1e:e9:
                    89:ca:71:02:41:60:9e:d1:4f:58:0d:67:0d:69:b2:
                    80:f5:b6:d8:ca:92:ef:7f:09:08:cf:6a:33:86:c4:
                    ee:94:40:de:03:86:e1:32:45:31:8c:a8:38:00:45:
                    74:5f
                Exponent: 65537 (0x10001)
        X509v3 extensions:
            Authority Information Access: 
                CA Issuers - URI:http://sub-ca.localhost/sub-ca.crt
                OCSP - URI:http://ocsp.sub-ca.localhost:9081
            X509v3 Authority Key Identifier: 
                4D:A1:8D:85:C1:C1:ED:E8:9A:39:B5:05:2D:3B:72:88:8F:77:D0:82
            X509v3 Basic Constraints: critical
                CA:FALSE
            X509v3 CRL Distribution Points: 
                Full Name:
                  URI:http://sub-ca.localhost/sub-ca.crl
            X509v3 Extended Key Usage: 
                TLS Web Client Authentication
            X509v3 Key Usage: critical
                Digital Signature
            X509v3 Subject Key Identifier: 
                10:A2:04:AC:CB:35:D4:42:2A:9B:DA:26:1D:43:A9:50:2C:71:C2:36
    Signature Algorithm: sha256WithRSAEncryption
    Signature Value:
        33:74:07:23:d1:2f:38:34:f9:a0:18:78:49:75:f3:8f:87:5b:
        aa:bb:ea:42:3f:d1:79:39:34:62:11:4d:fc:91:f5:be:43:82:
        f7:78:a0:e3:5c:04:1a:26:91:e4:8f:69:b5:2f:4c:6a:fe:ea:
        f2:58:81:6b:df:c1:de:1d:34:22:a1:20:54:a4:66:06:8a:6b:
        0f:f9:9c:8c:2b:53:0a:be:1f:40:92:e5:dc:a8:c3:86:78:e3:
        e2:13:b8:89:db:6e:da:3b:ae:59:ca:26:e7:c3:9f:0f:c2:6c:
        5f:1c:af:18:42:6a:37:f7:07:97:ed:b8:a3:39:11:b5:47:ae:
        5a:b1:6e:41:9c:2c:a0:39:68:d8:16:7a:6f:9a:ae:6f:64:73:
        44:bb:78:87:1b:1c:b7:30:dd:30:8f:a0:42:b5:75:c6:89:a7:
        0c:47:4d:29:82:56:ba:ea:bf:79:a7:89:2b:74:7d:fd:9a:ba:
        06:97:3c:e3:b5:fa:35:11:89:e2:42:a7:06:01:aa:80:3b:27:
        1a:72:26:03:84:de:61:f3:85:f6:6f:b6:7d:fa:3b:0c:e8:14:
        7d:a1:4e:b8:6b:86:6c:65:d2:41:3f:73:4b:4f:61:3d:ff:38:
        22:e4:cd:26:c8:02:b3:c6:f4:6a:a0:ea:91:2d:c0:92:e5:c7:
        65:4d:0e:a8
-----BEGIN CERTIFICATE-----
MIIELDCCAxSgAwIBAgIRAMiw7vAkAdeKHRRAO5D/RyYwDQYJKoZIhvcNAQELBQAw
QjELMAkGA1UEBhMCVVMxIjAgBgNVBAoMGVBvcnRsYW5kIFN0YXRlIFVuaXZlcnNp
dHkxDzANBgNVBAMMBlN1YiBDQTAeFw0yMzA2MTkxNjA2MTNaFw0zMzA2MTYxNjA2
MTNaMEIxCzAJBgNVBAYTAlVTMSIwIAYDVQQKDBlQb3J0bGFuZCBTdGF0ZSBVbml2
ZXJzaXR5MQ8wDQYDVQQDDAZTdWIgQ0EwggEiMA0GCSqGSIb3DQEBAQUAA4IBDwAw
ggEKAoIBAQDRG2gwKi85G5nBiiRfvuVL7kZd1/DunOIadKdu70oRWvY6jC5vAZGH
4ATbko4bv1k7ukeNVaxIh3LZpGjNYquAGzc6lL07CLn8Cab1qC4x29CrLqPvl9aF
lBOzR7T+acOYOsXeR7fBGPLgL/0TRveebPbvpH835Cavw7nHKii92nUPy3eKWMgU
i59c6ZJTxGgG5tdiGELxufv5gxnYY4yc8D89UUS53YGosFO0d6ol2AIAo55B6UGq
6vNhb3fkN33N3QeYZMClH9y/kRKhMXEe6YnKcQJBYJ7RT1gNZw1psoD1ttjKku9/
CQjPajOGxO6UQN4DhuEyRTGMqDgARXRfAgMBAAGjggEbMIIBFzBtBggrBgEFBQcB
AQRhMF8wLgYIKwYBBQUHMAKGImh0dHA6Ly9zdWItY2EubG9jYWxob3N0L3N1Yi1j
YS5jcnQwLQYIKwYBBQUHMAGGIWh0dHA6Ly9vY3NwLnN1Yi1jYS5sb2NhbGhvc3Q6
OTA4MTAfBgNVHSMEGDAWgBRNoY2FwcHt6Jo5tQUtO3KIj3fQgjAMBgNVHRMBAf8E
AjAAMDMGA1UdHwQsMCowKKAmoCSGImh0dHA6Ly9zdWItY2EubG9jYWxob3N0L3N1
Yi1jYS5jcmwwEwYDVR0lBAwwCgYIKwYBBQUHAwIwDgYDVR0PAQH/BAQDAgeAMB0G
A1UdDgQWBBQQogSsyzXUQiqb2iYdQ6lQLHHCNjANBgkqhkiG9w0BAQsFAAOCAQEA
M3QHI9EvODT5oBh4SXXzj4dbqrvqQj/ReTk0YhFN/JH1vkOC93ig41wEGiaR5I9p
tS9Mav7q8liBa9/B3h00IqEgVKRmBoprD/mcjCtTCr4fQJLl3KjDhnjj4hO4idtu
2juuWcom58OfD8JsXxyvGEJqN/cHl+24ozkRtUeuWrFuQZwsoDlo2BZ6b5qub2Rz
RLt4hxsctzDdMI+gQrV1xomnDEdNKYJWuuq/eaeJK3R9/Zq6Bpc847X6NRGJ4kKn
BgGqgDsnGnImA4TeYfOF9m+2ffo7DOgUfaFOuGuGbGXSQT9zS09hPf84IuTNJsgC
s8b0aqDqkS3AkuXHZU0OqA==
-----END CERTIFICATE-----
