Certificate:
    Data:
        Version: 3 (0x2)
        Serial Number:
            c8:b0:ee:f0:24:01:d7:8a:1d:14:40:3b:90:ff:46:dd
        Signature Algorithm: sha256WithRSAEncryption
        Issuer: C=US, O=Portland State University, CN=Sub CA
        Validity
            Not Before: Nov  8 20:35:28 2022 GMT
            Not After : Nov  5 20:35:28 2032 GMT
        Subject: C=US, O=Portland State University, CN=Sub CA
        Subject Public Key Info:
            Public Key Algorithm: rsaEncryption
                Public-Key: (2048 bit)
                Modulus:
                    00:ea:4d:32:b9:a0:f7:4f:9c:29:ed:c9:2b:d5:c2:
                    34:de:77:16:31:e9:e7:2c:b6:1f:4d:a0:9d:20:d9:
                    11:7a:60:12:90:6a:c3:f7:30:15:0d:54:1c:0b:1c:
                    6f:c6:08:6a:6c:f0:31:ec:a6:2e:f4:c8:93:5e:3a:
                    0f:30:c1:c7:9e:ef:a4:d3:43:66:77:3f:2e:55:13:
                    61:ad:43:fd:9a:97:88:84:f8:fd:43:23:82:df:5a:
                    34:44:a9:ac:2a:f8:0b:04:69:0c:05:93:12:76:f0:
                    28:fd:84:76:d6:64:02:e7:95:d4:80:94:d4:e7:d6:
                    c5:c0:d9:61:0b:4d:11:dd:7c:be:65:c2:ff:f7:6f:
                    32:45:8c:5e:dd:e6:f1:31:9d:39:4e:22:bf:af:8e:
                    ca:6e:59:de:ad:43:7a:c8:b7:33:d9:61:df:76:5b:
                    ce:52:f9:1d:bc:c6:22:3d:17:07:b3:b4:84:2d:0e:
                    01:05:9e:04:7e:37:19:13:c1:69:67:7e:6c:be:51:
                    05:94:ff:cc:9b:f6:4d:63:b8:d4:cd:40:50:2c:79:
                    b8:00:e5:27:c9:f1:ba:57:58:0a:42:51:71:44:58:
                    ec:4f:e5:3c:9b:25:69:f2:7a:fe:c5:29:bd:50:df:
                    6d:4d:79:7d:cb:17:50:13:b3:7a:59:16:bf:e1:b2:
                    92:2b
                Exponent: 65537 (0x10001)
        X509v3 extensions:
            Authority Information Access: 
                CA Issuers - URI:http://sub-ca.localhost/sub-ca.crt
                OCSP - URI:http://ocsp.sub-ca.localhost:9081
            X509v3 Authority Key Identifier: 
                4D:A1:8D:85:C1:C1:ED:E8:9A:39:B5:05:2D:3B:72:88:8F:77:D0:82
            X509v3 Basic Constraints: critical
                CA:FALSE
            X509v3 CRL Distribution Points: 
                Full Name:
                  URI:http://sub-ca.localhost/sub-ca.crl
            X509v3 Extended Key Usage: 
                TLS Web Client Authentication
            X509v3 Key Usage: critical
                Digital Signature
            X509v3 Subject Key Identifier: 
                7A:06:78:E4:2B:A3:71:EE:D1:15:39:3B:D8:AE:95:99:B8:F3:96:B8
    Signature Algorithm: sha256WithRSAEncryption
    Signature Value:
        8f:24:9a:5c:2d:b4:d8:06:74:d0:7f:24:eb:ef:93:71:4a:ee:
        53:5c:ca:14:82:13:9c:0d:be:f6:49:a2:78:ea:10:c7:d7:86:
        af:73:0e:6f:d2:af:ba:ec:a1:1e:c2:15:d1:0b:7a:5e:eb:1a:
        b5:80:a1:52:9f:10:4c:3c:bb:ac:29:9c:9f:ca:fb:72:fc:0f:
        a1:79:86:28:a2:41:a6:46:ef:de:92:b1:73:03:d0:5b:83:af:
        92:67:6c:ca:d5:c1:1c:5f:f4:c6:be:80:f8:e2:70:b5:f6:5f:
        22:bd:76:e0:7b:9f:5c:86:4a:ed:d5:63:99:da:ab:63:e0:f9:
        83:d7:63:1d:57:39:04:58:65:bc:30:0a:50:ac:1f:3f:40:e6:
        ee:79:ed:93:06:bb:a2:2f:21:6f:86:67:42:ff:67:9d:e3:e1:
        e2:d4:01:52:ec:60:a4:84:e0:03:44:be:2c:42:cc:38:55:14:
        a7:9e:64:cd:06:cc:e2:41:d9:b8:11:a0:b9:af:f5:f6:ea:9c:
        cc:fd:1a:f6:8d:b1:7b:27:38:6c:1d:2e:6b:39:2c:f1:99:58:
        ec:de:fd:ab:f0:8a:f8:ff:23:2b:61:3f:ec:9c:3e:e9:85:b7:
        24:41:3d:63:77:09:af:fd:bb:5e:2d:b1:7d:0e:88:26:99:bb:
        ef:4e:d8:51
-----BEGIN CERTIFICATE-----
MIIELDCCAxSgAwIBAgIRAMiw7vAkAdeKHRRAO5D/Rt0wDQYJKoZIhvcNAQELBQAw
QjELMAkGA1UEBhMCVVMxIjAgBgNVBAoMGVBvcnRsYW5kIFN0YXRlIFVuaXZlcnNp
dHkxDzANBgNVBAMMBlN1YiBDQTAeFw0yMjExMDgyMDM1MjhaFw0zMjExMDUyMDM1
MjhaMEIxCzAJBgNVBAYTAlVTMSIwIAYDVQQKDBlQb3J0bGFuZCBTdGF0ZSBVbml2
ZXJzaXR5MQ8wDQYDVQQDDAZTdWIgQ0EwggEiMA0GCSqGSIb3DQEBAQUAA4IBDwAw
ggEKAoIBAQDqTTK5oPdPnCntySvVwjTedxYx6ecsth9NoJ0g2RF6YBKQasP3MBUN
VBwLHG/GCGps8DHspi70yJNeOg8wwcee76TTQ2Z3Py5VE2GtQ/2al4iE+P1DI4Lf
WjREqawq+AsEaQwFkxJ28Cj9hHbWZALnldSAlNTn1sXA2WELTRHdfL5lwv/3bzJF
jF7d5vExnTlOIr+vjspuWd6tQ3rItzPZYd92W85S+R28xiI9FweztIQtDgEFngR+
NxkTwWlnfmy+UQWU/8yb9k1juNTNQFAsebgA5SfJ8bpXWApCUXFEWOxP5TybJWny
ev7FKb1Q321NeX3LF1ATs3pZFr/hspIrAgMBAAGjggEbMIIBFzBtBggrBgEFBQcB
AQRhMF8wLgYIKwYBBQUHMAKGImh0dHA6Ly9zdWItY2EubG9jYWxob3N0L3N1Yi1j
YS5jcnQwLQYIKwYBBQUHMAGGIWh0dHA6Ly9vY3NwLnN1Yi1jYS5sb2NhbGhvc3Q6
OTA4MTAfBgNVHSMEGDAWgBRNoY2FwcHt6Jo5tQUtO3KIj3fQgjAMBgNVHRMBAf8E
AjAAMDMGA1UdHwQsMCowKKAmoCSGImh0dHA6Ly9zdWItY2EubG9jYWxob3N0L3N1
Yi1jYS5jcmwwEwYDVR0lBAwwCgYIKwYBBQUHAwIwDgYDVR0PAQH/BAQDAgeAMB0G
A1UdDgQWBBR6BnjkK6Nx7tEVOTvYrpWZuPOWuDANBgkqhkiG9w0BAQsFAAOCAQEA
jySaXC202AZ00H8k6++TcUruU1zKFIITnA2+9kmieOoQx9eGr3MOb9KvuuyhHsIV
0Qt6XusatYChUp8QTDy7rCmcn8r7cvwPoXmGKKJBpkbv3pKxcwPQW4OvkmdsytXB
HF/0xr6A+OJwtfZfIr124HufXIZK7dVjmdqrY+D5g9djHVc5BFhlvDAKUKwfP0Dm
7nntkwa7oi8hb4ZnQv9nnePh4tQBUuxgpITgA0S+LELMOFUUp55kzQbM4kHZuBGg
ua/19uqczP0a9o2xeyc4bB0uazks8ZlY7N79q/CK+P8jK2E/7Jw+6YW3JEE9Y3cJ
r/27Xi2xfQ6IJpm7707YUQ==
-----END CERTIFICATE-----
