Certificate:
    Data:
        Version: 3 (0x2)
        Serial Number:
            c8:b0:ee:f0:24:01:d7:8a:1d:14:40:3b:90:ff:46:f5
        Signature Algorithm: sha256WithRSAEncryption
        Issuer: C=US, O=Portland State University, CN=Sub CA
        Validity
            Not Before: Jun 19 16:06:06 2023 GMT
            Not After : Jun 16 16:06:06 2033 GMT
        Subject: C=US, O=Portland State University, CN=Sub CA
        Subject Public Key Info:
            Public Key Algorithm: rsaEncryption
                Public-Key: (2048 bit)
                Modulus:
                    00:9f:55:f4:19:11:b3:02:1a:0d:1e:b6:88:e0:74:
                    41:76:0e:81:bb:19:5d:f3:1b:ec:41:f4:a1:be:a0:
                    33:4b:1c:2e:6b:fa:0f:a8:0d:3d:1e:8f:86:34:9b:
                    72:e4:1d:de:76:b2:fb:e3:20:dc:48:d3:d6:99:43:
                    9b:23:ad:30:5d:4a:cc:cd:5b:22:a0:53:7d:fd:f2:
                    27:50:78:78:a4:4b:e3:7a:69:09:ae:7a:32:4e:83:
                    b2:bd:55:f3:8e:56:08:bc:b4:4e:3a:e5:04:6a:3f:
                    68:11:71:5c:b7:3b:24:1a:f7:96:e0:62:1c:06:47:
                    32:49:27:01:81:b6:2c:f4:b6:ba:77:bc:70:fd:2b:
                    9a:82:d4:de:65:2f:8f:61:5f:b3:22:fb:af:97:ab:
                    ec:8c:b8:95:e5:41:46:87:ba:7d:7c:0a:51:f9:98:
                    d1:47:d8:2b:21:e8:ec:8b:5f:29:a6:cf:d5:83:9f:
                    52:19:c5:d5:a5:22:15:23:eb:24:ab:18:4c:a9:c5:
                    7a:f8:77:c5:d1:3a:08:bb:0a:b2:32:f5:e2:fd:6a:
                    49:fa:80:6f:47:eb:69:c4:7e:da:26:c5:1f:34:9d:
                    cf:5a:f2:4f:b5:42:b7:d4:4b:a5:e2:9c:88:70:64:
                    98:d0:3f:cb:34:7c:81:6d:eb:b9:74:9e:ba:a4:76:
                    b9:9d
                Exponent: 65537 (0x10001)
        X509v3 extensions:
            Authority Information Access: 
                CA Issuers - URI:http://sub-ca.localhost/sub-ca.crt
                OCSP - URI:http://ocsp.sub-ca.localhost:9081
            X509v3 Authority Key Identifier: 
                4D:A1:8D:85:C1:C1:ED:E8:9A:39:B5:05:2D:3B:72:88:8F:77:D0:82
            X509v3 Basic Constraints: critical
                CA:FALSE
            X509v3 CRL Distribution Points: 
                Full Name:
                  URI:http://sub-ca.localhost/sub-ca.crl
            X509v3 Extended Key Usage: 
                TLS Web Client Authentication
            X509v3 Key Usage: critical
                Digital Signature
            X509v3 Subject Key Identifier: 
                99:F2:D4:E7:98:5A:8D:92:AC:30:B3:7D:59:97:07:F2:0E:F9:32:74
    Signature Algorithm: sha256WithRSAEncryption
    Signature Value:
        74:33:08:9a:27:11:6e:56:24:65:11:3f:09:68:09:da:fb:ec:
        9f:8e:34:0a:18:18:be:70:28:f4:53:b0:e7:24:72:29:42:bd:
        84:7d:42:a1:eb:6d:57:19:8e:1b:da:9e:0c:71:c3:07:3d:83:
        c8:0e:de:7b:fd:d4:ab:21:23:cd:d9:7b:c2:27:cd:7b:6d:1a:
        2f:bc:fd:a9:5a:4f:e5:34:b8:97:95:80:a7:8e:6c:62:c8:c8:
        17:e3:eb:84:de:6f:d0:9f:86:4f:05:c4:b2:9e:52:ee:19:bf:
        f8:fb:97:6d:b6:9e:7a:a1:04:0a:b6:ed:a5:36:7e:c7:13:ce:
        91:87:d2:35:ed:54:67:9f:b6:b6:cc:d8:e8:ee:b2:ea:48:d6:
        df:36:40:0f:f7:b6:aa:6f:d6:39:c2:50:7f:54:a5:0e:b1:85:
        19:3b:5e:94:10:75:02:a6:7d:a4:d7:07:e5:98:7d:31:7d:0f:
        37:ef:d7:b8:36:a3:7d:4f:23:90:85:49:9c:e1:7b:0a:39:89:
        22:79:8f:73:29:d4:bb:9e:cb:f8:ac:26:54:bd:2a:31:62:cf:
        43:cb:1b:4b:42:d2:91:49:dd:4f:20:72:2a:22:fa:77:fb:b9:
        bb:ff:78:41:31:09:04:38:17:a8:9b:c0:ca:07:26:ba:ad:42:
        ac:fb:4f:fa
-----BEGIN CERTIFICATE-----
MIIELDCCAxSgAwIBAgIRAMiw7vAkAdeKHRRAO5D/RvUwDQYJKoZIhvcNAQELBQAw
QjELMAkGA1UEBhMCVVMxIjAgBgNVBAoMGVBvcnRsYW5kIFN0YXRlIFVuaXZlcnNp
dHkxDzANBgNVBAMMBlN1YiBDQTAeFw0yMzA2MTkxNjA2MDZaFw0zMzA2MTYxNjA2
MDZaMEIxCzAJBgNVBAYTAlVTMSIwIAYDVQQKDBlQb3J0bGFuZCBTdGF0ZSBVbml2
ZXJzaXR5MQ8wDQYDVQQDDAZTdWIgQ0EwggEiMA0GCSqGSIb3DQEBAQUAA4IBDwAw
ggEKAoIBAQCfVfQZEbMCGg0etojgdEF2DoG7GV3zG+xB9KG+oDNLHC5r+g+oDT0e
j4Y0m3LkHd52svvjINxI09aZQ5sjrTBdSszNWyKgU3398idQeHikS+N6aQmuejJO
g7K9VfOOVgi8tE465QRqP2gRcVy3OyQa95bgYhwGRzJJJwGBtiz0trp3vHD9K5qC
1N5lL49hX7Mi+6+Xq+yMuJXlQUaHun18ClH5mNFH2Csh6OyLXymmz9WDn1IZxdWl
IhUj6ySrGEypxXr4d8XROgi7CrIy9eL9akn6gG9H62nEftomxR80nc9a8k+1QrfU
S6XinIhwZJjQP8s0fIFt67l0nrqkdrmdAgMBAAGjggEbMIIBFzBtBggrBgEFBQcB
AQRhMF8wLgYIKwYBBQUHMAKGImh0dHA6Ly9zdWItY2EubG9jYWxob3N0L3N1Yi1j
YS5jcnQwLQYIKwYBBQUHMAGGIWh0dHA6Ly9vY3NwLnN1Yi1jYS5sb2NhbGhvc3Q6
OTA4MTAfBgNVHSMEGDAWgBRNoY2FwcHt6Jo5tQUtO3KIj3fQgjAMBgNVHRMBAf8E
AjAAMDMGA1UdHwQsMCowKKAmoCSGImh0dHA6Ly9zdWItY2EubG9jYWxob3N0L3N1
Yi1jYS5jcmwwEwYDVR0lBAwwCgYIKwYBBQUHAwIwDgYDVR0PAQH/BAQDAgeAMB0G
A1UdDgQWBBSZ8tTnmFqNkqwws31ZlwfyDvkydDANBgkqhkiG9w0BAQsFAAOCAQEA
dDMImicRblYkZRE/CWgJ2vvsn440ChgYvnAo9FOw5yRyKUK9hH1CoettVxmOG9qe
DHHDBz2DyA7ee/3UqyEjzdl7wifNe20aL7z9qVpP5TS4l5WAp45sYsjIF+PrhN5v
0J+GTwXEsp5S7hm/+PuXbbaeeqEECrbtpTZ+xxPOkYfSNe1UZ5+2tszY6O6y6kjW
3zZAD/e2qm/WOcJQf1SlDrGFGTtelBB1AqZ9pNcH5Zh9MX0PN+/XuDajfU8jkIVJ
nOF7CjmJInmPcynUu57L+KwmVL0qMWLPQ8sbS0LSkUndTyByKiL6d/u5u/94QTEJ
BDgXqJvAygcmuq1CrPtP+g==
-----END CERTIFICATE-----
