Certificate:
    Data:
        Version: 3 (0x2)
        Serial Number:
            c8:b0:ee:f0:24:01:d7:8a:1d:14:40:3b:90:ff:47:11
        Signature Algorithm: sha256WithRSAEncryption
        Issuer: C=US, O=Portland State University, CN=Sub CA
        Validity
            Not Before: Jun 19 16:06:10 2023 GMT
            Not After : Jun 16 16:06:10 2033 GMT
        Subject: C=US, O=Portland State University, CN=Sub CA
        Subject Public Key Info:
            Public Key Algorithm: rsaEncryption
                Public-Key: (2048 bit)
                Modulus:
                    00:bc:68:00:c9:17:a8:0c:6b:46:ac:07:5e:09:ae:
                    fb:19:34:36:ec:fb:33:bd:6d:9e:fa:27:45:a9:24:
                    4a:f5:94:af:ea:03:d6:57:d5:9f:fc:7a:88:c8:b4:
                    8f:7b:ec:00:ca:6f:14:be:3b:8f:7b:fb:87:be:32:
                    92:37:5f:3c:c0:81:0b:bb:a5:7c:78:57:97:82:4f:
                    cc:c4:2b:27:6c:97:d2:64:4c:9f:f6:78:8b:44:cc:
                    71:e1:49:37:ae:5d:d8:fb:77:a6:a6:c2:69:bd:57:
                    81:99:a2:56:b4:75:5e:b3:e9:af:5d:8a:10:46:56:
                    3a:b9:4b:a0:b4:5b:3f:b8:8f:11:b2:53:e4:12:a0:
                    4a:b3:b0:fe:d7:31:cc:d2:cf:24:28:93:92:49:d9:
                    f3:64:79:cb:13:4c:50:3e:a4:cb:2e:e5:14:42:1a:
                    8e:51:b3:7b:80:58:dc:66:b9:5f:00:be:df:52:11:
                    8e:d0:71:05:f8:c3:33:11:da:0b:56:6c:f6:02:cf:
                    23:6a:91:d6:bd:10:79:93:e9:65:ee:3f:86:64:e9:
                    3b:00:48:d8:97:52:d0:98:28:9d:ec:c0:2e:13:19:
                    57:de:10:17:12:a8:0c:ed:4d:1b:28:60:7d:ad:ee:
                    de:57:1a:b0:84:b0:89:0a:b5:46:9e:31:57:66:ae:
                    d3:93
                Exponent: 65537 (0x10001)
        X509v3 extensions:
            Authority Information Access: 
                CA Issuers - URI:http://sub-ca.localhost/sub-ca.crt
                OCSP - URI:http://ocsp.sub-ca.localhost:9081
            X509v3 Authority Key Identifier: 
                4D:A1:8D:85:C1:C1:ED:E8:9A:39:B5:05:2D:3B:72:88:8F:77:D0:82
            X509v3 Basic Constraints: critical
                CA:FALSE
            X509v3 CRL Distribution Points: 
                Full Name:
                  URI:http://sub-ca.localhost/sub-ca.crl
            X509v3 Extended Key Usage: 
                TLS Web Client Authentication
            X509v3 Key Usage: critical
                Digital Signature
            X509v3 Subject Key Identifier: 
                30:8C:5B:94:25:83:E7:25:98:94:44:D3:3F:BE:2E:9C:DA:E6:EB:15
    Signature Algorithm: sha256WithRSAEncryption
    Signature Value:
        25:93:dd:83:08:18:c1:80:e5:8c:79:6b:12:9a:8b:1d:c9:f4:
        b9:61:bd:49:cd:6b:92:e8:d7:0e:88:b5:78:6a:63:aa:d8:a3:
        53:9a:de:fa:76:8d:fe:d9:e9:e0:17:9d:b9:f7:13:37:d4:df:
        4e:ef:3a:90:5a:16:a5:d9:a2:25:80:7a:62:23:1b:ce:5b:ef:
        51:60:a5:3d:43:84:28:21:be:33:4d:9d:c0:cb:7c:18:15:17:
        d3:6c:1a:6b:4e:9c:42:da:cb:e3:e9:2a:3e:7a:35:16:4c:cb:
        74:37:c1:d6:08:42:b2:4f:c8:88:2d:13:4e:99:c2:0b:39:3e:
        35:3f:57:8c:f5:ec:a9:06:8f:0c:ae:ff:b8:05:b2:73:c5:2d:
        0c:e8:c5:0f:c4:75:14:f5:ab:f9:4d:e9:26:ff:fe:22:a5:49:
        51:94:e0:56:99:95:89:cf:33:f8:95:aa:9d:1e:ce:c7:9f:94:
        aa:34:a7:66:dc:15:da:81:d0:fd:ed:b8:a1:ac:a3:ba:da:48:
        70:03:ff:e3:ab:f1:4d:69:53:ed:1d:ce:9d:de:85:dc:86:a9:
        88:5a:0f:12:6f:93:a7:34:a5:10:54:fc:c4:6a:0d:6c:45:17:
        92:9f:cc:8e:c1:03:90:0c:96:6f:a8:5d:17:7d:3e:fb:d0:97:
        ee:25:c7:d1
-----BEGIN CERTIFICATE-----
MIIELDCCAxSgAwIBAgIRAMiw7vAkAdeKHRRAO5D/RxEwDQYJKoZIhvcNAQELBQAw
QjELMAkGA1UEBhMCVVMxIjAgBgNVBAoMGVBvcnRsYW5kIFN0YXRlIFVuaXZlcnNp
dHkxDzANBgNVBAMMBlN1YiBDQTAeFw0yMzA2MTkxNjA2MTBaFw0zMzA2MTYxNjA2
MTBaMEIxCzAJBgNVBAYTAlVTMSIwIAYDVQQKDBlQb3J0bGFuZCBTdGF0ZSBVbml2
ZXJzaXR5MQ8wDQYDVQQDDAZTdWIgQ0EwggEiMA0GCSqGSIb3DQEBAQUAA4IBDwAw
ggEKAoIBAQC8aADJF6gMa0asB14JrvsZNDbs+zO9bZ76J0WpJEr1lK/qA9ZX1Z/8
eojItI977ADKbxS+O497+4e+MpI3XzzAgQu7pXx4V5eCT8zEKydsl9JkTJ/2eItE
zHHhSTeuXdj7d6amwmm9V4GZola0dV6z6a9dihBGVjq5S6C0Wz+4jxGyU+QSoEqz
sP7XMczSzyQok5JJ2fNkecsTTFA+pMsu5RRCGo5Rs3uAWNxmuV8Avt9SEY7QcQX4
wzMR2gtWbPYCzyNqkda9EHmT6WXuP4Zk6TsASNiXUtCYKJ3swC4TGVfeEBcSqAzt
TRsoYH2t7t5XGrCEsIkKtUaeMVdmrtOTAgMBAAGjggEbMIIBFzBtBggrBgEFBQcB
AQRhMF8wLgYIKwYBBQUHMAKGImh0dHA6Ly9zdWItY2EubG9jYWxob3N0L3N1Yi1j
YS5jcnQwLQYIKwYBBQUHMAGGIWh0dHA6Ly9vY3NwLnN1Yi1jYS5sb2NhbGhvc3Q6
OTA4MTAfBgNVHSMEGDAWgBRNoY2FwcHt6Jo5tQUtO3KIj3fQgjAMBgNVHRMBAf8E
AjAAMDMGA1UdHwQsMCowKKAmoCSGImh0dHA6Ly9zdWItY2EubG9jYWxob3N0L3N1
Yi1jYS5jcmwwEwYDVR0lBAwwCgYIKwYBBQUHAwIwDgYDVR0PAQH/BAQDAgeAMB0G
A1UdDgQWBBQwjFuUJYPnJZiURNM/vi6c2ubrFTANBgkqhkiG9w0BAQsFAAOCAQEA
JZPdgwgYwYDljHlrEpqLHcn0uWG9Sc1rkujXDoi1eGpjqtijU5re+naN/tnp4Bed
ufcTN9TfTu86kFoWpdmiJYB6YiMbzlvvUWClPUOEKCG+M02dwMt8GBUX02waa06c
QtrL4+kqPno1FkzLdDfB1ghCsk/IiC0TTpnCCzk+NT9XjPXsqQaPDK7/uAWyc8Ut
DOjFD8R1FPWr+U3pJv/+IqVJUZTgVpmVic8z+JWqnR7Ox5+UqjSnZtwV2oHQ/e24
oayjutpIcAP/46vxTWlT7R3Ond6F3IapiFoPEm+TpzSlEFT8xGoNbEUXkp/MjsED
kAyWb6hdF30++9CX7iXH0Q==
-----END CERTIFICATE-----
