Certificate:
    Data:
        Version: 3 (0x2)
        Serial Number:
            c8:b0:ee:f0:24:01:d7:8a:1d:14:40:3b:90:ff:47:3f
        Signature Algorithm: sha256WithRSAEncryption
        Issuer: C=US, O=Portland State University, CN=Sub CA
        Validity
            Not Before: Jun 19 16:06:17 2023 GMT
            Not After : Jun 16 16:06:17 2033 GMT
        Subject: C=US, O=Portland State University, CN=Sub CA
        Subject Public Key Info:
            Public Key Algorithm: rsaEncryption
                Public-Key: (2048 bit)
                Modulus:
                    00:dd:06:bd:72:50:76:fc:6f:a5:af:a4:88:97:b8:
                    49:e3:80:9d:24:37:e7:bd:b8:52:df:df:fb:3b:66:
                    cf:a1:2c:71:6a:7a:92:c7:91:86:ab:c4:77:57:d6:
                    af:f7:02:39:5f:69:b6:d1:5f:bc:8b:24:1a:7b:b2:
                    da:92:f2:fc:e6:06:96:18:9a:ba:a2:14:ce:04:16:
                    15:ec:27:28:0d:6f:15:42:0d:c3:af:1e:c9:d6:04:
                    70:72:fc:06:22:a8:e3:89:9a:52:c4:87:2b:20:c0:
                    55:26:96:f5:dd:ee:c5:ca:bd:2b:68:8c:94:90:ed:
                    2e:32:99:d0:37:ed:ce:12:4c:7f:a5:7c:b2:cd:d0:
                    ad:51:ca:24:c2:6c:99:8b:e6:9a:5c:f0:b9:12:b5:
                    91:46:8a:1a:53:35:0b:9b:36:85:21:67:b7:f7:1d:
                    61:bc:f0:76:19:7b:7b:78:75:93:17:f7:41:20:84:
                    0e:4e:bc:35:fb:f9:db:65:c4:28:cf:f0:89:06:26:
                    f8:a6:11:3c:38:af:b7:f5:26:f8:9a:7b:ff:dc:6e:
                    67:10:07:54:99:c3:0c:bd:d7:c2:f7:59:b5:6d:73:
                    37:ec:79:41:25:5a:5b:47:1d:ce:db:64:ea:61:91:
                    44:70:0b:6c:f7:84:c2:30:f8:18:e7:bc:17:28:b6:
                    ec:47
                Exponent: 65537 (0x10001)
        X509v3 extensions:
            Authority Information Access: 
                CA Issuers - URI:http://sub-ca.localhost/sub-ca.crt
                OCSP - URI:http://ocsp.sub-ca.localhost:9081
            X509v3 Authority Key Identifier: 
                4D:A1:8D:85:C1:C1:ED:E8:9A:39:B5:05:2D:3B:72:88:8F:77:D0:82
            X509v3 Basic Constraints: critical
                CA:FALSE
            X509v3 CRL Distribution Points: 
                Full Name:
                  URI:http://sub-ca.localhost/sub-ca.crl
            X509v3 Extended Key Usage: 
                TLS Web Client Authentication
            X509v3 Key Usage: critical
                Digital Signature
            X509v3 Subject Key Identifier: 
                FB:E4:7E:FB:07:31:59:AF:CF:32:C6:9C:A9:47:72:BB:F4:EE:19:26
    Signature Algorithm: sha256WithRSAEncryption
    Signature Value:
        4b:03:79:ea:f8:b3:6e:62:69:95:20:3e:2d:10:bb:83:f0:a9:
        22:ee:7d:eb:36:4a:84:7a:98:2b:2b:95:2c:a8:90:4a:8e:2e:
        34:59:53:3a:51:38:e2:02:7e:fb:b1:03:da:ce:ce:ec:2f:98:
        54:d4:6d:7c:63:eb:48:ba:68:8f:f0:60:5e:91:55:92:4c:d8:
        6b:00:09:a1:af:ff:1a:39:c3:38:36:5f:5b:d0:97:13:af:7c:
        44:9f:3a:c0:9f:d6:42:60:15:02:90:6e:ae:d5:f4:05:a0:99:
        ff:58:60:02:06:8f:69:b4:7f:1d:67:8e:d3:df:4c:2e:34:fc:
        b4:be:26:e8:98:b6:71:1b:e4:7d:a2:2f:f8:21:6e:25:e2:60:
        11:43:de:9f:c4:07:21:7d:9d:16:4f:39:61:ae:d3:21:6e:a6:
        9f:31:24:5b:ab:be:af:32:56:58:51:1f:3b:7f:3d:97:0f:46:
        ed:00:1d:d0:cf:f1:77:0a:22:de:14:72:29:5a:cd:70:8b:a2:
        bd:89:83:b5:82:31:a9:74:89:7e:5b:16:a9:4b:2c:cf:39:17:
        12:9a:18:0d:46:28:28:c7:a5:b5:93:e3:be:c0:0a:6f:3c:ff:
        f7:ec:91:1f:60:0f:07:02:83:a1:b7:17:82:e7:80:57:d7:e2:
        82:21:ee:4c
-----BEGIN CERTIFICATE-----
MIIELDCCAxSgAwIBAgIRAMiw7vAkAdeKHRRAO5D/Rz8wDQYJKoZIhvcNAQELBQAw
QjELMAkGA1UEBhMCVVMxIjAgBgNVBAoMGVBvcnRsYW5kIFN0YXRlIFVuaXZlcnNp
dHkxDzANBgNVBAMMBlN1YiBDQTAeFw0yMzA2MTkxNjA2MTdaFw0zMzA2MTYxNjA2
MTdaMEIxCzAJBgNVBAYTAlVTMSIwIAYDVQQKDBlQb3J0bGFuZCBTdGF0ZSBVbml2
ZXJzaXR5MQ8wDQYDVQQDDAZTdWIgQ0EwggEiMA0GCSqGSIb3DQEBAQUAA4IBDwAw
ggEKAoIBAQDdBr1yUHb8b6WvpIiXuEnjgJ0kN+e9uFLf3/s7Zs+hLHFqepLHkYar
xHdX1q/3AjlfabbRX7yLJBp7stqS8vzmBpYYmrqiFM4EFhXsJygNbxVCDcOvHsnW
BHBy/AYiqOOJmlLEhysgwFUmlvXd7sXKvStojJSQ7S4ymdA37c4STH+lfLLN0K1R
yiTCbJmL5ppc8LkStZFGihpTNQubNoUhZ7f3HWG88HYZe3t4dZMX90EghA5OvDX7
+dtlxCjP8IkGJvimETw4r7f1Jviae//cbmcQB1SZwwy918L3WbVtczfseUElWltH
Hc7bZOphkURwC2z3hMIw+BjnvBcotuxHAgMBAAGjggEbMIIBFzBtBggrBgEFBQcB
AQRhMF8wLgYIKwYBBQUHMAKGImh0dHA6Ly9zdWItY2EubG9jYWxob3N0L3N1Yi1j
YS5jcnQwLQYIKwYBBQUHMAGGIWh0dHA6Ly9vY3NwLnN1Yi1jYS5sb2NhbGhvc3Q6
OTA4MTAfBgNVHSMEGDAWgBRNoY2FwcHt6Jo5tQUtO3KIj3fQgjAMBgNVHRMBAf8E
AjAAMDMGA1UdHwQsMCowKKAmoCSGImh0dHA6Ly9zdWItY2EubG9jYWxob3N0L3N1
Yi1jYS5jcmwwEwYDVR0lBAwwCgYIKwYBBQUHAwIwDgYDVR0PAQH/BAQDAgeAMB0G
A1UdDgQWBBT75H77BzFZr88yxpypR3K79O4ZJjANBgkqhkiG9w0BAQsFAAOCAQEA
SwN56vizbmJplSA+LRC7g/CpIu596zZKhHqYKyuVLKiQSo4uNFlTOlE44gJ++7ED
2s7O7C+YVNRtfGPrSLpoj/BgXpFVkkzYawAJoa//GjnDODZfW9CXE698RJ86wJ/W
QmAVApBurtX0BaCZ/1hgAgaPabR/HWeO099MLjT8tL4m6Ji2cRvkfaIv+CFuJeJg
EUPen8QHIX2dFk85Ya7TIW6mnzEkW6u+rzJWWFEfO389lw9G7QAd0M/xdwoi3hRy
KVrNcIuivYmDtYIxqXSJflsWqUsszzkXEpoYDUYoKMeltZPjvsAKbzz/9+yRH2AP
BwKDobcXgueAV9figiHuTA==
-----END CERTIFICATE-----
