Certificate:
    Data:
        Version: 3 (0x2)
        Serial Number:
            c8:b0:ee:f0:24:01:d7:8a:1d:14:40:3b:90:ff:47:29
        Signature Algorithm: sha256WithRSAEncryption
        Issuer: C=US, O=Portland State University, CN=Sub CA
        Validity
            Not Before: Jun 19 16:06:13 2023 GMT
            Not After : Jun 16 16:06:13 2033 GMT
        Subject: C=US, O=Portland State University, CN=Sub CA
        Subject Public Key Info:
            Public Key Algorithm: rsaEncryption
                Public-Key: (2048 bit)
                Modulus:
                    00:d7:f3:5a:65:dc:a6:9f:c2:59:c9:37:51:fb:f2:
                    7c:37:a9:f8:84:0b:06:d6:5c:e1:d4:1c:27:e0:78:
                    a1:8a:85:c2:d5:18:c3:ef:90:c0:2a:d2:db:d6:f7:
                    75:d6:a6:14:3b:a5:3d:bf:a1:4d:2a:17:27:58:40:
                    9a:7f:10:74:7c:51:bf:96:d0:f7:e3:da:20:93:90:
                    8d:a3:b3:b0:2d:e4:ed:5c:82:c4:f4:0d:14:51:26:
                    f5:3f:df:8b:b8:4b:62:ce:e6:da:91:53:88:1a:1d:
                    3c:fd:33:04:2a:5e:68:2e:91:25:2b:75:17:2e:88:
                    62:66:96:d2:c3:18:f3:cb:6a:81:ec:fb:91:9b:37:
                    53:52:f5:ee:bb:06:36:bd:3b:03:97:49:f1:87:00:
                    30:58:cc:be:7f:f0:2f:aa:27:45:2e:49:43:f8:b1:
                    63:8e:72:0d:c9:c2:63:c1:9a:6a:19:a3:71:12:30:
                    da:3e:15:27:73:47:a2:33:c1:5c:88:ae:02:70:ae:
                    d3:66:57:e2:ab:d8:22:bc:51:26:4f:c6:27:05:60:
                    7f:f4:83:5f:0c:93:68:d7:2b:7d:66:fa:d9:a9:4c:
                    c1:e8:41:22:8e:0e:a4:fb:07:3e:33:27:2d:57:fc:
                    57:a2:4a:62:87:e8:43:4f:27:f8:cc:6c:c5:0e:c9:
                    d4:f1
                Exponent: 65537 (0x10001)
        X509v3 extensions:
            Authority Information Access: 
                CA Issuers - URI:http://sub-ca.localhost/sub-ca.crt
                OCSP - URI:http://ocsp.sub-ca.localhost:9081
            X509v3 Authority Key Identifier: 
                4D:A1:8D:85:C1:C1:ED:E8:9A:39:B5:05:2D:3B:72:88:8F:77:D0:82
            X509v3 Basic Constraints: critical
                CA:FALSE
            X509v3 CRL Distribution Points: 
                Full Name:
                  URI:http://sub-ca.localhost/sub-ca.crl
            X509v3 Extended Key Usage: 
                TLS Web Client Authentication
            X509v3 Key Usage: critical
                Digital Signature
            X509v3 Subject Key Identifier: 
                ED:7F:62:61:33:87:D1:C6:FE:37:6F:FE:EB:15:C1:3F:ED:A9:1B:D9
    Signature Algorithm: sha256WithRSAEncryption
    Signature Value:
        18:c1:81:e8:e7:15:5b:a8:55:3d:20:38:e9:d5:59:93:86:9b:
        b1:6f:e4:d9:93:81:8d:91:18:c0:f2:ed:d2:98:6a:cf:32:aa:
        6c:9a:a1:46:28:2c:2d:15:cd:80:4b:ea:23:de:d8:ea:91:24:
        b4:22:8a:1f:09:c4:49:35:7f:e1:3b:72:90:ac:fd:c6:18:96:
        63:af:42:0e:22:25:63:82:ae:d6:69:1d:3f:2e:39:7b:9f:c4:
        99:98:07:2c:3d:32:69:f8:92:b6:c4:99:af:95:f8:36:74:9a:
        68:b3:74:85:47:3c:d6:54:17:06:58:74:b2:88:4f:af:7b:20:
        83:e7:d3:84:aa:71:2a:4e:d0:09:ea:69:4f:90:a1:ea:80:ec:
        1b:09:d6:b5:33:16:b8:53:69:6b:1b:4e:b2:f5:8d:35:cf:fc:
        a2:08:83:36:4e:f8:78:d0:9f:9f:17:14:6a:1b:29:a3:f4:07:
        32:dc:fa:bb:f0:3e:5a:ec:6b:4b:ae:c0:5a:9c:87:ce:0c:0d:
        9b:75:f8:cb:c4:6b:d7:c1:c8:c3:93:fd:d7:e4:ed:c4:b4:0a:
        a5:4a:cc:95:15:24:5d:5b:57:af:b8:78:75:e3:be:e4:9e:44:
        3d:b8:5c:4e:16:11:7a:88:34:a1:10:82:8d:e2:08:c3:55:9f:
        78:13:a1:e0
-----BEGIN CERTIFICATE-----
MIIELDCCAxSgAwIBAgIRAMiw7vAkAdeKHRRAO5D/RykwDQYJKoZIhvcNAQELBQAw
QjELMAkGA1UEBhMCVVMxIjAgBgNVBAoMGVBvcnRsYW5kIFN0YXRlIFVuaXZlcnNp
dHkxDzANBgNVBAMMBlN1YiBDQTAeFw0yMzA2MTkxNjA2MTNaFw0zMzA2MTYxNjA2
MTNaMEIxCzAJBgNVBAYTAlVTMSIwIAYDVQQKDBlQb3J0bGFuZCBTdGF0ZSBVbml2
ZXJzaXR5MQ8wDQYDVQQDDAZTdWIgQ0EwggEiMA0GCSqGSIb3DQEBAQUAA4IBDwAw
ggEKAoIBAQDX81pl3KafwlnJN1H78nw3qfiECwbWXOHUHCfgeKGKhcLVGMPvkMAq
0tvW93XWphQ7pT2/oU0qFydYQJp/EHR8Ub+W0Pfj2iCTkI2js7At5O1cgsT0DRRR
JvU/34u4S2LO5tqRU4gaHTz9MwQqXmgukSUrdRcuiGJmltLDGPPLaoHs+5GbN1NS
9e67Bja9OwOXSfGHADBYzL5/8C+qJ0UuSUP4sWOOcg3JwmPBmmoZo3ESMNo+FSdz
R6IzwVyIrgJwrtNmV+Kr2CK8USZPxicFYH/0g18Mk2jXK31m+tmpTMHoQSKODqT7
Bz4zJy1X/FeiSmKH6ENPJ/jMbMUOydTxAgMBAAGjggEbMIIBFzBtBggrBgEFBQcB
AQRhMF8wLgYIKwYBBQUHMAKGImh0dHA6Ly9zdWItY2EubG9jYWxob3N0L3N1Yi1j
YS5jcnQwLQYIKwYBBQUHMAGGIWh0dHA6Ly9vY3NwLnN1Yi1jYS5sb2NhbGhvc3Q6
OTA4MTAfBgNVHSMEGDAWgBRNoY2FwcHt6Jo5tQUtO3KIj3fQgjAMBgNVHRMBAf8E
AjAAMDMGA1UdHwQsMCowKKAmoCSGImh0dHA6Ly9zdWItY2EubG9jYWxob3N0L3N1
Yi1jYS5jcmwwEwYDVR0lBAwwCgYIKwYBBQUHAwIwDgYDVR0PAQH/BAQDAgeAMB0G
A1UdDgQWBBTtf2JhM4fRxv43b/7rFcE/7akb2TANBgkqhkiG9w0BAQsFAAOCAQEA
GMGB6OcVW6hVPSA46dVZk4absW/k2ZOBjZEYwPLt0phqzzKqbJqhRigsLRXNgEvq
I97Y6pEktCKKHwnESTV/4TtykKz9xhiWY69CDiIlY4Ku1mkdPy45e5/EmZgHLD0y
afiStsSZr5X4NnSaaLN0hUc81lQXBlh0sohPr3sgg+fThKpxKk7QCeppT5Ch6oDs
GwnWtTMWuFNpaxtOsvWNNc/8ogiDNk74eNCfnxcUahspo/QHMtz6u/A+WuxrS67A
WpyHzgwNm3X4y8Rr18HIw5P91+TtxLQKpUrMlRUkXVtXr7h4deO+5J5EPbhcThYR
eog0oRCCjeIIw1WfeBOh4A==
-----END CERTIFICATE-----
