Certificate:
    Data:
        Version: 3 (0x2)
        Serial Number:
            c8:b0:ee:f0:24:01:d7:8a:1d:14:40:3b:90:ff:46:f6
        Signature Algorithm: sha256WithRSAEncryption
        Issuer: C=US, O=Portland State University, CN=Sub CA
        Validity
            Not Before: Jun 19 16:06:06 2023 GMT
            Not After : Jun 16 16:06:06 2033 GMT
        Subject: C=US, O=Portland State University, CN=Sub CA
        Subject Public Key Info:
            Public Key Algorithm: rsaEncryption
                Public-Key: (2048 bit)
                Modulus:
                    00:b0:7d:39:41:55:38:11:45:28:11:f9:ad:c7:c3:
                    b2:79:9b:21:ea:9d:20:9f:44:0d:a3:55:fc:0c:82:
                    e3:0d:c7:59:6c:be:ed:8c:65:8a:66:0b:eb:1d:78:
                    e6:de:83:34:7f:a9:d0:66:57:4e:bc:91:52:95:56:
                    6b:1f:27:50:05:ac:ac:f5:6f:aa:33:80:d0:91:f6:
                    41:d1:09:7d:3d:26:c0:0f:19:5d:ba:22:93:71:10:
                    82:ef:9b:6e:6a:58:10:e0:fc:9c:28:a9:50:9e:17:
                    10:d8:75:38:29:49:d1:c8:d5:0e:8f:f2:05:70:f9:
                    b9:72:54:db:85:61:c2:31:3e:36:b9:98:72:3d:ba:
                    14:59:3d:1d:4c:77:b7:ab:cb:0e:6c:58:cf:10:b2:
                    b3:be:b8:87:12:39:71:f4:02:df:88:a3:e6:3d:ed:
                    56:d6:5b:6b:78:f4:16:4a:a8:e2:54:d3:73:0f:e9:
                    5e:69:30:eb:f4:8a:c1:06:a4:88:cd:61:54:d1:0e:
                    d0:06:ce:0b:81:40:0b:5f:ff:77:00:52:ea:70:63:
                    36:6d:3d:d4:ce:92:8d:a4:25:b6:fd:83:bb:a9:0f:
                    ff:30:ac:90:19:93:a8:c5:ce:f1:29:50:40:bf:0f:
                    30:30:6b:99:fc:f7:bb:81:97:51:0a:fd:42:c0:a7:
                    82:0d
                Exponent: 65537 (0x10001)
        X509v3 extensions:
            Authority Information Access: 
                CA Issuers - URI:http://sub-ca.localhost/sub-ca.crt
                OCSP - URI:http://ocsp.sub-ca.localhost:9081
            X509v3 Authority Key Identifier: 
                4D:A1:8D:85:C1:C1:ED:E8:9A:39:B5:05:2D:3B:72:88:8F:77:D0:82
            X509v3 Basic Constraints: critical
                CA:FALSE
            X509v3 CRL Distribution Points: 
                Full Name:
                  URI:http://sub-ca.localhost/sub-ca.crl
            X509v3 Extended Key Usage: 
                TLS Web Client Authentication
            X509v3 Key Usage: critical
                Digital Signature
            X509v3 Subject Key Identifier: 
                7C:66:EE:23:0B:C2:31:3B:85:A4:79:71:13:B8:6D:26:95:00:9D:09
    Signature Algorithm: sha256WithRSAEncryption
    Signature Value:
        a7:ff:ae:7a:7e:b8:dd:98:7d:fa:09:01:93:8b:b6:55:c4:26:
        41:79:90:6f:20:55:e0:f5:a1:33:0c:80:e4:86:c5:50:e0:cb:
        e1:86:1b:11:f0:bf:92:7e:51:d0:57:69:31:a0:3d:d4:a0:66:
        e0:11:c4:c3:e0:c8:50:e4:98:1b:44:77:85:21:24:f6:59:d9:
        0e:5a:f8:35:ac:7d:64:a0:d6:31:16:68:0a:4b:a1:2b:7e:8c:
        db:50:8f:3b:54:d2:e2:54:6d:ea:d9:cf:68:ac:a7:02:5d:39:
        d0:37:0d:1f:9b:46:ec:24:1e:c7:c0:75:2e:52:df:8f:43:fe:
        27:4c:8b:44:b0:c8:70:6d:b5:e5:4d:c0:c4:89:68:df:04:2d:
        59:77:aa:a7:6c:a1:e3:d5:6e:e5:c3:fd:70:b0:0c:da:d1:e8:
        9e:31:05:1a:fe:ee:66:fc:8c:55:d2:df:f5:d7:6f:8c:1e:db:
        27:6c:5f:76:70:96:16:4d:43:1e:e9:12:e0:83:20:7d:5b:08:
        42:5e:97:69:93:24:ae:bf:1a:03:23:81:cd:09:8f:13:44:ed:
        90:dd:af:93:e2:a8:83:8a:02:69:8c:4d:81:8c:80:7b:d3:bf:
        4a:18:3e:0d:73:82:d6:19:6c:01:05:cd:6a:76:32:18:c3:4a:
        ec:f8:01:fa
-----BEGIN CERTIFICATE-----
MIIELDCCAxSgAwIBAgIRAMiw7vAkAdeKHRRAO5D/RvYwDQYJKoZIhvcNAQELBQAw
QjELMAkGA1UEBhMCVVMxIjAgBgNVBAoMGVBvcnRsYW5kIFN0YXRlIFVuaXZlcnNp
dHkxDzANBgNVBAMMBlN1YiBDQTAeFw0yMzA2MTkxNjA2MDZaFw0zMzA2MTYxNjA2
MDZaMEIxCzAJBgNVBAYTAlVTMSIwIAYDVQQKDBlQb3J0bGFuZCBTdGF0ZSBVbml2
ZXJzaXR5MQ8wDQYDVQQDDAZTdWIgQ0EwggEiMA0GCSqGSIb3DQEBAQUAA4IBDwAw
ggEKAoIBAQCwfTlBVTgRRSgR+a3Hw7J5myHqnSCfRA2jVfwMguMNx1lsvu2MZYpm
C+sdeObegzR/qdBmV068kVKVVmsfJ1AFrKz1b6ozgNCR9kHRCX09JsAPGV26IpNx
EILvm25qWBDg/JwoqVCeFxDYdTgpSdHI1Q6P8gVw+blyVNuFYcIxPja5mHI9uhRZ
PR1Md7eryw5sWM8QsrO+uIcSOXH0At+Io+Y97VbWW2t49BZKqOJU03MP6V5pMOv0
isEGpIjNYVTRDtAGzguBQAtf/3cAUupwYzZtPdTOko2kJbb9g7upD/8wrJAZk6jF
zvEpUEC/DzAwa5n897uBl1EK/ULAp4INAgMBAAGjggEbMIIBFzBtBggrBgEFBQcB
AQRhMF8wLgYIKwYBBQUHMAKGImh0dHA6Ly9zdWItY2EubG9jYWxob3N0L3N1Yi1j
YS5jcnQwLQYIKwYBBQUHMAGGIWh0dHA6Ly9vY3NwLnN1Yi1jYS5sb2NhbGhvc3Q6
OTA4MTAfBgNVHSMEGDAWgBRNoY2FwcHt6Jo5tQUtO3KIj3fQgjAMBgNVHRMBAf8E
AjAAMDMGA1UdHwQsMCowKKAmoCSGImh0dHA6Ly9zdWItY2EubG9jYWxob3N0L3N1
Yi1jYS5jcmwwEwYDVR0lBAwwCgYIKwYBBQUHAwIwDgYDVR0PAQH/BAQDAgeAMB0G
A1UdDgQWBBR8Zu4jC8IxO4WkeXETuG0mlQCdCTANBgkqhkiG9w0BAQsFAAOCAQEA
p/+uen643Zh9+gkBk4u2VcQmQXmQbyBV4PWhMwyA5IbFUODL4YYbEfC/kn5R0Fdp
MaA91KBm4BHEw+DIUOSYG0R3hSEk9lnZDlr4Nax9ZKDWMRZoCkuhK36M21CPO1TS
4lRt6tnPaKynAl050DcNH5tG7CQex8B1LlLfj0P+J0yLRLDIcG215U3AxIlo3wQt
WXeqp2yh49Vu5cP9cLAM2tHonjEFGv7uZvyMVdLf9ddvjB7bJ2xfdnCWFk1DHukS
4IMgfVsIQl6XaZMkrr8aAyOBzQmPE0TtkN2vk+Kog4oCaYxNgYyAe9O/Shg+DXOC
1hlsAQXNanYyGMNK7PgB+g==
-----END CERTIFICATE-----
