Certificate:
    Data:
        Version: 3 (0x2)
        Serial Number:
            c8:b0:ee:f0:24:01:d7:8a:1d:14:40:3b:90:ff:47:2c
        Signature Algorithm: sha256WithRSAEncryption
        Issuer: C=US, O=Portland State University, CN=Sub CA
        Validity
            Not Before: Jun 19 16:06:14 2023 GMT
            Not After : Jun 16 16:06:14 2033 GMT
        Subject: C=US, O=Portland State University, CN=Sub CA
        Subject Public Key Info:
            Public Key Algorithm: rsaEncryption
                Public-Key: (2048 bit)
                Modulus:
                    00:a8:68:70:18:85:41:e4:59:38:7c:56:4e:19:43:
                    54:79:8e:18:2d:81:67:95:40:43:a4:c0:1e:94:fc:
                    78:35:81:15:cb:b2:f3:a5:54:65:36:11:b2:19:cd:
                    96:c1:74:2d:a3:50:f7:7d:7d:2c:b9:c5:1d:6d:52:
                    25:7d:69:41:90:ae:bb:04:58:6b:51:6a:40:67:f1:
                    f3:ed:53:75:39:a3:71:61:eb:cc:55:1e:06:f3:5c:
                    3a:15:1d:f3:7a:e7:3f:9d:5e:9b:aa:97:c2:d7:39:
                    e2:4d:02:f5:5e:fa:55:94:41:42:34:08:e7:3d:9e:
                    22:74:21:8b:64:5e:44:df:44:5b:6e:49:61:67:f0:
                    80:c0:12:cf:a5:71:eb:ae:93:39:05:67:03:52:f5:
                    84:57:b5:6e:12:4c:c5:3b:9f:e9:96:b7:b7:fe:0c:
                    2c:a0:33:97:6d:77:93:9f:ba:64:1a:c6:1e:e7:44:
                    48:a6:73:bd:02:23:6f:a5:25:23:d1:7c:61:cc:fb:
                    4b:6b:5f:94:8b:e6:e4:b0:87:4d:91:14:a1:4f:5f:
                    0d:9a:81:cc:59:b9:80:9a:33:28:1b:6a:70:65:fa:
                    ba:05:3e:45:ba:3a:33:4d:8e:fa:64:76:2a:e2:c2:
                    44:32:5a:d2:2b:64:0b:b7:8c:35:b0:ed:60:37:96:
                    3e:9d
                Exponent: 65537 (0x10001)
        X509v3 extensions:
            Authority Information Access: 
                CA Issuers - URI:http://sub-ca.localhost/sub-ca.crt
                OCSP - URI:http://ocsp.sub-ca.localhost:9081
            X509v3 Authority Key Identifier: 
                4D:A1:8D:85:C1:C1:ED:E8:9A:39:B5:05:2D:3B:72:88:8F:77:D0:82
            X509v3 Basic Constraints: critical
                CA:FALSE
            X509v3 CRL Distribution Points: 
                Full Name:
                  URI:http://sub-ca.localhost/sub-ca.crl
            X509v3 Extended Key Usage: 
                TLS Web Client Authentication
            X509v3 Key Usage: critical
                Digital Signature
            X509v3 Subject Key Identifier: 
                5D:23:2A:F0:EA:BE:33:05:28:47:18:91:6F:41:CD:69:8F:47:FC:7D
    Signature Algorithm: sha256WithRSAEncryption
    Signature Value:
        19:05:f3:85:a0:31:26:5a:40:32:80:2c:f2:f2:6d:9d:a2:63:
        61:65:b7:d1:62:c0:a5:5c:8a:67:74:7e:13:19:39:83:87:70:
        23:5f:25:5c:56:cc:2d:39:27:6c:17:8f:ac:b1:31:5f:80:37:
        db:88:d1:74:a6:64:aa:62:30:1e:e1:e1:cd:04:51:78:73:04:
        0b:a4:a8:77:b3:76:ee:a5:07:0d:5e:57:cc:97:d9:9f:db:6a:
        ab:4c:2b:fb:3f:b8:e1:8b:92:38:57:91:6e:85:61:16:09:80:
        0a:70:5d:c2:c5:93:48:f8:bd:ae:1f:30:94:05:7c:80:29:9f:
        1c:2a:19:d4:c2:77:30:2b:0c:4a:93:2e:7b:6b:b6:06:5b:c5:
        9d:65:28:52:1c:2e:5f:53:07:c0:cb:d4:88:51:10:92:f0:7d:
        c4:f1:f6:ff:4c:49:64:06:0b:ff:00:0a:90:48:1b:13:c6:fe:
        5f:a9:8a:70:c7:33:e4:f7:a4:d0:08:30:89:dd:37:bf:c4:26:
        d5:d1:99:35:6f:5f:d4:01:b7:0d:53:d3:12:45:92:2f:0c:06:
        21:3c:7c:c3:4e:41:ab:18:41:35:25:f0:20:7e:e2:7d:7e:ac:
        8f:0e:29:70:99:6f:2e:fa:2c:7d:61:48:0b:31:89:4c:78:18:
        2c:cc:08:c8
-----BEGIN CERTIFICATE-----
MIIELDCCAxSgAwIBAgIRAMiw7vAkAdeKHRRAO5D/RywwDQYJKoZIhvcNAQELBQAw
QjELMAkGA1UEBhMCVVMxIjAgBgNVBAoMGVBvcnRsYW5kIFN0YXRlIFVuaXZlcnNp
dHkxDzANBgNVBAMMBlN1YiBDQTAeFw0yMzA2MTkxNjA2MTRaFw0zMzA2MTYxNjA2
MTRaMEIxCzAJBgNVBAYTAlVTMSIwIAYDVQQKDBlQb3J0bGFuZCBTdGF0ZSBVbml2
ZXJzaXR5MQ8wDQYDVQQDDAZTdWIgQ0EwggEiMA0GCSqGSIb3DQEBAQUAA4IBDwAw
ggEKAoIBAQCoaHAYhUHkWTh8Vk4ZQ1R5jhgtgWeVQEOkwB6U/Hg1gRXLsvOlVGU2
EbIZzZbBdC2jUPd9fSy5xR1tUiV9aUGQrrsEWGtRakBn8fPtU3U5o3Fh68xVHgbz
XDoVHfN65z+dXpuql8LXOeJNAvVe+lWUQUI0COc9niJ0IYtkXkTfRFtuSWFn8IDA
Es+lceuukzkFZwNS9YRXtW4STMU7n+mWt7f+DCygM5dtd5OfumQaxh7nREimc70C
I2+lJSPRfGHM+0trX5SL5uSwh02RFKFPXw2agcxZuYCaMygbanBl+roFPkW6OjNN
jvpkdiriwkQyWtIrZAu3jDWw7WA3lj6dAgMBAAGjggEbMIIBFzBtBggrBgEFBQcB
AQRhMF8wLgYIKwYBBQUHMAKGImh0dHA6Ly9zdWItY2EubG9jYWxob3N0L3N1Yi1j
YS5jcnQwLQYIKwYBBQUHMAGGIWh0dHA6Ly9vY3NwLnN1Yi1jYS5sb2NhbGhvc3Q6
OTA4MTAfBgNVHSMEGDAWgBRNoY2FwcHt6Jo5tQUtO3KIj3fQgjAMBgNVHRMBAf8E
AjAAMDMGA1UdHwQsMCowKKAmoCSGImh0dHA6Ly9zdWItY2EubG9jYWxob3N0L3N1
Yi1jYS5jcmwwEwYDVR0lBAwwCgYIKwYBBQUHAwIwDgYDVR0PAQH/BAQDAgeAMB0G
A1UdDgQWBBRdIyrw6r4zBShHGJFvQc1pj0f8fTANBgkqhkiG9w0BAQsFAAOCAQEA
GQXzhaAxJlpAMoAs8vJtnaJjYWW30WLApVyKZ3R+Exk5g4dwI18lXFbMLTknbBeP
rLExX4A324jRdKZkqmIwHuHhzQRReHMEC6Sod7N27qUHDV5XzJfZn9tqq0wr+z+4
4YuSOFeRboVhFgmACnBdwsWTSPi9rh8wlAV8gCmfHCoZ1MJ3MCsMSpMue2u2BlvF
nWUoUhwuX1MHwMvUiFEQkvB9xPH2/0xJZAYL/wAKkEgbE8b+X6mKcMcz5Pek0Agw
id03v8Qm1dGZNW9f1AG3DVPTEkWSLwwGITx8w05BqxhBNSXwIH7ifX6sjw4pcJlv
LvosfWFICzGJTHgYLMwIyA==
-----END CERTIFICATE-----
