Certificate:
    Data:
        Version: 3 (0x2)
        Serial Number:
            c8:b0:ee:f0:24:01:d7:8a:1d:14:40:3b:90:ff:46:e5
        Signature Algorithm: sha256WithRSAEncryption
        Issuer: C=US, O=Portland State University, CN=Sub CA
        Validity
            Not Before: Nov  8 20:35:30 2022 GMT
            Not After : Nov  5 20:35:30 2032 GMT
        Subject: C=US, O=Portland State University, CN=Sub CA
        Subject Public Key Info:
            Public Key Algorithm: rsaEncryption
                Public-Key: (2048 bit)
                Modulus:
                    00:98:3a:43:82:52:20:96:44:f4:38:80:ef:0c:d5:
                    77:26:9f:c1:6c:6b:71:66:d7:1e:3d:a6:7d:18:48:
                    3b:bf:06:7d:01:fe:2d:41:e7:be:8c:2a:aa:04:36:
                    64:d6:36:45:d7:54:70:6e:a8:7e:3f:5b:5b:b8:34:
                    d5:54:11:ad:b5:83:94:72:a8:a8:d5:c6:60:b5:bf:
                    8f:8f:cb:4a:06:df:29:db:62:62:5d:42:0e:47:2c:
                    85:3b:76:a2:84:f4:25:73:de:3a:11:ca:a8:c7:bc:
                    7d:88:fd:3a:83:1f:8e:1c:a0:03:31:c4:92:f2:cd:
                    81:02:2a:15:11:a6:cf:ca:3c:3d:ab:90:7a:fe:27:
                    98:db:ee:35:45:50:83:51:33:82:14:19:49:47:e3:
                    2d:e9:70:be:ba:a0:d8:be:9e:9e:e6:c5:12:00:3d:
                    b0:b2:10:b0:73:85:04:2c:13:47:e1:40:ad:8c:11:
                    d2:e6:d7:b4:b2:fd:86:ed:83:e8:11:32:c1:df:aa:
                    b2:a8:25:94:78:a4:36:16:e6:97:52:76:2d:2c:05:
                    21:b0:82:b8:16:a4:48:51:04:a2:f0:14:a2:2b:e5:
                    f3:16:55:32:d2:8f:65:8e:e7:f3:1a:b6:b7:e3:79:
                    43:93:74:02:d0:04:69:85:d7:a7:8c:40:8f:f1:76:
                    67:63
                Exponent: 65537 (0x10001)
        X509v3 extensions:
            Authority Information Access: 
                CA Issuers - URI:http://sub-ca.localhost/sub-ca.crt
                OCSP - URI:http://ocsp.sub-ca.localhost:9081
            X509v3 Authority Key Identifier: 
                4D:A1:8D:85:C1:C1:ED:E8:9A:39:B5:05:2D:3B:72:88:8F:77:D0:82
            X509v3 Basic Constraints: critical
                CA:FALSE
            X509v3 CRL Distribution Points: 
                Full Name:
                  URI:http://sub-ca.localhost/sub-ca.crl
            X509v3 Extended Key Usage: 
                TLS Web Client Authentication
            X509v3 Key Usage: critical
                Digital Signature
            X509v3 Subject Key Identifier: 
                AF:C6:1E:C4:B2:B9:F8:27:2D:3D:16:00:AB:5F:84:C5:C2:5F:C2:6B
    Signature Algorithm: sha256WithRSAEncryption
    Signature Value:
        6d:0c:ca:e9:e6:5d:6d:3b:46:60:23:89:cb:c7:f0:98:8e:9d:
        da:7d:6a:2d:c6:9b:79:75:0c:21:7e:e3:6d:60:bb:2a:d9:1e:
        fe:f9:09:70:ae:76:38:42:75:54:f4:fd:ef:2d:8c:dd:80:09:
        b5:fa:c8:cc:81:74:64:fe:68:77:34:f3:30:d2:69:44:c7:8f:
        e7:32:e0:97:bd:4b:e1:bb:56:41:85:e9:2a:c6:0b:c1:f3:a2:
        c7:22:de:3d:f5:00:18:23:35:1a:ef:d6:e3:71:7e:9a:29:6d:
        7a:7e:f9:7e:d1:0b:17:af:e4:62:3f:79:b9:d8:de:38:a4:31:
        dc:4c:14:61:93:71:8e:bc:68:70:39:35:75:20:f1:db:a0:d9:
        1c:5f:f7:16:fc:a7:73:b3:38:4d:2d:7a:94:5b:11:37:57:21:
        61:5d:a7:9b:1c:c3:cc:fa:17:1d:d8:53:b8:68:7f:eb:93:7a:
        bb:a8:05:93:72:d7:88:1d:11:c9:58:c7:37:d4:70:67:81:64:
        04:4b:37:ba:9d:7a:2a:0c:5d:0d:bb:06:08:f0:87:a1:5c:b8:
        26:88:78:5e:48:c3:1e:bc:fd:53:1b:56:09:54:47:fc:c0:2a:
        ef:9c:c5:8c:1c:e5:08:4a:ac:fe:68:43:39:fd:03:90:35:7f:
        de:35:df:5f
-----BEGIN CERTIFICATE-----
MIIELDCCAxSgAwIBAgIRAMiw7vAkAdeKHRRAO5D/RuUwDQYJKoZIhvcNAQELBQAw
QjELMAkGA1UEBhMCVVMxIjAgBgNVBAoMGVBvcnRsYW5kIFN0YXRlIFVuaXZlcnNp
dHkxDzANBgNVBAMMBlN1YiBDQTAeFw0yMjExMDgyMDM1MzBaFw0zMjExMDUyMDM1
MzBaMEIxCzAJBgNVBAYTAlVTMSIwIAYDVQQKDBlQb3J0bGFuZCBTdGF0ZSBVbml2
ZXJzaXR5MQ8wDQYDVQQDDAZTdWIgQ0EwggEiMA0GCSqGSIb3DQEBAQUAA4IBDwAw
ggEKAoIBAQCYOkOCUiCWRPQ4gO8M1Xcmn8Fsa3Fm1x49pn0YSDu/Bn0B/i1B576M
KqoENmTWNkXXVHBuqH4/W1u4NNVUEa21g5RyqKjVxmC1v4+Py0oG3ynbYmJdQg5H
LIU7dqKE9CVz3joRyqjHvH2I/TqDH44coAMxxJLyzYECKhURps/KPD2rkHr+J5jb
7jVFUINRM4IUGUlH4y3pcL66oNi+np7mxRIAPbCyELBzhQQsE0fhQK2MEdLm17Sy
/Ybtg+gRMsHfqrKoJZR4pDYW5pdSdi0sBSGwgrgWpEhRBKLwFKIr5fMWVTLSj2WO
5/MatrfjeUOTdALQBGmF16eMQI/xdmdjAgMBAAGjggEbMIIBFzBtBggrBgEFBQcB
AQRhMF8wLgYIKwYBBQUHMAKGImh0dHA6Ly9zdWItY2EubG9jYWxob3N0L3N1Yi1j
YS5jcnQwLQYIKwYBBQUHMAGGIWh0dHA6Ly9vY3NwLnN1Yi1jYS5sb2NhbGhvc3Q6
OTA4MTAfBgNVHSMEGDAWgBRNoY2FwcHt6Jo5tQUtO3KIj3fQgjAMBgNVHRMBAf8E
AjAAMDMGA1UdHwQsMCowKKAmoCSGImh0dHA6Ly9zdWItY2EubG9jYWxob3N0L3N1
Yi1jYS5jcmwwEwYDVR0lBAwwCgYIKwYBBQUHAwIwDgYDVR0PAQH/BAQDAgeAMB0G
A1UdDgQWBBSvxh7Esrn4Jy09FgCrX4TFwl/CazANBgkqhkiG9w0BAQsFAAOCAQEA
bQzK6eZdbTtGYCOJy8fwmI6d2n1qLcabeXUMIX7jbWC7Ktke/vkJcK52OEJ1VPT9
7y2M3YAJtfrIzIF0ZP5odzTzMNJpRMeP5zLgl71L4btWQYXpKsYLwfOixyLePfUA
GCM1Gu/W43F+milten75ftELF6/kYj95udjeOKQx3EwUYZNxjrxocDk1dSDx26DZ
HF/3Fvync7M4TS16lFsRN1chYV2nmxzDzPoXHdhTuGh/65N6u6gFk3LXiB0RyVjH
N9RwZ4FkBEs3up16KgxdDbsGCPCHoVy4Joh4XkjDHrz9UxtWCVRH/MAq75zFjBzl
CEqs/mhDOf0DkDV/3jXfXw==
-----END CERTIFICATE-----
