Certificate:
    Data:
        Version: 3 (0x2)
        Serial Number:
            c8:b0:ee:f0:24:01:d7:8a:1d:14:40:3b:90:ff:46:fb
        Signature Algorithm: sha256WithRSAEncryption
        Issuer: C=US, O=Portland State University, CN=Sub CA
        Validity
            Not Before: Jun 19 16:06:07 2023 GMT
            Not After : Jun 16 16:06:07 2033 GMT
        Subject: C=US, O=Portland State University, CN=Sub CA
        Subject Public Key Info:
            Public Key Algorithm: rsaEncryption
                Public-Key: (2048 bit)
                Modulus:
                    00:bd:c5:18:d8:df:45:52:f8:b1:eb:33:8b:83:e2:
                    ed:5b:25:4d:3d:24:59:a2:be:77:fc:41:c9:80:e5:
                    ff:a7:24:90:1b:81:0f:d7:f3:17:9a:ed:3c:2e:ad:
                    29:71:65:b0:9e:a0:b4:10:0b:76:80:66:8d:e4:4a:
                    cb:fa:a7:09:51:22:65:03:73:e0:91:09:58:f1:d3:
                    ac:06:83:dc:18:29:f7:dc:be:20:f2:89:83:b2:24:
                    ad:68:d9:d0:9a:16:fa:f8:ae:b7:3f:1c:08:6c:e2:
                    ee:8e:ea:32:6d:9f:54:0f:0f:ef:b8:61:4d:28:48:
                    84:9b:70:db:b1:32:89:96:be:34:60:68:64:92:6e:
                    e9:6e:c5:99:87:26:d9:c3:82:bd:99:4f:6f:8a:90:
                    eb:52:e2:86:b3:c7:02:de:2e:c0:9b:3a:84:a7:da:
                    d5:de:e7:2b:de:92:6e:1c:b1:f5:48:31:b1:1a:56:
                    13:df:78:47:eb:b5:df:ba:c0:07:47:8c:94:4a:a6:
                    b6:38:91:8c:e6:c5:dc:ec:c1:f5:3c:26:21:c8:71:
                    62:73:38:a3:05:bd:f1:67:b3:03:e3:6c:43:07:ba:
                    cb:c4:bb:6c:bb:2d:f8:2d:a6:f1:36:2e:3d:79:08:
                    a7:10:53:44:b8:c4:47:a5:36:1b:6d:8f:f2:ac:bf:
                    e5:67
                Exponent: 65537 (0x10001)
        X509v3 extensions:
            Authority Information Access: 
                CA Issuers - URI:http://sub-ca.localhost/sub-ca.crt
                OCSP - URI:http://ocsp.sub-ca.localhost:9081
            X509v3 Authority Key Identifier: 
                4D:A1:8D:85:C1:C1:ED:E8:9A:39:B5:05:2D:3B:72:88:8F:77:D0:82
            X509v3 Basic Constraints: critical
                CA:FALSE
            X509v3 CRL Distribution Points: 
                Full Name:
                  URI:http://sub-ca.localhost/sub-ca.crl
            X509v3 Extended Key Usage: 
                TLS Web Client Authentication
            X509v3 Key Usage: critical
                Digital Signature
            X509v3 Subject Key Identifier: 
                31:9C:8B:9F:EC:3C:2A:6B:E0:50:89:11:E9:2E:C8:B3:6C:B9:8E:CC
    Signature Algorithm: sha256WithRSAEncryption
    Signature Value:
        46:cd:f6:ae:6b:3e:50:41:e6:ac:59:0f:4c:06:ed:2c:da:04:
        8d:b0:1a:72:43:f4:ac:47:a1:80:11:e5:66:a3:c6:c0:81:10:
        ae:58:38:c0:13:e3:60:2d:cd:07:18:58:b6:35:03:2a:c2:ba:
        61:36:a5:6a:cc:34:a6:4d:73:c1:40:21:81:3b:4b:51:a6:fd:
        14:5f:e9:e0:6c:2e:45:81:e2:27:c0:8f:d9:81:d5:16:e1:83:
        8c:5b:c3:d4:b5:d5:9a:9b:ba:11:a3:32:ae:e9:a1:13:1e:c5:
        41:bf:11:f4:7d:bf:3b:e1:30:1a:7d:f9:b3:5f:73:43:03:dc:
        41:70:42:62:f6:f0:60:b4:cf:e4:26:ba:80:3f:1a:c8:ab:6d:
        a9:51:ed:6c:50:b2:ec:77:ea:33:34:ba:50:8b:92:a4:ec:e3:
        41:33:e0:2d:1a:9c:a9:1a:03:d0:08:d6:0f:f9:8d:8b:00:f2:
        47:f4:ad:0a:05:54:f8:13:aa:d6:94:30:5e:17:92:43:ac:0f:
        cd:ec:fd:10:dd:c5:15:d8:50:a9:d3:61:25:92:fe:6c:c5:7e:
        82:7b:0e:3b:13:e3:0e:14:15:3e:3a:23:a9:61:b1:5c:9b:89:
        b3:8c:71:1d:ba:15:75:6a:6c:bc:b2:ea:ba:34:ed:78:f8:97:
        c7:8e:19:c5
-----BEGIN CERTIFICATE-----
MIIELDCCAxSgAwIBAgIRAMiw7vAkAdeKHRRAO5D/RvswDQYJKoZIhvcNAQELBQAw
QjELMAkGA1UEBhMCVVMxIjAgBgNVBAoMGVBvcnRsYW5kIFN0YXRlIFVuaXZlcnNp
dHkxDzANBgNVBAMMBlN1YiBDQTAeFw0yMzA2MTkxNjA2MDdaFw0zMzA2MTYxNjA2
MDdaMEIxCzAJBgNVBAYTAlVTMSIwIAYDVQQKDBlQb3J0bGFuZCBTdGF0ZSBVbml2
ZXJzaXR5MQ8wDQYDVQQDDAZTdWIgQ0EwggEiMA0GCSqGSIb3DQEBAQUAA4IBDwAw
ggEKAoIBAQC9xRjY30VS+LHrM4uD4u1bJU09JFmivnf8QcmA5f+nJJAbgQ/X8xea
7TwurSlxZbCeoLQQC3aAZo3kSsv6pwlRImUDc+CRCVjx06wGg9wYKffcviDyiYOy
JK1o2dCaFvr4rrc/HAhs4u6O6jJtn1QPD++4YU0oSISbcNuxMomWvjRgaGSSbulu
xZmHJtnDgr2ZT2+KkOtS4oazxwLeLsCbOoSn2tXe5yvekm4csfVIMbEaVhPfeEfr
td+6wAdHjJRKprY4kYzmxdzswfU8JiHIcWJzOKMFvfFnswPjbEMHusvEu2y7Lfgt
pvE2Lj15CKcQU0S4xEelNhttj/Ksv+VnAgMBAAGjggEbMIIBFzBtBggrBgEFBQcB
AQRhMF8wLgYIKwYBBQUHMAKGImh0dHA6Ly9zdWItY2EubG9jYWxob3N0L3N1Yi1j
YS5jcnQwLQYIKwYBBQUHMAGGIWh0dHA6Ly9vY3NwLnN1Yi1jYS5sb2NhbGhvc3Q6
OTA4MTAfBgNVHSMEGDAWgBRNoY2FwcHt6Jo5tQUtO3KIj3fQgjAMBgNVHRMBAf8E
AjAAMDMGA1UdHwQsMCowKKAmoCSGImh0dHA6Ly9zdWItY2EubG9jYWxob3N0L3N1
Yi1jYS5jcmwwEwYDVR0lBAwwCgYIKwYBBQUHAwIwDgYDVR0PAQH/BAQDAgeAMB0G
A1UdDgQWBBQxnIuf7Dwqa+BQiRHpLsizbLmOzDANBgkqhkiG9w0BAQsFAAOCAQEA
Rs32rms+UEHmrFkPTAbtLNoEjbAackP0rEehgBHlZqPGwIEQrlg4wBPjYC3NBxhY
tjUDKsK6YTalasw0pk1zwUAhgTtLUab9FF/p4GwuRYHiJ8CP2YHVFuGDjFvD1LXV
mpu6EaMyrumhEx7FQb8R9H2/O+EwGn35s19zQwPcQXBCYvbwYLTP5Ca6gD8ayKtt
qVHtbFCy7HfqMzS6UIuSpOzjQTPgLRqcqRoD0AjWD/mNiwDyR/StCgVU+BOq1pQw
XheSQ6wPzez9EN3FFdhQqdNhJZL+bMV+gnsOOxPjDhQVPjojqWGxXJuJs4xxHboV
dWpsvLLqujTtePiXx44ZxQ==
-----END CERTIFICATE-----
