Certificate:
    Data:
        Version: 3 (0x2)
        Serial Number:
            c8:b0:ee:f0:24:01:d7:8a:1d:14:40:3b:90:ff:47:2e
        Signature Algorithm: sha256WithRSAEncryption
        Issuer: C=US, O=Portland State University, CN=Sub CA
        Validity
            Not Before: Jun 19 16:06:14 2023 GMT
            Not After : Jun 16 16:06:14 2033 GMT
        Subject: C=US, O=Portland State University, CN=Sub CA
        Subject Public Key Info:
            Public Key Algorithm: rsaEncryption
                Public-Key: (2048 bit)
                Modulus:
                    00:ce:70:af:57:4b:ce:a6:38:b8:1e:b0:7b:55:27:
                    ca:87:cf:b4:cc:cb:98:3f:92:c1:fb:2f:6a:29:38:
                    fe:d6:42:46:9c:24:35:55:06:93:06:d5:0b:85:4c:
                    e6:8f:45:9c:95:2e:2b:54:0b:6d:d1:b9:bc:fe:1e:
                    4c:6f:1d:0a:a3:e0:e9:d8:82:4a:29:0f:3e:5c:e1:
                    ca:bc:03:61:13:13:dd:6d:eb:51:2e:7a:fb:e7:77:
                    8f:78:26:c1:18:f0:9f:06:24:41:31:d1:03:9d:7a:
                    eb:df:4d:b2:d6:de:0e:b5:b4:57:56:66:0b:e4:78:
                    c4:ae:5a:b4:af:bb:9d:a6:ad:7b:02:2d:a0:4e:92:
                    a9:59:9e:07:01:7d:8e:44:75:2f:89:52:c8:ab:11:
                    0a:a9:2c:50:e7:2f:7e:f6:4f:51:30:b6:b9:15:54:
                    38:1b:02:7d:3e:2a:09:49:34:86:a8:63:b6:2c:39:
                    48:82:60:fc:4e:88:cc:58:8e:93:70:ac:3e:ca:7a:
                    da:86:72:30:91:97:ad:9b:e9:04:16:89:21:5b:b8:
                    4c:fe:32:02:f3:0b:e6:4c:07:22:7a:93:ec:86:ab:
                    5b:91:3f:70:e7:8d:d9:2f:ae:b5:c4:cc:e5:38:fb:
                    3d:49:8a:b7:fc:f9:73:65:81:b6:65:a0:a5:42:0f:
                    db:6d
                Exponent: 65537 (0x10001)
        X509v3 extensions:
            Authority Information Access: 
                CA Issuers - URI:http://sub-ca.localhost/sub-ca.crt
                OCSP - URI:http://ocsp.sub-ca.localhost:9081
            X509v3 Authority Key Identifier: 
                4D:A1:8D:85:C1:C1:ED:E8:9A:39:B5:05:2D:3B:72:88:8F:77:D0:82
            X509v3 Basic Constraints: critical
                CA:FALSE
            X509v3 CRL Distribution Points: 
                Full Name:
                  URI:http://sub-ca.localhost/sub-ca.crl
            X509v3 Extended Key Usage: 
                TLS Web Client Authentication
            X509v3 Key Usage: critical
                Digital Signature
            X509v3 Subject Key Identifier: 
                48:2D:27:DB:E0:74:8C:C6:56:DC:D2:6D:FE:4A:9A:D8:26:90:F7:6C
    Signature Algorithm: sha256WithRSAEncryption
    Signature Value:
        a3:05:f6:98:64:c0:71:ec:e4:1f:91:14:7d:a5:8e:54:dc:de:
        b2:61:c9:c8:04:fb:5f:39:3d:90:e2:a7:90:28:2f:74:a6:e4:
        76:ba:e0:40:49:2e:31:03:47:a4:b5:6f:dc:98:b3:50:06:61:
        ea:72:b9:7f:cd:ef:b2:1f:dd:a2:59:9c:be:87:09:b4:27:60:
        b3:f4:3e:64:b3:43:5d:45:bc:bd:e4:7f:09:8c:b4:42:6c:9f:
        88:8d:da:8f:50:38:f0:f1:f3:b8:e3:e5:a2:e6:d5:45:f4:c6:
        ba:ea:c1:3d:b7:66:a8:ea:7c:e8:53:c9:61:8f:18:b2:ea:1e:
        92:26:85:63:c0:89:aa:e4:52:5d:21:23:30:8c:f2:6a:6d:71:
        ab:84:41:84:ad:2a:89:1f:c3:25:cd:44:27:30:5a:96:50:09:
        c4:44:f0:fa:b9:72:b6:e1:e5:6a:6d:4c:c8:a1:a2:31:24:d2:
        f3:61:c2:5b:ed:50:40:5f:01:52:8a:2e:55:2f:53:2a:6b:0f:
        0a:94:a3:66:5b:d0:e6:75:30:c6:e2:43:68:2e:07:9a:18:64:
        9d:7a:25:5b:96:fb:27:bb:1d:e5:48:5e:cf:1c:fb:f9:d2:70:
        9b:03:88:0c:ee:d7:56:59:f5:a9:db:85:f4:57:05:d9:78:19:
        09:bc:27:84
-----BEGIN CERTIFICATE-----
MIIELDCCAxSgAwIBAgIRAMiw7vAkAdeKHRRAO5D/Ry4wDQYJKoZIhvcNAQELBQAw
QjELMAkGA1UEBhMCVVMxIjAgBgNVBAoMGVBvcnRsYW5kIFN0YXRlIFVuaXZlcnNp
dHkxDzANBgNVBAMMBlN1YiBDQTAeFw0yMzA2MTkxNjA2MTRaFw0zMzA2MTYxNjA2
MTRaMEIxCzAJBgNVBAYTAlVTMSIwIAYDVQQKDBlQb3J0bGFuZCBTdGF0ZSBVbml2
ZXJzaXR5MQ8wDQYDVQQDDAZTdWIgQ0EwggEiMA0GCSqGSIb3DQEBAQUAA4IBDwAw
ggEKAoIBAQDOcK9XS86mOLgesHtVJ8qHz7TMy5g/ksH7L2opOP7WQkacJDVVBpMG
1QuFTOaPRZyVLitUC23Rubz+HkxvHQqj4OnYgkopDz5c4cq8A2ETE91t61Euevvn
d494JsEY8J8GJEEx0QOdeuvfTbLW3g61tFdWZgvkeMSuWrSvu52mrXsCLaBOkqlZ
ngcBfY5EdS+JUsirEQqpLFDnL372T1EwtrkVVDgbAn0+KglJNIaoY7YsOUiCYPxO
iMxYjpNwrD7KetqGcjCRl62b6QQWiSFbuEz+MgLzC+ZMByJ6k+yGq1uRP3Dnjdkv
rrXEzOU4+z1Jirf8+XNlgbZloKVCD9ttAgMBAAGjggEbMIIBFzBtBggrBgEFBQcB
AQRhMF8wLgYIKwYBBQUHMAKGImh0dHA6Ly9zdWItY2EubG9jYWxob3N0L3N1Yi1j
YS5jcnQwLQYIKwYBBQUHMAGGIWh0dHA6Ly9vY3NwLnN1Yi1jYS5sb2NhbGhvc3Q6
OTA4MTAfBgNVHSMEGDAWgBRNoY2FwcHt6Jo5tQUtO3KIj3fQgjAMBgNVHRMBAf8E
AjAAMDMGA1UdHwQsMCowKKAmoCSGImh0dHA6Ly9zdWItY2EubG9jYWxob3N0L3N1
Yi1jYS5jcmwwEwYDVR0lBAwwCgYIKwYBBQUHAwIwDgYDVR0PAQH/BAQDAgeAMB0G
A1UdDgQWBBRILSfb4HSMxlbc0m3+SprYJpD3bDANBgkqhkiG9w0BAQsFAAOCAQEA
owX2mGTAcezkH5EUfaWOVNzesmHJyAT7Xzk9kOKnkCgvdKbkdrrgQEkuMQNHpLVv
3JizUAZh6nK5f83vsh/dolmcvocJtCdgs/Q+ZLNDXUW8veR/CYy0QmyfiI3aj1A4
8PHzuOPloubVRfTGuurBPbdmqOp86FPJYY8YsuoekiaFY8CJquRSXSEjMIzyam1x
q4RBhK0qiR/DJc1EJzBallAJxETw+rlytuHlam1MyKGiMSTS82HCW+1QQF8BUoou
VS9TKmsPCpSjZlvQ5nUwxuJDaC4HmhhknXolW5b7J7sd5Uhezxz7+dJwmwOIDO7X
Vln1qduF9FcF2XgZCbwnhA==
-----END CERTIFICATE-----
