Certificate:
    Data:
        Version: 3 (0x2)
        Serial Number:
            c8:b0:ee:f0:24:01:d7:8a:1d:14:40:3b:90:ff:46:e2
        Signature Algorithm: sha256WithRSAEncryption
        Issuer: C=US, O=Portland State University, CN=Sub CA
        Validity
            Not Before: Nov  8 20:35:29 2022 GMT
            Not After : Nov  5 20:35:29 2032 GMT
        Subject: C=US, O=Portland State University, CN=Sub CA
        Subject Public Key Info:
            Public Key Algorithm: rsaEncryption
                Public-Key: (2048 bit)
                Modulus:
                    00:b0:ca:7b:4c:79:59:a5:62:3f:04:9f:d0:91:c5:
                    c3:9a:6b:8b:f2:e9:54:4b:8f:fb:c1:36:28:e7:ed:
                    89:ed:0b:89:c5:5f:8e:4c:f1:41:2d:03:08:e5:17:
                    e1:1a:c9:b1:b8:8d:63:61:dc:e9:54:ab:90:8a:1b:
                    96:42:4f:09:c9:91:c9:0c:44:1a:d8:aa:a2:9f:e5:
                    6b:fb:df:69:ab:80:af:3a:68:eb:28:f4:f0:08:c3:
                    d9:79:2d:25:eb:f4:8a:4c:78:a3:85:2c:9e:d8:bf:
                    7f:34:ca:f4:87:60:a6:b7:cd:45:3b:9f:5a:05:6c:
                    39:10:d4:e7:25:50:c7:74:f8:13:15:20:43:11:9c:
                    e9:14:98:22:f8:47:12:ed:43:e6:71:7a:9d:0c:5f:
                    af:50:f7:b8:7a:b9:f9:e6:dc:0c:c8:6d:c4:c3:91:
                    07:dc:47:82:d4:5c:9d:6f:d4:9d:13:04:cb:9b:38:
                    9d:86:58:65:92:1c:0e:fd:57:a1:56:1d:ce:30:67:
                    a1:26:fc:9c:f1:40:55:f3:21:bf:1e:60:da:cb:ba:
                    3f:2e:57:45:01:19:77:03:c4:cd:c7:57:34:44:26:
                    24:bd:b9:c5:3a:02:45:9e:26:8c:4e:d6:69:f4:07:
                    27:cd:60:f3:53:4b:42:81:ad:b6:6a:5b:5e:cf:4a:
                    03:e3
                Exponent: 65537 (0x10001)
        X509v3 extensions:
            Authority Information Access: 
                CA Issuers - URI:http://sub-ca.localhost/sub-ca.crt
                OCSP - URI:http://ocsp.sub-ca.localhost:9081
            X509v3 Authority Key Identifier: 
                4D:A1:8D:85:C1:C1:ED:E8:9A:39:B5:05:2D:3B:72:88:8F:77:D0:82
            X509v3 Basic Constraints: critical
                CA:FALSE
            X509v3 CRL Distribution Points: 
                Full Name:
                  URI:http://sub-ca.localhost/sub-ca.crl
            X509v3 Extended Key Usage: 
                TLS Web Client Authentication
            X509v3 Key Usage: critical
                Digital Signature
            X509v3 Subject Key Identifier: 
                05:06:42:23:2A:22:19:E8:57:04:33:76:0C:B8:0B:19:CA:A3:15:68
    Signature Algorithm: sha256WithRSAEncryption
    Signature Value:
        9d:71:bd:4f:73:11:3d:36:fb:6c:f9:db:64:12:17:17:22:da:
        3e:7d:38:19:00:96:a3:66:7d:77:d2:6b:e6:b7:7e:9a:77:d3:
        93:83:f2:da:d3:9d:0e:5a:fd:7c:3a:59:8a:8f:98:a4:92:5c:
        43:10:d2:df:d2:ac:66:c9:eb:d1:44:ca:5e:7d:9d:e9:a8:40:
        b9:57:44:13:a0:50:4c:d1:df:c6:77:b5:56:be:33:5d:7e:a1:
        5e:77:f7:3d:70:c7:b6:eb:fa:ab:03:39:ee:29:1e:27:c6:4f:
        cc:3b:a0:63:3a:db:8b:05:2b:af:c0:83:f5:6f:66:62:b8:85:
        69:3a:a9:4f:41:c5:cf:ff:03:f1:e3:7c:38:eb:d6:1b:f9:5c:
        37:4a:9d:a8:68:c9:2d:79:15:d5:53:f4:d7:41:69:e4:4f:76:
        a8:cd:6a:c4:0a:bd:67:b4:c1:47:77:cc:6f:fa:63:61:11:43:
        e5:00:f1:de:5f:9a:a8:5e:0b:1b:f0:f5:c9:93:91:d1:97:7c:
        a1:23:ce:f9:b7:6a:47:d6:a4:c9:a0:9a:52:30:7d:64:ed:4a:
        cf:94:f6:c9:e8:41:48:02:00:38:8e:32:c2:f5:77:1f:87:23:
        56:23:8c:98:08:53:36:a4:cd:d6:0b:8d:2b:d3:00:a1:ba:3c:
        48:25:65:76
-----BEGIN CERTIFICATE-----
MIIELDCCAxSgAwIBAgIRAMiw7vAkAdeKHRRAO5D/RuIwDQYJKoZIhvcNAQELBQAw
QjELMAkGA1UEBhMCVVMxIjAgBgNVBAoMGVBvcnRsYW5kIFN0YXRlIFVuaXZlcnNp
dHkxDzANBgNVBAMMBlN1YiBDQTAeFw0yMjExMDgyMDM1MjlaFw0zMjExMDUyMDM1
MjlaMEIxCzAJBgNVBAYTAlVTMSIwIAYDVQQKDBlQb3J0bGFuZCBTdGF0ZSBVbml2
ZXJzaXR5MQ8wDQYDVQQDDAZTdWIgQ0EwggEiMA0GCSqGSIb3DQEBAQUAA4IBDwAw
ggEKAoIBAQCwyntMeVmlYj8En9CRxcOaa4vy6VRLj/vBNijn7YntC4nFX45M8UEt
AwjlF+EaybG4jWNh3OlUq5CKG5ZCTwnJkckMRBrYqqKf5Wv732mrgK86aOso9PAI
w9l5LSXr9IpMeKOFLJ7Yv380yvSHYKa3zUU7n1oFbDkQ1OclUMd0+BMVIEMRnOkU
mCL4RxLtQ+Zxep0MX69Q97h6ufnm3AzIbcTDkQfcR4LUXJ1v1J0TBMubOJ2GWGWS
HA79V6FWHc4wZ6Em/JzxQFXzIb8eYNrLuj8uV0UBGXcDxM3HVzREJiS9ucU6AkWe
JoxO1mn0ByfNYPNTS0KBrbZqW17PSgPjAgMBAAGjggEbMIIBFzBtBggrBgEFBQcB
AQRhMF8wLgYIKwYBBQUHMAKGImh0dHA6Ly9zdWItY2EubG9jYWxob3N0L3N1Yi1j
YS5jcnQwLQYIKwYBBQUHMAGGIWh0dHA6Ly9vY3NwLnN1Yi1jYS5sb2NhbGhvc3Q6
OTA4MTAfBgNVHSMEGDAWgBRNoY2FwcHt6Jo5tQUtO3KIj3fQgjAMBgNVHRMBAf8E
AjAAMDMGA1UdHwQsMCowKKAmoCSGImh0dHA6Ly9zdWItY2EubG9jYWxob3N0L3N1
Yi1jYS5jcmwwEwYDVR0lBAwwCgYIKwYBBQUHAwIwDgYDVR0PAQH/BAQDAgeAMB0G
A1UdDgQWBBQFBkIjKiIZ6FcEM3YMuAsZyqMVaDANBgkqhkiG9w0BAQsFAAOCAQEA
nXG9T3MRPTb7bPnbZBIXFyLaPn04GQCWo2Z9d9Jr5rd+mnfTk4Py2tOdDlr9fDpZ
io+YpJJcQxDS39KsZsnr0UTKXn2d6ahAuVdEE6BQTNHfxne1Vr4zXX6hXnf3PXDH
tuv6qwM57ikeJ8ZPzDugYzrbiwUrr8CD9W9mYriFaTqpT0HFz/8D8eN8OOvWG/lc
N0qdqGjJLXkV1VP010Fp5E92qM1qxAq9Z7TBR3fMb/pjYRFD5QDx3l+aqF4LG/D1
yZOR0Zd8oSPO+bdqR9akyaCaUjB9ZO1Kz5T2yehBSAIAOI4ywvV3H4cjViOMmAhT
NqTN1guNK9MAobo8SCVldg==
-----END CERTIFICATE-----
