Certificate:
    Data:
        Version: 3 (0x2)
        Serial Number:
            c8:b0:ee:f0:24:01:d7:8a:1d:14:40:3b:90:ff:47:16
        Signature Algorithm: sha256WithRSAEncryption
        Issuer: C=US, O=Portland State University, CN=Sub CA
        Validity
            Not Before: Jun 19 16:06:10 2023 GMT
            Not After : Jun 16 16:06:10 2033 GMT
        Subject: C=US, O=Portland State University, CN=Sub CA
        Subject Public Key Info:
            Public Key Algorithm: rsaEncryption
                Public-Key: (2048 bit)
                Modulus:
                    00:ce:d5:96:78:a0:98:dd:70:07:37:06:7b:b5:9c:
                    42:ea:1b:6c:12:bb:bb:3a:99:bc:09:b0:3b:6b:0f:
                    b3:5d:b0:bd:db:9f:59:04:bc:8d:5e:5e:82:d6:30:
                    8a:3d:21:88:b5:b0:db:90:2b:1d:fa:65:e2:25:63:
                    70:ed:79:be:b2:ad:ae:45:52:ef:e9:12:2d:f6:8c:
                    cf:7a:13:1e:32:32:14:42:2a:32:97:a2:45:2c:3f:
                    7f:7c:41:d7:47:01:12:fb:01:50:86:f7:3d:c1:e1:
                    72:1c:85:ab:d8:25:0c:af:81:71:4a:37:32:2e:2d:
                    8c:e7:7b:a4:f4:d4:48:1e:2f:14:3a:e0:ce:cd:15:
                    72:ba:14:c1:e5:37:bb:56:e2:42:39:5b:16:59:dd:
                    c3:4f:51:8f:9d:01:df:b6:64:10:f6:10:72:5e:8b:
                    fc:53:41:de:ba:40:de:10:f6:28:b8:e0:df:14:dd:
                    70:f2:d4:f5:39:71:de:a4:ad:2b:00:53:ce:82:ef:
                    72:e2:15:9a:d4:83:78:f1:8d:66:77:85:1b:2a:2f:
                    53:f1:f7:7b:3a:fc:e3:52:f6:49:b5:45:b4:de:4e:
                    91:de:fb:42:86:18:56:55:24:7e:04:51:e1:ae:d9:
                    78:de:10:e2:23:68:6e:90:13:e7:4a:be:ea:de:b9:
                    5d:87
                Exponent: 65537 (0x10001)
        X509v3 extensions:
            Authority Information Access: 
                CA Issuers - URI:http://sub-ca.localhost/sub-ca.crt
                OCSP - URI:http://ocsp.sub-ca.localhost:9081
            X509v3 Authority Key Identifier: 
                4D:A1:8D:85:C1:C1:ED:E8:9A:39:B5:05:2D:3B:72:88:8F:77:D0:82
            X509v3 Basic Constraints: critical
                CA:FALSE
            X509v3 CRL Distribution Points: 
                Full Name:
                  URI:http://sub-ca.localhost/sub-ca.crl
            X509v3 Extended Key Usage: 
                TLS Web Client Authentication
            X509v3 Key Usage: critical
                Digital Signature
            X509v3 Subject Key Identifier: 
                77:84:4F:96:B5:3B:BB:7A:BE:6B:54:60:26:97:D6:1E:19:31:A9:45
    Signature Algorithm: sha256WithRSAEncryption
    Signature Value:
        a1:a3:b3:d1:67:e9:8a:e7:b5:ee:22:28:10:eb:d7:b5:7a:c9:
        d5:ff:cd:cf:d8:00:1e:88:e4:2d:c3:15:f0:ab:c3:8b:a3:01:
        a7:eb:e9:0f:11:c9:0b:3e:26:ed:49:3a:c0:07:75:0a:b9:f6:
        9c:0f:d1:d6:53:fd:fa:8b:1e:73:62:47:2c:6f:af:c1:f7:1e:
        3d:ef:2a:07:4e:22:b3:64:3b:e2:de:8d:54:a6:1b:56:21:b8:
        81:41:4b:9c:3e:82:6f:71:d3:c7:f1:96:05:61:0c:d7:1f:b8:
        2a:eb:58:40:b3:da:da:1e:89:86:c1:fa:cd:50:ab:59:69:11:
        99:ef:5d:81:69:c7:37:84:d3:8d:b7:a1:35:24:c9:34:d9:9e:
        28:db:41:10:b3:a4:c3:d6:5c:06:ee:0a:6d:96:71:42:35:33:
        22:36:c8:f1:1d:a4:25:c7:42:bb:1c:14:2e:f2:4d:af:80:06:
        00:91:40:34:2f:a1:e8:9c:ca:18:de:7f:a4:72:8a:df:10:aa:
        74:2d:12:7e:a2:e9:48:4f:6f:02:35:7e:f6:95:8c:01:7e:25:
        f7:cd:1e:4f:74:db:fd:63:ba:1a:e2:79:23:e9:0b:46:b8:cb:
        22:c8:ab:50:c5:30:e1:23:5e:ed:c9:ac:08:59:fb:ee:98:69:
        43:f9:ad:7c
-----BEGIN CERTIFICATE-----
MIIELDCCAxSgAwIBAgIRAMiw7vAkAdeKHRRAO5D/RxYwDQYJKoZIhvcNAQELBQAw
QjELMAkGA1UEBhMCVVMxIjAgBgNVBAoMGVBvcnRsYW5kIFN0YXRlIFVuaXZlcnNp
dHkxDzANBgNVBAMMBlN1YiBDQTAeFw0yMzA2MTkxNjA2MTBaFw0zMzA2MTYxNjA2
MTBaMEIxCzAJBgNVBAYTAlVTMSIwIAYDVQQKDBlQb3J0bGFuZCBTdGF0ZSBVbml2
ZXJzaXR5MQ8wDQYDVQQDDAZTdWIgQ0EwggEiMA0GCSqGSIb3DQEBAQUAA4IBDwAw
ggEKAoIBAQDO1ZZ4oJjdcAc3Bnu1nELqG2wSu7s6mbwJsDtrD7NdsL3bn1kEvI1e
XoLWMIo9IYi1sNuQKx36ZeIlY3Dteb6yra5FUu/pEi32jM96Ex4yMhRCKjKXokUs
P398QddHARL7AVCG9z3B4XIchavYJQyvgXFKNzIuLYzne6T01EgeLxQ64M7NFXK6
FMHlN7tW4kI5WxZZ3cNPUY+dAd+2ZBD2EHJei/xTQd66QN4Q9ii44N8U3XDy1PU5
cd6krSsAU86C73LiFZrUg3jxjWZ3hRsqL1Px93s6/ONS9km1RbTeTpHe+0KGGFZV
JH4EUeGu2XjeEOIjaG6QE+dKvureuV2HAgMBAAGjggEbMIIBFzBtBggrBgEFBQcB
AQRhMF8wLgYIKwYBBQUHMAKGImh0dHA6Ly9zdWItY2EubG9jYWxob3N0L3N1Yi1j
YS5jcnQwLQYIKwYBBQUHMAGGIWh0dHA6Ly9vY3NwLnN1Yi1jYS5sb2NhbGhvc3Q6
OTA4MTAfBgNVHSMEGDAWgBRNoY2FwcHt6Jo5tQUtO3KIj3fQgjAMBgNVHRMBAf8E
AjAAMDMGA1UdHwQsMCowKKAmoCSGImh0dHA6Ly9zdWItY2EubG9jYWxob3N0L3N1
Yi1jYS5jcmwwEwYDVR0lBAwwCgYIKwYBBQUHAwIwDgYDVR0PAQH/BAQDAgeAMB0G
A1UdDgQWBBR3hE+WtTu7er5rVGAml9YeGTGpRTANBgkqhkiG9w0BAQsFAAOCAQEA
oaOz0Wfpiue17iIoEOvXtXrJ1f/Nz9gAHojkLcMV8KvDi6MBp+vpDxHJCz4m7Uk6
wAd1Crn2nA/R1lP9+osec2JHLG+vwfcePe8qB04is2Q74t6NVKYbViG4gUFLnD6C
b3HTx/GWBWEM1x+4KutYQLPa2h6JhsH6zVCrWWkRme9dgWnHN4TTjbehNSTJNNme
KNtBELOkw9ZcBu4KbZZxQjUzIjbI8R2kJcdCuxwULvJNr4AGAJFANC+h6JzKGN5/
pHKK3xCqdC0SfqLpSE9vAjV+9pWMAX4l980eT3Tb/WO6GuJ5I+kLRrjLIsirUMUw
4SNe7cmsCFn77phpQ/mtfA==
-----END CERTIFICATE-----
