Certificate:
    Data:
        Version: 3 (0x2)
        Serial Number:
            c8:b0:ee:f0:24:01:d7:8a:1d:14:40:3b:90:ff:46:ef
        Signature Algorithm: sha256WithRSAEncryption
        Issuer: C=US, O=Portland State University, CN=Sub CA
        Validity
            Not Before: Jun 19 16:06:05 2023 GMT
            Not After : Jun 16 16:06:05 2033 GMT
        Subject: C=US, O=Portland State University, CN=Sub CA
        Subject Public Key Info:
            Public Key Algorithm: rsaEncryption
                Public-Key: (2048 bit)
                Modulus:
                    00:b2:1e:74:a2:54:d1:bb:9c:6a:c0:be:0f:d0:4c:
                    46:70:63:f7:1b:76:36:53:8c:36:f5:c1:24:c3:4b:
                    32:ca:04:b1:01:70:5d:55:49:85:83:1c:9e:b1:0d:
                    d7:38:c5:2a:66:9d:7c:d4:61:f6:15:cc:7f:90:35:
                    b3:c6:09:c6:c8:c2:1b:17:12:70:cc:d9:e7:1a:80:
                    f5:66:20:7a:d7:6c:1a:52:28:e3:8a:c4:27:a0:9d:
                    98:fb:2d:33:06:d0:39:fe:0f:fb:6a:50:ff:ac:a5:
                    7d:77:86:3e:5f:4c:47:ef:70:9a:a8:14:13:ee:13:
                    83:1e:bc:0b:58:9f:25:41:5d:59:ad:5d:77:9e:cb:
                    c8:08:94:8b:9f:dc:d4:cf:83:2b:76:61:b9:da:89:
                    69:31:c6:1d:ed:84:32:54:8d:12:44:ea:87:9e:56:
                    21:ce:4d:c2:42:b7:3e:56:19:9c:97:c9:4f:1e:a4:
                    85:23:e7:6b:0a:ff:f8:10:31:a2:2a:55:78:d5:2d:
                    06:f5:16:a7:cb:5f:32:bd:84:4f:0e:32:de:10:f1:
                    d9:12:5e:aa:08:48:b2:82:41:08:2c:6c:22:a5:5e:
                    c5:02:61:2e:c9:68:f8:11:3d:1e:8a:d6:77:f2:26:
                    1d:f4:71:96:15:d5:44:b4:27:13:16:0a:b7:7e:39:
                    69:17
                Exponent: 65537 (0x10001)
        X509v3 extensions:
            Authority Information Access: 
                CA Issuers - URI:http://sub-ca.localhost/sub-ca.crt
                OCSP - URI:http://ocsp.sub-ca.localhost:9081
            X509v3 Authority Key Identifier: 
                4D:A1:8D:85:C1:C1:ED:E8:9A:39:B5:05:2D:3B:72:88:8F:77:D0:82
            X509v3 Basic Constraints: critical
                CA:FALSE
            X509v3 CRL Distribution Points: 
                Full Name:
                  URI:http://sub-ca.localhost/sub-ca.crl
            X509v3 Extended Key Usage: 
                TLS Web Client Authentication
            X509v3 Key Usage: critical
                Digital Signature
            X509v3 Subject Key Identifier: 
                E4:C6:4D:51:96:EF:26:98:58:18:D9:3D:91:3D:EC:F4:D4:76:91:7E
    Signature Algorithm: sha256WithRSAEncryption
    Signature Value:
        9f:c9:56:9d:05:3d:3f:47:f5:37:e7:0b:2a:bc:1b:f4:6d:1c:
        06:86:0d:5f:ca:16:94:9f:73:df:5d:fb:23:69:97:ae:63:bd:
        17:44:b5:05:dc:27:1c:3d:78:9d:ac:9d:20:87:29:4e:2e:b9:
        1d:77:93:95:74:38:2e:50:7a:f6:05:85:00:79:3e:d3:01:f7:
        e1:a6:b6:7d:d2:dc:0c:53:14:22:32:77:5e:f8:8c:14:0c:2e:
        cb:c1:06:05:9b:29:24:6e:c0:bd:b3:8d:fa:a6:35:0f:16:61:
        9b:29:b2:04:34:2b:5e:cb:c2:1d:f8:68:d0:5e:4a:1d:92:4b:
        db:7c:e6:ae:ed:f5:21:d5:d5:4c:4b:2d:49:89:74:f1:4d:75:
        d2:0c:70:69:86:d1:f9:e2:74:46:02:0d:8b:41:b3:f9:0b:bc:
        62:3c:1a:23:a8:d7:18:47:bb:de:24:89:e7:89:bf:4c:50:e1:
        5b:38:6b:5e:09:cc:21:12:de:4a:ff:a8:d7:ca:ca:eb:12:2d:
        5c:d0:34:80:6f:8b:52:82:8d:7c:bf:5e:90:c3:a3:f7:29:8a:
        db:37:e3:de:ec:34:f5:b2:cd:7a:96:81:c8:f9:60:a9:64:db:
        68:63:15:32:5d:e9:03:08:5e:69:e6:9c:29:e9:74:e5:e0:e4:
        5b:f5:e2:e5
-----BEGIN CERTIFICATE-----
MIIELDCCAxSgAwIBAgIRAMiw7vAkAdeKHRRAO5D/Ru8wDQYJKoZIhvcNAQELBQAw
QjELMAkGA1UEBhMCVVMxIjAgBgNVBAoMGVBvcnRsYW5kIFN0YXRlIFVuaXZlcnNp
dHkxDzANBgNVBAMMBlN1YiBDQTAeFw0yMzA2MTkxNjA2MDVaFw0zMzA2MTYxNjA2
MDVaMEIxCzAJBgNVBAYTAlVTMSIwIAYDVQQKDBlQb3J0bGFuZCBTdGF0ZSBVbml2
ZXJzaXR5MQ8wDQYDVQQDDAZTdWIgQ0EwggEiMA0GCSqGSIb3DQEBAQUAA4IBDwAw
ggEKAoIBAQCyHnSiVNG7nGrAvg/QTEZwY/cbdjZTjDb1wSTDSzLKBLEBcF1VSYWD
HJ6xDdc4xSpmnXzUYfYVzH+QNbPGCcbIwhsXEnDM2ecagPVmIHrXbBpSKOOKxCeg
nZj7LTMG0Dn+D/tqUP+spX13hj5fTEfvcJqoFBPuE4MevAtYnyVBXVmtXXeey8gI
lIuf3NTPgyt2YbnaiWkxxh3thDJUjRJE6oeeViHOTcJCtz5WGZyXyU8epIUj52sK
//gQMaIqVXjVLQb1FqfLXzK9hE8OMt4Q8dkSXqoISLKCQQgsbCKlXsUCYS7JaPgR
PR6K1nfyJh30cZYV1US0JxMWCrd+OWkXAgMBAAGjggEbMIIBFzBtBggrBgEFBQcB
AQRhMF8wLgYIKwYBBQUHMAKGImh0dHA6Ly9zdWItY2EubG9jYWxob3N0L3N1Yi1j
YS5jcnQwLQYIKwYBBQUHMAGGIWh0dHA6Ly9vY3NwLnN1Yi1jYS5sb2NhbGhvc3Q6
OTA4MTAfBgNVHSMEGDAWgBRNoY2FwcHt6Jo5tQUtO3KIj3fQgjAMBgNVHRMBAf8E
AjAAMDMGA1UdHwQsMCowKKAmoCSGImh0dHA6Ly9zdWItY2EubG9jYWxob3N0L3N1
Yi1jYS5jcmwwEwYDVR0lBAwwCgYIKwYBBQUHAwIwDgYDVR0PAQH/BAQDAgeAMB0G
A1UdDgQWBBTkxk1Rlu8mmFgY2T2RPez01HaRfjANBgkqhkiG9w0BAQsFAAOCAQEA
n8lWnQU9P0f1N+cLKrwb9G0cBoYNX8oWlJ9z3137I2mXrmO9F0S1BdwnHD14nayd
IIcpTi65HXeTlXQ4LlB69gWFAHk+0wH34aa2fdLcDFMUIjJ3XviMFAwuy8EGBZsp
JG7AvbON+qY1DxZhmymyBDQrXsvCHfho0F5KHZJL23zmru31IdXVTEstSYl08U11
0gxwaYbR+eJ0RgINi0Gz+Qu8YjwaI6jXGEe73iSJ54m/TFDhWzhrXgnMIRLeSv+o
18rK6xItXNA0gG+LUoKNfL9ekMOj9ymK2zfj3uw09bLNepaByPlgqWTbaGMVMl3p
AwheaeacKel05eDkW/Xi5Q==
-----END CERTIFICATE-----
