Certificate:
    Data:
        Version: 3 (0x2)
        Serial Number:
            c8:b0:ee:f0:24:01:d7:8a:1d:14:40:3b:90:ff:46:da
        Signature Algorithm: sha256WithRSAEncryption
        Issuer: C=US, O=Portland State University, CN=Root CA
        Validity
            Not Before: Nov  8 20:33:16 2022 GMT
            Not After : Nov  5 20:33:16 2032 GMT
        Subject: C=US, O=Portland State University, CN=Sub CA
        Subject Public Key Info:
            Public Key Algorithm: rsaEncryption
                Public-Key: (2048 bit)
                Modulus:
                    00:ac:0e:24:21:3e:1c:b0:d6:0f:83:24:d4:86:c9:
                    f5:02:7e:9b:05:9a:7d:17:7f:37:e9:79:7d:c6:68:
                    9e:8a:cf:76:32:b8:30:66:8b:30:c8:11:27:33:b6:
                    92:e1:44:fa:0b:a9:62:dd:45:54:e0:87:bb:00:fb:
                    de:92:63:7a:d0:cf:01:dc:70:5a:4f:41:8c:d1:a1:
                    12:37:e9:29:9e:b5:00:8d:a6:ae:9d:cb:5f:b9:39:
                    83:be:41:ff:0e:a6:38:75:33:0f:bb:29:3f:90:2f:
                    2f:ea:e0:2f:a1:4c:84:c3:1f:8b:b4:24:82:5d:78:
                    c4:71:31:8b:fb:dc:a4:2c:e6:0e:32:84:b8:31:67:
                    9c:c2:30:74:87:66:6b:15:65:4c:3e:bc:a7:50:0f:
                    e9:59:fa:98:52:03:3e:e9:8e:53:ef:03:b4:f8:d2:
                    f5:9f:fd:a8:2b:0a:30:16:03:4c:c4:74:1b:57:a2:
                    1e:dc:d7:70:2e:9a:de:0d:c2:c7:c6:ba:c4:c8:19:
                    b1:38:64:d3:1e:d7:75:d4:f4:21:46:eb:21:c6:a0:
                    29:6a:f3:f0:45:1a:0e:66:fc:35:3c:89:f6:1f:a0:
                    54:e8:29:c6:7c:0a:36:56:b3:88:3e:d9:e1:a4:0a:
                    34:b8:46:5c:ab:14:c9:be:a6:6a:c7:ed:40:49:78:
                    b4:21
                Exponent: 65537 (0x10001)
        X509v3 extensions:
            Authority Information Access: 
                CA Issuers - URI:http://root-ca.localhost/root-ca.crt
                OCSP - URI:http://ocsp.root-ca.localhost:9080
            X509v3 Authority Key Identifier: 
                EE:94:FD:8F:04:E2:D9:10:D7:BC:82:1A:3B:BC:E7:B0:98:38:D0:4E
            X509v3 Basic Constraints: critical
                CA:TRUE, pathlen:0
            X509v3 CRL Distribution Points: 
                Full Name:
                  URI:http://root-ca.localhost/root-ca.crl
            X509v3 Extended Key Usage: 
                TLS Web Client Authentication, TLS Web Server Authentication
            X509v3 Key Usage: critical
                Certificate Sign, CRL Sign
            X509v3 Name Constraints: 
                Permitted:
                  DNS:example.com
                  IP:0.0.0.0/0.0.0.0
            X509v3 Subject Key Identifier: 
                4D:A1:8D:85:C1:C1:ED:E8:9A:39:B5:05:2D:3B:72:88:8F:77:D0:82
    Signature Algorithm: sha256WithRSAEncryption
    Signature Value:
        ba:2d:a8:ff:af:13:7f:0f:ff:cb:8c:5b:71:3c:57:44:c0:92:
        28:51:96:d6:43:2a:e1:d6:b4:fc:75:42:81:f4:10:5e:98:d2:
        fe:fd:2d:9d:6d:3f:b7:28:56:93:3f:64:5f:b2:ee:5a:62:0f:
        5e:f3:35:f4:06:8d:3d:02:34:a2:e4:31:b9:cb:73:7d:98:40:
        63:cf:e2:7c:69:b3:8a:eb:2e:b6:d7:e2:b8:84:1f:28:97:75:
        9c:6e:94:ad:41:16:a4:94:ca:fe:7d:2c:e4:14:6d:07:31:76:
        85:e8:9a:75:5f:2c:b6:dc:e3:a2:52:21:7b:3c:77:dc:8c:bb:
        35:02:2a:39:f7:96:06:61:5e:33:07:94:02:f9:16:09:52:58:
        c7:12:2b:4d:d3:5f:5f:c6:cc:8f:46:da:69:83:81:41:1d:92:
        d7:3f:d2:a3:0d:0b:d0:0c:96:06:6e:fd:73:7c:d2:45:33:d4:
        e1:b0:39:82:bc:79:85:7e:39:54:84:69:f3:39:9b:f8:5f:d6:
        3c:cd:91:6e:e5:c6:5b:2e:61:d7:65:eb:27:82:d3:66:7c:5b:
        36:03:bf:f7:87:b4:cb:95:3a:04:e0:47:b9:ce:da:66:55:bb:
        3e:bd:62:6c:af:64:27:18:00:71:77:fa:e3:ca:2f:25:57:e7:
        33:4a:87:c6
-----BEGIN CERTIFICATE-----
MIIEajCCA1KgAwIBAgIRAMiw7vAkAdeKHRRAO5D/RtowDQYJKoZIhvcNAQELBQAw
QzELMAkGA1UEBhMCVVMxIjAgBgNVBAoMGVBvcnRsYW5kIFN0YXRlIFVuaXZlcnNp
dHkxEDAOBgNVBAMMB1Jvb3QgQ0EwHhcNMjIxMTA4MjAzMzE2WhcNMzIxMTA1MjAz
MzE2WjBCMQswCQYDVQQGEwJVUzEiMCAGA1UECgwZUG9ydGxhbmQgU3RhdGUgVW5p
dmVyc2l0eTEPMA0GA1UEAwwGU3ViIENBMIIBIjANBgkqhkiG9w0BAQEFAAOCAQ8A
MIIBCgKCAQEArA4kIT4csNYPgyTUhsn1An6bBZp9F3836Xl9xmieis92MrgwZosw
yBEnM7aS4UT6C6li3UVU4Ie7APvekmN60M8B3HBaT0GM0aESN+kpnrUAjaaunctf
uTmDvkH/DqY4dTMPuyk/kC8v6uAvoUyEwx+LtCSCXXjEcTGL+9ykLOYOMoS4MWec
wjB0h2ZrFWVMPrynUA/pWfqYUgM+6Y5T7wO0+NL1n/2oKwowFgNMxHQbV6Ie3Ndw
LpreDcLHxrrEyBmxOGTTHtd11PQhRushxqApavPwRRoOZvw1PIn2H6BU6CnGfAo2
VrOIPtnhpAo0uEZcqxTJvqZqx+1ASXi0IQIDAQABo4IBWDCCAVQwcAYIKwYBBQUH
AQEEZDBiMDAGCCsGAQUFBzAChiRodHRwOi8vcm9vdC1jYS5sb2NhbGhvc3Qvcm9v
dC1jYS5jcnQwLgYIKwYBBQUHMAGGImh0dHA6Ly9vY3NwLnJvb3QtY2EubG9jYWxo
b3N0OjkwODAwHwYDVR0jBBgwFoAU7pT9jwTi2RDXvIIaO7znsJg40E4wEgYDVR0T
AQH/BAgwBgEB/wIBADA1BgNVHR8ELjAsMCqgKKAmhiRodHRwOi8vcm9vdC1jYS5s
b2NhbGhvc3Qvcm9vdC1jYS5jcmwwHQYDVR0lBBYwFAYIKwYBBQUHAwIGCCsGAQUF
BwMBMA4GA1UdDwEB/wQEAwIBBjAmBgNVHR4EHzAdoBswDYILZXhhbXBsZS5jb20w
CocIAAAAAAAAAAAwHQYDVR0OBBYEFE2hjYXBwe3omjm1BS07coiPd9CCMA0GCSqG
SIb3DQEBCwUAA4IBAQC6Laj/rxN/D//LjFtxPFdEwJIoUZbWQyrh1rT8dUKB9BBe
mNL+/S2dbT+3KFaTP2Rfsu5aYg9e8zX0Bo09AjSi5DG5y3N9mEBjz+J8abOK6y62
1+K4hB8ol3WcbpStQRaklMr+fSzkFG0HMXaF6Jp1Xyy23OOiUiF7PHfcjLs1Aio5
95YGYV4zB5QC+RYJUljHEitN019fxsyPRtppg4FBHZLXP9KjDQvQDJYGbv1zfNJF
M9ThsDmCvHmFfjlUhGnzOZv4X9Y8zZFu5cZbLmHXZesngtNmfFs2A7/3h7TLlToE
4Ee5ztpmVbs+vWJsr2QnGABxd/rjyi8lV+czSofG
-----END CERTIFICATE-----
