Certificate:
    Data:
        Version: 3 (0x2)
        Serial Number:
            c8:b0:ee:f0:24:01:d7:8a:1d:14:40:3b:90:ff:46:f3
        Signature Algorithm: sha256WithRSAEncryption
        Issuer: C=US, O=Portland State University, CN=Sub CA
        Validity
            Not Before: Jun 19 16:06:06 2023 GMT
            Not After : Jun 16 16:06:06 2033 GMT
        Subject: C=US, O=Portland State University, CN=Sub CA
        Subject Public Key Info:
            Public Key Algorithm: rsaEncryption
                Public-Key: (2048 bit)
                Modulus:
                    00:cf:79:f8:53:bd:3d:c3:fb:43:bf:7b:a1:5e:d4:
                    ed:80:62:29:67:e9:0a:43:39:5e:e0:0c:65:4f:08:
                    0c:25:0d:7c:b8:3e:fe:ce:67:2e:f5:49:4c:5c:f9:
                    90:0e:05:a7:14:bb:96:59:9f:49:72:8d:13:64:9e:
                    88:e4:44:5f:b2:29:8f:93:f7:5d:d2:5f:a5:20:ff:
                    3f:e4:8f:db:e6:b9:5d:f5:3d:03:d2:19:09:23:2c:
                    63:a8:e6:bb:ba:ce:ce:c8:36:72:1d:48:2e:4f:67:
                    6d:73:57:74:ad:13:2d:1a:3e:c6:45:16:39:23:b4:
                    0d:9c:36:48:ed:33:43:4d:5e:d6:25:a9:9f:6b:81:
                    81:4b:fd:cb:f9:75:44:fa:b9:19:73:55:88:80:0b:
                    4a:a8:29:c2:73:68:22:a5:01:28:aa:04:3a:de:ef:
                    2f:be:f6:5c:38:16:5a:aa:3c:5a:36:12:62:1f:6e:
                    a5:c9:fa:c7:2b:c5:1a:69:d8:04:66:3a:b0:d3:c9:
                    b6:49:55:7e:2c:a2:79:0f:ae:cf:c8:c4:2f:52:95:
                    84:fa:5e:1c:3c:50:96:c2:e8:a0:25:96:4b:fc:9f:
                    06:6f:47:5f:a8:bb:ad:be:ae:0c:2a:a3:23:7e:1d:
                    4c:92:eb:92:71:6c:5c:de:e2:bd:94:f6:20:c8:ad:
                    e1:f1
                Exponent: 65537 (0x10001)
        X509v3 extensions:
            Authority Information Access: 
                CA Issuers - URI:http://sub-ca.localhost/sub-ca.crt
                OCSP - URI:http://ocsp.sub-ca.localhost:9081
            X509v3 Authority Key Identifier: 
                4D:A1:8D:85:C1:C1:ED:E8:9A:39:B5:05:2D:3B:72:88:8F:77:D0:82
            X509v3 Basic Constraints: critical
                CA:FALSE
            X509v3 CRL Distribution Points: 
                Full Name:
                  URI:http://sub-ca.localhost/sub-ca.crl
            X509v3 Extended Key Usage: 
                TLS Web Client Authentication
            X509v3 Key Usage: critical
                Digital Signature
            X509v3 Subject Key Identifier: 
                F0:D5:BB:31:F3:9F:B2:BC:B8:04:3C:58:14:E5:D2:F3:50:E4:A3:55
    Signature Algorithm: sha256WithRSAEncryption
    Signature Value:
        98:90:44:b9:90:a4:41:cf:63:73:a1:4d:9e:ea:2c:e3:2f:66:
        e7:65:27:df:dc:a6:47:8e:f5:f0:3f:43:b6:cc:75:b0:c9:0b:
        d8:1e:24:90:1c:20:ca:0c:53:36:32:be:25:7f:47:c1:20:d0:
        54:4e:73:9b:1f:44:38:14:67:c9:a5:57:79:4f:b3:7c:4b:79:
        7a:35:66:12:d1:43:44:5f:8b:50:c4:42:54:f5:23:29:d2:e7:
        70:95:9a:fe:f0:6c:30:3d:93:57:12:f3:00:1d:2a:61:6f:61:
        8f:1a:df:af:2d:43:a5:0b:31:8a:ed:7a:36:cc:e6:44:bf:6d:
        9b:2d:52:a1:e3:8d:67:90:cd:6a:30:a2:82:19:32:63:57:1b:
        8f:e4:46:eb:42:fd:35:89:df:4b:bf:9c:b4:34:9d:8d:b8:46:
        b8:1e:9a:88:c6:fa:77:15:87:75:3b:d8:4a:ec:bd:1f:b1:3e:
        7f:c0:24:1f:97:80:20:96:43:35:35:78:2f:a3:ea:1b:47:31:
        de:50:67:e5:83:3a:27:93:05:dc:a1:e3:d0:8e:cb:3b:65:77:
        ff:f3:45:77:98:49:13:cc:70:9b:ae:46:d9:82:a9:19:a6:0b:
        a4:ff:39:7d:33:a6:56:71:0d:bd:e1:66:2e:2f:bf:1c:1d:9e:
        91:11:1a:14
-----BEGIN CERTIFICATE-----
MIIELDCCAxSgAwIBAgIRAMiw7vAkAdeKHRRAO5D/RvMwDQYJKoZIhvcNAQELBQAw
QjELMAkGA1UEBhMCVVMxIjAgBgNVBAoMGVBvcnRsYW5kIFN0YXRlIFVuaXZlcnNp
dHkxDzANBgNVBAMMBlN1YiBDQTAeFw0yMzA2MTkxNjA2MDZaFw0zMzA2MTYxNjA2
MDZaMEIxCzAJBgNVBAYTAlVTMSIwIAYDVQQKDBlQb3J0bGFuZCBTdGF0ZSBVbml2
ZXJzaXR5MQ8wDQYDVQQDDAZTdWIgQ0EwggEiMA0GCSqGSIb3DQEBAQUAA4IBDwAw
ggEKAoIBAQDPefhTvT3D+0O/e6Fe1O2AYiln6QpDOV7gDGVPCAwlDXy4Pv7OZy71
SUxc+ZAOBacUu5ZZn0lyjRNknojkRF+yKY+T913SX6Ug/z/kj9vmuV31PQPSGQkj
LGOo5ru6zs7INnIdSC5PZ21zV3StEy0aPsZFFjkjtA2cNkjtM0NNXtYlqZ9rgYFL
/cv5dUT6uRlzVYiAC0qoKcJzaCKlASiqBDre7y++9lw4FlqqPFo2EmIfbqXJ+scr
xRpp2ARmOrDTybZJVX4sonkPrs/IxC9SlYT6Xhw8UJbC6KAllkv8nwZvR1+ou62+
rgwqoyN+HUyS65JxbFze4r2U9iDIreHxAgMBAAGjggEbMIIBFzBtBggrBgEFBQcB
AQRhMF8wLgYIKwYBBQUHMAKGImh0dHA6Ly9zdWItY2EubG9jYWxob3N0L3N1Yi1j
YS5jcnQwLQYIKwYBBQUHMAGGIWh0dHA6Ly9vY3NwLnN1Yi1jYS5sb2NhbGhvc3Q6
OTA4MTAfBgNVHSMEGDAWgBRNoY2FwcHt6Jo5tQUtO3KIj3fQgjAMBgNVHRMBAf8E
AjAAMDMGA1UdHwQsMCowKKAmoCSGImh0dHA6Ly9zdWItY2EubG9jYWxob3N0L3N1
Yi1jYS5jcmwwEwYDVR0lBAwwCgYIKwYBBQUHAwIwDgYDVR0PAQH/BAQDAgeAMB0G
A1UdDgQWBBTw1bsx85+yvLgEPFgU5dLzUOSjVTANBgkqhkiG9w0BAQsFAAOCAQEA
mJBEuZCkQc9jc6FNnuos4y9m52Un39ymR4718D9Dtsx1sMkL2B4kkBwgygxTNjK+
JX9HwSDQVE5zmx9EOBRnyaVXeU+zfEt5ejVmEtFDRF+LUMRCVPUjKdLncJWa/vBs
MD2TVxLzAB0qYW9hjxrfry1DpQsxiu16NszmRL9tmy1SoeONZ5DNajCighkyY1cb
j+RG60L9NYnfS7+ctDSdjbhGuB6aiMb6dxWHdTvYSuy9H7E+f8AkH5eAIJZDNTV4
L6PqG0cx3lBn5YM6J5MF3KHj0I7LO2V3//NFd5hJE8xwm65G2YKpGaYLpP85fTOm
VnENveFmLi+/HB2ekREaFA==
-----END CERTIFICATE-----
