Certificate:
    Data:
        Version: 3 (0x2)
        Serial Number:
            c8:b0:ee:f0:24:01:d7:8a:1d:14:40:3b:90:ff:46:e7
        Signature Algorithm: sha256WithRSAEncryption
        Issuer: C=US, O=Portland State University, CN=Sub CA
        Validity
            Not Before: Jun 19 16:06:04 2023 GMT
            Not After : Jun 16 16:06:04 2033 GMT
        Subject: C=US, O=Portland State University, CN=Sub CA
        Subject Public Key Info:
            Public Key Algorithm: rsaEncryption
                Public-Key: (2048 bit)
                Modulus:
                    00:be:66:28:58:83:c6:bb:ac:6b:14:20:f2:e6:af:
                    df:2a:ff:30:0e:8d:43:65:db:c9:12:d4:80:4a:f8:
                    2e:b6:fc:b4:c8:f4:ac:42:de:f5:d2:55:38:69:ea:
                    df:c5:ad:b0:5e:bc:ad:b7:08:dc:2e:e9:9c:9b:32:
                    fb:15:b8:6c:0a:65:24:65:cb:30:73:67:0f:23:0a:
                    1f:e2:95:3e:9e:68:50:e7:e3:8d:2d:a3:6e:3a:0f:
                    ee:d9:c6:c8:ea:d6:ec:78:74:e4:ef:5a:41:c5:2a:
                    c4:30:40:6d:63:05:36:4e:f7:59:73:67:c4:94:18:
                    8c:3d:18:6a:4e:5e:5b:72:5f:3a:4e:c3:92:20:b7:
                    9a:aa:4e:a0:c7:b8:7d:fa:13:82:58:23:4b:b8:b5:
                    7d:b1:7b:13:75:41:a9:9c:5a:42:8d:83:3d:f2:5f:
                    a5:98:e2:48:7d:ae:2d:0b:45:d5:6d:e4:55:a0:f3:
                    24:3e:3e:f4:62:ba:a2:f3:20:81:7e:d7:a0:4c:7b:
                    90:b1:d9:89:82:3d:64:3b:0d:85:44:62:6f:4f:c7:
                    f0:1a:dd:f0:b7:0e:75:07:7f:ef:5e:f6:32:93:18:
                    95:5f:d9:9a:bc:d9:6d:d9:ed:a8:f5:ea:af:5f:e2:
                    53:d6:dd:22:d3:65:a3:7e:5d:d7:40:65:97:e3:3d:
                    41:55
                Exponent: 65537 (0x10001)
        X509v3 extensions:
            Authority Information Access: 
                CA Issuers - URI:http://sub-ca.localhost/sub-ca.crt
                OCSP - URI:http://ocsp.sub-ca.localhost:9081
            X509v3 Authority Key Identifier: 
                4D:A1:8D:85:C1:C1:ED:E8:9A:39:B5:05:2D:3B:72:88:8F:77:D0:82
            X509v3 Basic Constraints: critical
                CA:FALSE
            X509v3 CRL Distribution Points: 
                Full Name:
                  URI:http://sub-ca.localhost/sub-ca.crl
            X509v3 Extended Key Usage: 
                TLS Web Client Authentication
            X509v3 Key Usage: critical
                Digital Signature
            X509v3 Subject Key Identifier: 
                28:24:0B:DF:14:5A:0E:6D:29:01:C1:DB:F2:50:6D:C5:D4:A0:51:DE
    Signature Algorithm: sha256WithRSAEncryption
    Signature Value:
        a4:5a:29:53:8c:0e:3a:16:60:78:db:a6:43:bb:0a:e0:23:cf:
        77:91:a6:96:06:86:95:5a:6d:75:9e:db:bd:51:fb:f4:0d:6d:
        6e:5e:71:8d:e6:96:60:9f:ac:aa:9b:d3:6c:e3:e5:6c:90:0b:
        fa:ee:fa:11:dd:67:23:56:8b:0c:39:cc:8b:f7:d2:00:07:7c:
        ac:d0:a7:3c:22:f9:a7:97:74:ba:9f:85:ab:d4:9b:ac:0f:4f:
        b3:98:16:de:a1:73:b3:d0:42:34:c9:18:c9:07:e0:4d:12:f8:
        f8:72:7e:a8:7c:17:0f:fa:91:16:7d:85:2c:4f:0e:1c:42:79:
        b6:62:ce:1f:3d:76:4b:a6:1a:d3:58:09:29:54:ce:e0:e8:e6:
        9d:d9:33:8a:c0:b1:e0:3a:85:5f:82:37:26:b7:98:cc:7a:a1:
        c2:1e:07:7c:85:de:ef:c3:a3:10:6a:6e:b6:d0:62:d9:90:17:
        9a:26:3f:32:fa:13:d4:b4:ba:04:24:bf:22:9a:2b:6c:31:32:
        cf:7f:df:11:f3:bd:19:bf:c0:59:2c:79:c1:d1:1c:e4:d0:6f:
        74:33:53:8e:1a:6d:c3:71:de:cb:3d:ba:3b:1e:3c:25:5d:ae:
        16:66:1b:30:9a:a1:d8:25:2b:86:46:5f:a0:e8:91:a6:c9:81:
        95:2d:ce:04
-----BEGIN CERTIFICATE-----
MIIELDCCAxSgAwIBAgIRAMiw7vAkAdeKHRRAO5D/RucwDQYJKoZIhvcNAQELBQAw
QjELMAkGA1UEBhMCVVMxIjAgBgNVBAoMGVBvcnRsYW5kIFN0YXRlIFVuaXZlcnNp
dHkxDzANBgNVBAMMBlN1YiBDQTAeFw0yMzA2MTkxNjA2MDRaFw0zMzA2MTYxNjA2
MDRaMEIxCzAJBgNVBAYTAlVTMSIwIAYDVQQKDBlQb3J0bGFuZCBTdGF0ZSBVbml2
ZXJzaXR5MQ8wDQYDVQQDDAZTdWIgQ0EwggEiMA0GCSqGSIb3DQEBAQUAA4IBDwAw
ggEKAoIBAQC+ZihYg8a7rGsUIPLmr98q/zAOjUNl28kS1IBK+C62/LTI9KxC3vXS
VThp6t/FrbBevK23CNwu6ZybMvsVuGwKZSRlyzBzZw8jCh/ilT6eaFDn440to246
D+7Zxsjq1ux4dOTvWkHFKsQwQG1jBTZO91lzZ8SUGIw9GGpOXltyXzpOw5Igt5qq
TqDHuH36E4JYI0u4tX2xexN1QamcWkKNgz3yX6WY4kh9ri0LRdVt5FWg8yQ+PvRi
uqLzIIF+16BMe5Cx2YmCPWQ7DYVEYm9Px/Aa3fC3DnUHf+9e9jKTGJVf2Zq82W3Z
7aj16q9f4lPW3SLTZaN+XddAZZfjPUFVAgMBAAGjggEbMIIBFzBtBggrBgEFBQcB
AQRhMF8wLgYIKwYBBQUHMAKGImh0dHA6Ly9zdWItY2EubG9jYWxob3N0L3N1Yi1j
YS5jcnQwLQYIKwYBBQUHMAGGIWh0dHA6Ly9vY3NwLnN1Yi1jYS5sb2NhbGhvc3Q6
OTA4MTAfBgNVHSMEGDAWgBRNoY2FwcHt6Jo5tQUtO3KIj3fQgjAMBgNVHRMBAf8E
AjAAMDMGA1UdHwQsMCowKKAmoCSGImh0dHA6Ly9zdWItY2EubG9jYWxob3N0L3N1
Yi1jYS5jcmwwEwYDVR0lBAwwCgYIKwYBBQUHAwIwDgYDVR0PAQH/BAQDAgeAMB0G
A1UdDgQWBBQoJAvfFFoObSkBwdvyUG3F1KBR3jANBgkqhkiG9w0BAQsFAAOCAQEA
pFopU4wOOhZgeNumQ7sK4CPPd5GmlgaGlVptdZ7bvVH79A1tbl5xjeaWYJ+sqpvT
bOPlbJAL+u76Ed1nI1aLDDnMi/fSAAd8rNCnPCL5p5d0up+Fq9SbrA9Ps5gW3qFz
s9BCNMkYyQfgTRL4+HJ+qHwXD/qRFn2FLE8OHEJ5tmLOHz12S6Ya01gJKVTO4Ojm
ndkzisCx4DqFX4I3JreYzHqhwh4HfIXe78OjEGputtBi2ZAXmiY/MvoT1LS6BCS/
IporbDEyz3/fEfO9Gb/AWSx5wdEc5NBvdDNTjhptw3Heyz26Ox48JV2uFmYbMJqh
2CUrhkZfoOiRpsmBlS3OBA==
-----END CERTIFICATE-----
