Certificate:
    Data:
        Version: 3 (0x2)
        Serial Number:
            c8:b0:ee:f0:24:01:d7:8a:1d:14:40:3b:90:ff:47:21
        Signature Algorithm: sha256WithRSAEncryption
        Issuer: C=US, O=Portland State University, CN=Sub CA
        Validity
            Not Before: Jun 19 16:06:12 2023 GMT
            Not After : Jun 16 16:06:12 2033 GMT
        Subject: C=US, O=Portland State University, CN=Sub CA
        Subject Public Key Info:
            Public Key Algorithm: rsaEncryption
                Public-Key: (2048 bit)
                Modulus:
                    00:9d:c5:a8:27:21:5c:03:e3:73:eb:c8:fb:26:fd:
                    e0:64:3c:06:71:99:cc:c0:f4:40:1b:05:55:b8:f5:
                    c4:9b:7a:f5:c8:e5:7b:11:57:56:f5:7c:bc:f2:82:
                    cc:6a:61:9f:fa:8e:9e:be:f0:f1:5b:76:7a:b3:21:
                    73:0c:93:35:d7:3b:43:b9:be:44:8e:0c:1d:f7:c5:
                    bb:f8:81:23:a6:5d:b5:5d:1e:ca:d7:3e:a4:2f:22:
                    b7:dc:76:9d:5b:70:79:45:5e:bf:9c:10:15:4d:39:
                    7a:4d:9f:54:ac:af:81:f5:ae:bb:8a:68:01:d3:63:
                    17:bd:68:df:8f:be:15:59:ee:d0:d3:28:41:ef:62:
                    06:e0:8f:2e:ee:21:ae:7f:55:dc:78:e1:31:38:e4:
                    af:92:28:a2:11:4e:f5:fc:1f:72:71:47:73:9f:82:
                    9a:61:bf:98:ec:43:3d:96:1e:06:7c:ec:d3:15:41:
                    39:0d:e3:28:d6:1b:0c:e3:3f:fc:8a:ea:95:3b:2a:
                    bc:f0:c3:81:e8:17:92:cf:75:35:cf:99:9d:6c:8c:
                    7d:4b:c6:95:25:9c:94:09:5b:e4:da:4c:2f:36:12:
                    b4:6c:16:76:84:ac:7f:1b:fa:da:b4:ab:04:4d:25:
                    81:1f:7c:d0:b8:e1:9c:87:2d:6c:60:b8:e4:6f:88:
                    3f:a9
                Exponent: 65537 (0x10001)
        X509v3 extensions:
            Authority Information Access: 
                CA Issuers - URI:http://sub-ca.localhost/sub-ca.crt
                OCSP - URI:http://ocsp.sub-ca.localhost:9081
            X509v3 Authority Key Identifier: 
                4D:A1:8D:85:C1:C1:ED:E8:9A:39:B5:05:2D:3B:72:88:8F:77:D0:82
            X509v3 Basic Constraints: critical
                CA:FALSE
            X509v3 CRL Distribution Points: 
                Full Name:
                  URI:http://sub-ca.localhost/sub-ca.crl
            X509v3 Extended Key Usage: 
                TLS Web Client Authentication
            X509v3 Key Usage: critical
                Digital Signature
            X509v3 Subject Key Identifier: 
                91:32:92:59:1C:D9:96:33:37:49:33:1D:53:8B:1C:BD:EF:71:00:0E
    Signature Algorithm: sha256WithRSAEncryption
    Signature Value:
        ab:94:07:80:78:fd:90:57:18:e8:42:f8:8b:99:74:92:33:58:
        39:04:0b:13:b2:26:d2:89:34:eb:d6:80:b0:8d:b5:31:7f:65:
        3e:54:8e:69:9c:01:63:4e:f2:00:62:85:c3:32:58:b4:91:bc:
        59:aa:86:8c:54:dc:32:5f:7a:41:36:86:51:20:7c:d7:97:1f:
        3f:c3:4c:5c:fb:8a:7b:bf:94:16:f8:d7:8b:c9:40:a1:c0:3a:
        f2:0d:8e:85:43:00:49:9d:bb:0c:ac:56:40:3a:3e:cf:7e:1d:
        82:81:a5:aa:a8:96:47:ef:71:6b:ae:f9:15:ff:b1:fd:7d:2d:
        a2:26:68:2d:95:45:03:cf:a7:dc:ea:27:e7:eb:ac:e5:26:d4:
        11:ef:a7:4d:df:47:b0:ae:1b:0d:a0:55:e3:77:33:56:08:d7:
        69:be:9c:ac:9c:e0:a5:d1:aa:ff:0e:90:a7:28:df:4a:bd:c0:
        b6:ec:bd:06:c1:42:36:33:c8:d6:47:cd:65:d0:87:db:c9:8b:
        a0:3d:13:2d:ee:12:68:9f:da:4d:12:33:ec:70:b0:75:ab:84:
        b4:38:be:37:1b:ec:8d:b9:41:7f:fb:d2:62:6c:c6:9e:c5:c8:
        ac:f3:c6:2a:ec:0f:f6:0e:c9:65:4b:f2:44:80:87:5c:88:43:
        48:e7:7c:e5
-----BEGIN CERTIFICATE-----
MIIELDCCAxSgAwIBAgIRAMiw7vAkAdeKHRRAO5D/RyEwDQYJKoZIhvcNAQELBQAw
QjELMAkGA1UEBhMCVVMxIjAgBgNVBAoMGVBvcnRsYW5kIFN0YXRlIFVuaXZlcnNp
dHkxDzANBgNVBAMMBlN1YiBDQTAeFw0yMzA2MTkxNjA2MTJaFw0zMzA2MTYxNjA2
MTJaMEIxCzAJBgNVBAYTAlVTMSIwIAYDVQQKDBlQb3J0bGFuZCBTdGF0ZSBVbml2
ZXJzaXR5MQ8wDQYDVQQDDAZTdWIgQ0EwggEiMA0GCSqGSIb3DQEBAQUAA4IBDwAw
ggEKAoIBAQCdxagnIVwD43PryPsm/eBkPAZxmczA9EAbBVW49cSbevXI5XsRV1b1
fLzygsxqYZ/6jp6+8PFbdnqzIXMMkzXXO0O5vkSODB33xbv4gSOmXbVdHsrXPqQv
Irfcdp1bcHlFXr+cEBVNOXpNn1Ssr4H1rruKaAHTYxe9aN+PvhVZ7tDTKEHvYgbg
jy7uIa5/Vdx44TE45K+SKKIRTvX8H3JxR3Ofgpphv5jsQz2WHgZ87NMVQTkN4yjW
GwzjP/yK6pU7Krzww4HoF5LPdTXPmZ1sjH1LxpUlnJQJW+TaTC82ErRsFnaErH8b
+tq0qwRNJYEffNC44ZyHLWxguORviD+pAgMBAAGjggEbMIIBFzBtBggrBgEFBQcB
AQRhMF8wLgYIKwYBBQUHMAKGImh0dHA6Ly9zdWItY2EubG9jYWxob3N0L3N1Yi1j
YS5jcnQwLQYIKwYBBQUHMAGGIWh0dHA6Ly9vY3NwLnN1Yi1jYS5sb2NhbGhvc3Q6
OTA4MTAfBgNVHSMEGDAWgBRNoY2FwcHt6Jo5tQUtO3KIj3fQgjAMBgNVHRMBAf8E
AjAAMDMGA1UdHwQsMCowKKAmoCSGImh0dHA6Ly9zdWItY2EubG9jYWxob3N0L3N1
Yi1jYS5jcmwwEwYDVR0lBAwwCgYIKwYBBQUHAwIwDgYDVR0PAQH/BAQDAgeAMB0G
A1UdDgQWBBSRMpJZHNmWMzdJMx1Tixy973EADjANBgkqhkiG9w0BAQsFAAOCAQEA
q5QHgHj9kFcY6EL4i5l0kjNYOQQLE7Im0ok069aAsI21MX9lPlSOaZwBY07yAGKF
wzJYtJG8WaqGjFTcMl96QTaGUSB815cfP8NMXPuKe7+UFvjXi8lAocA68g2OhUMA
SZ27DKxWQDo+z34dgoGlqqiWR+9xa675Ff+x/X0toiZoLZVFA8+n3Oon5+us5SbU
Ee+nTd9HsK4bDaBV43czVgjXab6crJzgpdGq/w6QpyjfSr3Atuy9BsFCNjPI1kfN
ZdCH28mLoD0TLe4SaJ/aTRIz7HCwdauEtDi+NxvsjblBf/vSYmzGnsXIrPPGKuwP
9g7JZUvyRICHXIhDSOd85Q==
-----END CERTIFICATE-----
