Certificate:
    Data:
        Version: 3 (0x2)
        Serial Number:
            c8:b0:ee:f0:24:01:d7:8a:1d:14:40:3b:90:ff:46:ea
        Signature Algorithm: sha256WithRSAEncryption
        Issuer: C=US, O=Portland State University, CN=Sub CA
        Validity
            Not Before: Jun 19 16:06:04 2023 GMT
            Not After : Jun 16 16:06:04 2033 GMT
        Subject: C=US, O=Portland State University, CN=Sub CA
        Subject Public Key Info:
            Public Key Algorithm: rsaEncryption
                Public-Key: (2048 bit)
                Modulus:
                    00:d1:40:6b:2f:31:8e:80:b2:8c:7a:06:96:7e:55:
                    40:6e:f0:6c:e8:de:56:30:f0:30:52:5e:c7:ec:c1:
                    0a:7f:6c:be:04:d1:b3:d0:af:0d:f4:93:f5:8c:f2:
                    76:e8:bd:d4:8c:a2:ba:a4:d3:b8:71:1f:12:07:9d:
                    08:94:c5:e0:44:b4:57:49:78:85:13:8e:ea:c9:97:
                    c6:13:12:20:1a:67:84:c1:a5:a6:8f:95:91:3d:21:
                    72:fc:28:f2:72:b3:59:ba:72:e9:2a:0b:73:54:51:
                    7e:68:e1:ae:d6:00:81:e9:7a:b5:5a:c8:be:c0:69:
                    81:de:7c:d6:90:20:03:e1:52:21:08:31:7a:73:e1:
                    64:5d:8b:06:44:ac:7e:a1:39:b9:68:3b:b8:54:11:
                    21:da:29:ff:1c:24:48:4a:d9:0a:42:6d:71:54:32:
                    45:78:7f:0b:02:65:15:b7:cc:61:cc:0b:36:a7:05:
                    1a:b5:70:5f:1e:04:f1:90:e4:4c:66:f5:58:21:3d:
                    3f:c7:25:cf:c9:74:0b:4c:3c:18:d3:1b:ac:70:57:
                    d8:e7:ea:f3:03:5c:44:c6:4a:b6:18:7c:59:38:16:
                    26:64:87:00:72:09:2d:af:6b:5a:7c:29:39:2a:8c:
                    30:1d:61:83:ee:49:89:a0:36:ac:90:82:f0:33:15:
                    79:0d
                Exponent: 65537 (0x10001)
        X509v3 extensions:
            Authority Information Access: 
                CA Issuers - URI:http://sub-ca.localhost/sub-ca.crt
                OCSP - URI:http://ocsp.sub-ca.localhost:9081
            X509v3 Authority Key Identifier: 
                4D:A1:8D:85:C1:C1:ED:E8:9A:39:B5:05:2D:3B:72:88:8F:77:D0:82
            X509v3 Basic Constraints: critical
                CA:FALSE
            X509v3 CRL Distribution Points: 
                Full Name:
                  URI:http://sub-ca.localhost/sub-ca.crl
            X509v3 Extended Key Usage: 
                TLS Web Client Authentication
            X509v3 Key Usage: critical
                Digital Signature
            X509v3 Subject Key Identifier: 
                EE:63:90:7A:B3:AE:30:FB:D0:90:B0:04:F0:42:F6:C4:C2:F1:99:ED
    Signature Algorithm: sha256WithRSAEncryption
    Signature Value:
        7e:4b:c1:2f:6b:dd:e7:30:9b:7b:99:e9:56:2d:13:85:a8:13:
        c4:58:11:8f:2f:6e:06:93:26:9f:f9:ef:16:1b:bf:af:aa:0b:
        83:1e:97:2c:81:aa:ad:7f:1f:f5:dc:ef:9a:1a:c0:e9:3b:50:
        60:0a:37:9b:fd:77:d6:c5:ef:f9:1e:02:8e:79:dc:b9:a8:ad:
        93:ed:14:c0:60:ae:0a:b3:ed:03:66:fe:dc:6d:3c:e9:b6:11:
        e3:de:26:0c:bd:c1:3b:35:44:92:6b:73:8f:01:15:fa:46:dc:
        71:26:71:8c:7a:f6:fb:6a:78:cb:e0:d3:0f:83:34:d1:3c:0c:
        6a:00:1c:31:94:67:16:a5:86:28:da:cd:7b:f2:b1:24:dd:a1:
        3f:29:d9:ef:0a:67:c7:79:69:10:dc:10:5d:8b:f4:57:08:14:
        f1:9a:c3:36:f6:0b:8a:f1:be:b1:4a:58:aa:38:3b:1e:45:db:
        93:53:41:e2:d9:95:1e:91:a6:5d:a7:90:a1:f4:ce:12:7c:a1:
        b1:f3:5e:a9:ee:4f:34:1e:b5:9d:fb:c3:a1:8e:5a:6a:47:8d:
        64:05:28:02:80:18:0d:2d:11:3a:cb:b2:b0:e0:16:32:79:2b:
        fd:40:42:22:fb:4a:db:b5:b1:db:62:3c:a7:57:d0:6a:b4:b2:
        0c:74:18:aa
-----BEGIN CERTIFICATE-----
MIIELDCCAxSgAwIBAgIRAMiw7vAkAdeKHRRAO5D/RuowDQYJKoZIhvcNAQELBQAw
QjELMAkGA1UEBhMCVVMxIjAgBgNVBAoMGVBvcnRsYW5kIFN0YXRlIFVuaXZlcnNp
dHkxDzANBgNVBAMMBlN1YiBDQTAeFw0yMzA2MTkxNjA2MDRaFw0zMzA2MTYxNjA2
MDRaMEIxCzAJBgNVBAYTAlVTMSIwIAYDVQQKDBlQb3J0bGFuZCBTdGF0ZSBVbml2
ZXJzaXR5MQ8wDQYDVQQDDAZTdWIgQ0EwggEiMA0GCSqGSIb3DQEBAQUAA4IBDwAw
ggEKAoIBAQDRQGsvMY6Asox6BpZ+VUBu8Gzo3lYw8DBSXsfswQp/bL4E0bPQrw30
k/WM8nbovdSMorqk07hxHxIHnQiUxeBEtFdJeIUTjurJl8YTEiAaZ4TBpaaPlZE9
IXL8KPJys1m6cukqC3NUUX5o4a7WAIHperVayL7AaYHefNaQIAPhUiEIMXpz4WRd
iwZErH6hObloO7hUESHaKf8cJEhK2QpCbXFUMkV4fwsCZRW3zGHMCzanBRq1cF8e
BPGQ5Exm9VghPT/HJc/JdAtMPBjTG6xwV9jn6vMDXETGSrYYfFk4FiZkhwByCS2v
a1p8KTkqjDAdYYPuSYmgNqyQgvAzFXkNAgMBAAGjggEbMIIBFzBtBggrBgEFBQcB
AQRhMF8wLgYIKwYBBQUHMAKGImh0dHA6Ly9zdWItY2EubG9jYWxob3N0L3N1Yi1j
YS5jcnQwLQYIKwYBBQUHMAGGIWh0dHA6Ly9vY3NwLnN1Yi1jYS5sb2NhbGhvc3Q6
OTA4MTAfBgNVHSMEGDAWgBRNoY2FwcHt6Jo5tQUtO3KIj3fQgjAMBgNVHRMBAf8E
AjAAMDMGA1UdHwQsMCowKKAmoCSGImh0dHA6Ly9zdWItY2EubG9jYWxob3N0L3N1
Yi1jYS5jcmwwEwYDVR0lBAwwCgYIKwYBBQUHAwIwDgYDVR0PAQH/BAQDAgeAMB0G
A1UdDgQWBBTuY5B6s64w+9CQsATwQvbEwvGZ7TANBgkqhkiG9w0BAQsFAAOCAQEA
fkvBL2vd5zCbe5npVi0ThagTxFgRjy9uBpMmn/nvFhu/r6oLgx6XLIGqrX8f9dzv
mhrA6TtQYAo3m/131sXv+R4Cjnncuaitk+0UwGCuCrPtA2b+3G086bYR494mDL3B
OzVEkmtzjwEV+kbccSZxjHr2+2p4y+DTD4M00TwMagAcMZRnFqWGKNrNe/KxJN2h
PynZ7wpnx3lpENwQXYv0VwgU8ZrDNvYLivG+sUpYqjg7HkXbk1NB4tmVHpGmXaeQ
ofTOEnyhsfNeqe5PNB61nfvDoY5aakeNZAUoAoAYDS0ROsuysOAWMnkr/UBCIvtK
27Wx22I8p1fQarSyDHQYqg==
-----END CERTIFICATE-----
