Certificate:
    Data:
        Version: 3 (0x2)
        Serial Number:
            c8:b0:ee:f0:24:01:d7:8a:1d:14:40:3b:90:ff:47:35
        Signature Algorithm: sha256WithRSAEncryption
        Issuer: C=US, O=Portland State University, CN=Sub CA
        Validity
            Not Before: Jun 19 16:06:16 2023 GMT
            Not After : Jun 16 16:06:16 2033 GMT
        Subject: C=US, O=Portland State University, CN=Sub CA
        Subject Public Key Info:
            Public Key Algorithm: rsaEncryption
                Public-Key: (2048 bit)
                Modulus:
                    00:e5:8b:c0:49:2a:e2:26:38:92:00:38:42:ea:5c:
                    32:f1:14:3d:85:12:38:38:1c:6d:bb:23:96:f3:86:
                    8c:3a:35:b7:da:a7:9e:ab:6b:ba:75:bd:4f:e1:5c:
                    ae:57:ff:54:4e:c5:5b:56:94:e7:bb:fd:69:ae:79:
                    eb:b6:35:9f:16:03:85:16:3c:01:38:73:72:12:1c:
                    17:1b:ae:3c:14:45:80:c5:6d:49:06:3c:6c:ec:39:
                    17:f1:c0:63:83:90:98:95:b4:8c:d4:fb:74:30:53:
                    05:53:56:dc:93:91:9c:3b:bb:b6:80:09:37:c7:59:
                    6e:04:55:07:2f:a1:ab:29:82:42:60:88:46:2e:6f:
                    8d:76:7d:5f:1c:3e:cf:1a:da:7a:e6:8a:28:d0:d4:
                    46:e4:1a:cc:27:69:2e:17:32:48:00:88:bd:7b:cf:
                    f5:87:0a:72:4a:9d:e8:4b:e4:08:86:49:1d:38:24:
                    fc:e7:dd:17:ba:ac:4c:bb:ff:4d:22:cc:54:fa:92:
                    40:c7:7f:a8:2a:d5:f3:28:ac:14:94:d5:5f:80:f5:
                    f8:06:12:98:09:78:6b:78:9a:24:15:15:54:e5:0b:
                    ee:31:75:39:d9:ee:01:e5:d9:d4:8e:a3:81:80:c9:
                    3f:00:1e:f9:4a:58:5e:70:61:6e:c5:eb:aa:cd:3c:
                    22:27
                Exponent: 65537 (0x10001)
        X509v3 extensions:
            Authority Information Access: 
                CA Issuers - URI:http://sub-ca.localhost/sub-ca.crt
                OCSP - URI:http://ocsp.sub-ca.localhost:9081
            X509v3 Authority Key Identifier: 
                4D:A1:8D:85:C1:C1:ED:E8:9A:39:B5:05:2D:3B:72:88:8F:77:D0:82
            X509v3 Basic Constraints: critical
                CA:FALSE
            X509v3 CRL Distribution Points: 
                Full Name:
                  URI:http://sub-ca.localhost/sub-ca.crl
            X509v3 Extended Key Usage: 
                TLS Web Client Authentication
            X509v3 Key Usage: critical
                Digital Signature
            X509v3 Subject Key Identifier: 
                90:B7:C1:03:EE:23:0C:F0:9D:31:62:CF:D1:9B:A3:D6:98:A7:DC:37
    Signature Algorithm: sha256WithRSAEncryption
    Signature Value:
        96:7a:cf:1f:1b:9e:94:2e:25:ca:cf:86:04:06:4a:f4:a3:0f:
        e6:98:6d:31:f3:37:33:ba:1a:2a:08:c2:24:0f:6b:e5:35:47:
        8b:93:59:63:fd:b1:4f:d4:2f:45:6c:4b:c8:95:b3:32:47:59:
        7b:00:92:94:7f:b1:1a:4c:59:72:46:a0:ca:a4:1f:52:0d:90:
        35:a4:c0:66:83:c0:a8:3e:a0:32:73:b8:bd:87:2f:b3:dc:25:
        88:55:da:8b:0b:f0:e0:55:8a:f4:a3:5f:05:74:98:27:4b:ce:
        73:f4:dc:bc:3f:6d:61:ab:4e:db:f9:11:dd:58:e6:1f:70:68:
        ca:29:51:1d:a1:f6:76:23:a1:3a:e4:b7:d1:4a:cc:55:73:fa:
        de:f5:e1:77:1a:f8:4b:95:94:0c:31:a5:41:7f:cb:e5:7c:db:
        1f:84:d7:a1:82:96:ae:aa:3c:4a:5c:4f:8d:5b:19:03:fd:fd:
        15:41:87:9a:bd:0f:ef:05:7a:78:cc:f9:61:30:f7:7d:70:e6:
        09:42:7e:b0:c8:e5:ee:23:13:a5:17:dc:fb:bc:7f:b6:64:b6:
        b7:e1:9e:7d:27:c9:e7:8a:8a:4f:32:2f:97:8b:d0:6a:fd:3e:
        bc:e7:8c:b9:d7:9d:e0:f4:be:49:bc:a4:3e:60:4e:25:a1:5e:
        9c:51:b9:c7
-----BEGIN CERTIFICATE-----
MIIELDCCAxSgAwIBAgIRAMiw7vAkAdeKHRRAO5D/RzUwDQYJKoZIhvcNAQELBQAw
QjELMAkGA1UEBhMCVVMxIjAgBgNVBAoMGVBvcnRsYW5kIFN0YXRlIFVuaXZlcnNp
dHkxDzANBgNVBAMMBlN1YiBDQTAeFw0yMzA2MTkxNjA2MTZaFw0zMzA2MTYxNjA2
MTZaMEIxCzAJBgNVBAYTAlVTMSIwIAYDVQQKDBlQb3J0bGFuZCBTdGF0ZSBVbml2
ZXJzaXR5MQ8wDQYDVQQDDAZTdWIgQ0EwggEiMA0GCSqGSIb3DQEBAQUAA4IBDwAw
ggEKAoIBAQDli8BJKuImOJIAOELqXDLxFD2FEjg4HG27I5bzhow6Nbfap56ra7p1
vU/hXK5X/1ROxVtWlOe7/Wmueeu2NZ8WA4UWPAE4c3ISHBcbrjwURYDFbUkGPGzs
ORfxwGODkJiVtIzU+3QwUwVTVtyTkZw7u7aACTfHWW4EVQcvoaspgkJgiEYub412
fV8cPs8a2nrmiijQ1EbkGswnaS4XMkgAiL17z/WHCnJKnehL5AiGSR04JPzn3Re6
rEy7/00izFT6kkDHf6gq1fMorBSU1V+A9fgGEpgJeGt4miQVFVTlC+4xdTnZ7gHl
2dSOo4GAyT8AHvlKWF5wYW7F66rNPCInAgMBAAGjggEbMIIBFzBtBggrBgEFBQcB
AQRhMF8wLgYIKwYBBQUHMAKGImh0dHA6Ly9zdWItY2EubG9jYWxob3N0L3N1Yi1j
YS5jcnQwLQYIKwYBBQUHMAGGIWh0dHA6Ly9vY3NwLnN1Yi1jYS5sb2NhbGhvc3Q6
OTA4MTAfBgNVHSMEGDAWgBRNoY2FwcHt6Jo5tQUtO3KIj3fQgjAMBgNVHRMBAf8E
AjAAMDMGA1UdHwQsMCowKKAmoCSGImh0dHA6Ly9zdWItY2EubG9jYWxob3N0L3N1
Yi1jYS5jcmwwEwYDVR0lBAwwCgYIKwYBBQUHAwIwDgYDVR0PAQH/BAQDAgeAMB0G
A1UdDgQWBBSQt8ED7iMM8J0xYs/Rm6PWmKfcNzANBgkqhkiG9w0BAQsFAAOCAQEA
lnrPHxuelC4lys+GBAZK9KMP5phtMfM3M7oaKgjCJA9r5TVHi5NZY/2xT9QvRWxL
yJWzMkdZewCSlH+xGkxZckagyqQfUg2QNaTAZoPAqD6gMnO4vYcvs9wliFXaiwvw
4FWK9KNfBXSYJ0vOc/TcvD9tYatO2/kR3VjmH3BoyilRHaH2diOhOuS30UrMVXP6
3vXhdxr4S5WUDDGlQX/L5XzbH4TXoYKWrqo8SlxPjVsZA/39FUGHmr0P7wV6eMz5
YTD3fXDmCUJ+sMjl7iMTpRfc+7x/tmS2t+GefSfJ54qKTzIvl4vQav0+vOeMuded
4PS+SbykPmBOJaFenFG5xw==
-----END CERTIFICATE-----
