Certificate:
    Data:
        Version: 3 (0x2)
        Serial Number:
            c8:b0:ee:f0:24:01:d7:8a:1d:14:40:3b:90:ff:47:1e
        Signature Algorithm: sha256WithRSAEncryption
        Issuer: C=US, O=Portland State University, CN=Sub CA
        Validity
            Not Before: Jun 19 16:06:11 2023 GMT
            Not After : Jun 16 16:06:11 2033 GMT
        Subject: C=US, O=Portland State University, CN=Sub CA
        Subject Public Key Info:
            Public Key Algorithm: rsaEncryption
                Public-Key: (2048 bit)
                Modulus:
                    00:8b:88:45:df:3e:4b:95:b4:01:e8:4e:d5:8b:d6:
                    eb:c8:b1:1f:c2:c1:66:c1:6c:f1:63:d4:90:26:28:
                    65:8e:8c:e5:8d:11:74:62:85:df:01:5c:4a:28:77:
                    73:6c:59:04:ef:d4:ab:34:b4:09:47:d7:cc:f8:3a:
                    66:da:01:b3:0d:7e:9e:23:dd:d1:56:ad:b0:63:b8:
                    9e:78:2c:96:4a:fd:a4:97:ad:60:7c:4f:9c:8b:7a:
                    81:29:f5:4d:fd:21:45:ad:e2:2f:86:27:43:92:5b:
                    83:d9:20:22:22:a6:dc:15:8d:b2:3c:04:40:62:73:
                    4a:0b:b9:92:90:0b:60:58:49:39:62:0b:01:23:c2:
                    f3:7b:ce:bf:65:36:02:ac:c3:89:d9:d0:ea:d3:42:
                    80:bc:d0:16:19:fc:17:05:03:d8:e8:c8:b3:da:dc:
                    7c:22:cb:f9:99:19:07:33:5b:a7:4e:a3:c8:6d:af:
                    b0:4c:b8:0c:ec:0d:4b:dc:96:0e:c9:b9:fa:de:a0:
                    57:b8:2a:4e:ad:79:2d:d1:26:0b:fa:4a:28:fa:10:
                    35:f9:fa:a1:7c:ed:a7:db:96:62:85:6b:e5:9a:b5:
                    57:78:1b:d4:85:1a:ce:62:8a:10:7a:15:c9:a5:b2:
                    84:f6:3b:42:1d:7f:70:6b:9a:d6:d7:c6:91:ec:a7:
                    46:eb
                Exponent: 65537 (0x10001)
        X509v3 extensions:
            Authority Information Access: 
                CA Issuers - URI:http://sub-ca.localhost/sub-ca.crt
                OCSP - URI:http://ocsp.sub-ca.localhost:9081
            X509v3 Authority Key Identifier: 
                4D:A1:8D:85:C1:C1:ED:E8:9A:39:B5:05:2D:3B:72:88:8F:77:D0:82
            X509v3 Basic Constraints: critical
                CA:FALSE
            X509v3 CRL Distribution Points: 
                Full Name:
                  URI:http://sub-ca.localhost/sub-ca.crl
            X509v3 Extended Key Usage: 
                TLS Web Client Authentication
            X509v3 Key Usage: critical
                Digital Signature
            X509v3 Subject Key Identifier: 
                C9:5C:71:B4:42:64:56:FC:99:16:1A:1C:9A:F3:46:6F:54:BA:20:EE
    Signature Algorithm: sha256WithRSAEncryption
    Signature Value:
        44:1b:11:96:1a:59:5e:e8:eb:b5:3b:ac:0b:aa:e1:ae:ad:39:
        68:93:78:dd:51:9d:f1:6e:b8:78:e1:15:0f:11:fe:4a:b8:df:
        ab:fd:13:09:c4:13:26:61:01:d1:c8:2a:f3:8e:92:d3:48:66:
        17:83:08:8e:e7:20:b2:72:a5:63:f2:ab:9e:b8:ea:99:42:58:
        51:a2:02:eb:2a:ad:b5:f1:f5:10:d5:13:0a:50:3e:82:1b:6c:
        6d:f6:9d:9e:8c:7c:9e:97:4f:dc:fa:fe:21:43:b4:0f:0d:96:
        d3:1c:a2:f1:c1:7f:a0:24:af:02:93:7f:8a:ea:38:86:82:55:
        db:b5:68:a3:bd:50:50:d0:29:8b:18:ef:c8:04:f1:e9:09:54:
        0f:ac:da:3f:e6:5a:b4:55:56:cb:63:52:5a:c8:9c:b6:b9:de:
        12:e0:6b:10:af:3a:cb:25:35:59:a4:40:c9:55:25:d6:9b:1d:
        da:1a:bd:e5:4a:a6:d0:e8:1f:a7:bc:78:ae:dc:2e:c4:be:0e:
        25:b4:91:f4:0d:f7:19:2b:9b:af:3e:81:9d:cd:9e:d4:bc:e9:
        2d:c5:8f:ef:4b:6b:f4:d4:a3:fe:88:9e:8d:b0:9d:f9:8b:fe:
        84:38:4a:25:00:ac:5a:d8:70:65:c2:46:1a:5c:94:2c:a7:6b:
        c0:2c:d2:74
-----BEGIN CERTIFICATE-----
MIIELDCCAxSgAwIBAgIRAMiw7vAkAdeKHRRAO5D/Rx4wDQYJKoZIhvcNAQELBQAw
QjELMAkGA1UEBhMCVVMxIjAgBgNVBAoMGVBvcnRsYW5kIFN0YXRlIFVuaXZlcnNp
dHkxDzANBgNVBAMMBlN1YiBDQTAeFw0yMzA2MTkxNjA2MTFaFw0zMzA2MTYxNjA2
MTFaMEIxCzAJBgNVBAYTAlVTMSIwIAYDVQQKDBlQb3J0bGFuZCBTdGF0ZSBVbml2
ZXJzaXR5MQ8wDQYDVQQDDAZTdWIgQ0EwggEiMA0GCSqGSIb3DQEBAQUAA4IBDwAw
ggEKAoIBAQCLiEXfPkuVtAHoTtWL1uvIsR/CwWbBbPFj1JAmKGWOjOWNEXRihd8B
XEood3NsWQTv1Ks0tAlH18z4OmbaAbMNfp4j3dFWrbBjuJ54LJZK/aSXrWB8T5yL
eoEp9U39IUWt4i+GJ0OSW4PZICIiptwVjbI8BEBic0oLuZKQC2BYSTliCwEjwvN7
zr9lNgKsw4nZ0OrTQoC80BYZ/BcFA9joyLPa3Hwiy/mZGQczW6dOo8htr7BMuAzs
DUvclg7JufreoFe4Kk6teS3RJgv6Sij6EDX5+qF87afblmKFa+WatVd4G9SFGs5i
ihB6FcmlsoT2O0Idf3BrmtbXxpHsp0brAgMBAAGjggEbMIIBFzBtBggrBgEFBQcB
AQRhMF8wLgYIKwYBBQUHMAKGImh0dHA6Ly9zdWItY2EubG9jYWxob3N0L3N1Yi1j
YS5jcnQwLQYIKwYBBQUHMAGGIWh0dHA6Ly9vY3NwLnN1Yi1jYS5sb2NhbGhvc3Q6
OTA4MTAfBgNVHSMEGDAWgBRNoY2FwcHt6Jo5tQUtO3KIj3fQgjAMBgNVHRMBAf8E
AjAAMDMGA1UdHwQsMCowKKAmoCSGImh0dHA6Ly9zdWItY2EubG9jYWxob3N0L3N1
Yi1jYS5jcmwwEwYDVR0lBAwwCgYIKwYBBQUHAwIwDgYDVR0PAQH/BAQDAgeAMB0G
A1UdDgQWBBTJXHG0QmRW/JkWGhya80ZvVLog7jANBgkqhkiG9w0BAQsFAAOCAQEA
RBsRlhpZXujrtTusC6rhrq05aJN43VGd8W64eOEVDxH+Srjfq/0TCcQTJmEB0cgq
846S00hmF4MIjucgsnKlY/KrnrjqmUJYUaIC6yqttfH1ENUTClA+ghtsbfadnox8
npdP3Pr+IUO0Dw2W0xyi8cF/oCSvApN/iuo4hoJV27Voo71QUNApixjvyATx6QlU
D6zaP+ZatFVWy2NSWsictrneEuBrEK86yyU1WaRAyVUl1psd2hq95Uqm0Ogfp7x4
rtwuxL4OJbSR9A33GSubrz6Bnc2e1LzpLcWP70tr9NSj/oiejbCd+Yv+hDhKJQCs
WthwZcJGGlyULKdrwCzSdA==
-----END CERTIFICATE-----
