Certificate:
    Data:
        Version: 3 (0x2)
        Serial Number:
            c8:b0:ee:f0:24:01:d7:8a:1d:14:40:3b:90:ff:47:00
        Signature Algorithm: sha256WithRSAEncryption
        Issuer: C=US, O=Portland State University, CN=Sub CA
        Validity
            Not Before: Jun 19 16:06:07 2023 GMT
            Not After : Jun 16 16:06:07 2033 GMT
        Subject: C=US, O=Portland State University, CN=Sub CA
        Subject Public Key Info:
            Public Key Algorithm: rsaEncryption
                Public-Key: (2048 bit)
                Modulus:
                    00:cf:b4:85:d6:8f:be:af:75:23:2d:be:33:6e:2a:
                    8a:51:0b:8b:08:19:5d:2d:a8:3e:9b:01:a6:b4:ef:
                    84:25:a5:65:1b:98:42:c0:4e:58:98:54:c8:c8:16:
                    1a:5b:2d:d4:56:ce:99:c4:df:be:0c:5b:b1:89:3b:
                    39:ef:8e:45:86:6d:cd:f7:83:cb:b8:86:9c:2b:ba:
                    79:1a:51:8c:f1:be:7b:b6:59:b7:a7:73:76:fd:dd:
                    3d:16:7a:38:1f:20:76:ad:5c:ea:95:b9:8d:10:a8:
                    27:35:eb:c2:52:90:eb:27:bc:10:67:ca:96:d1:da:
                    5a:bb:10:50:91:a4:65:a1:d9:f2:ea:fe:60:00:04:
                    55:91:8b:d3:99:c7:ba:42:f5:60:b5:82:63:e3:be:
                    85:c3:01:99:7e:4b:44:b8:9d:4a:47:09:9e:bc:a1:
                    28:bd:a8:75:86:5d:79:3f:06:32:eb:9c:99:3e:34:
                    cf:f3:dc:1e:8f:20:0f:34:50:97:c8:87:fb:8e:66:
                    3f:ba:51:b6:33:60:26:92:22:05:0d:f6:e4:0d:a2:
                    80:24:87:01:d1:78:29:f3:aa:f2:2e:e0:1e:d7:f8:
                    03:3f:bb:21:ca:7f:30:f7:4b:48:0a:38:54:99:8f:
                    90:82:46:0b:a1:62:56:e0:9a:c5:df:5f:89:0f:41:
                    58:a1
                Exponent: 65537 (0x10001)
        X509v3 extensions:
            Authority Information Access: 
                CA Issuers - URI:http://sub-ca.localhost/sub-ca.crt
                OCSP - URI:http://ocsp.sub-ca.localhost:9081
            X509v3 Authority Key Identifier: 
                4D:A1:8D:85:C1:C1:ED:E8:9A:39:B5:05:2D:3B:72:88:8F:77:D0:82
            X509v3 Basic Constraints: critical
                CA:FALSE
            X509v3 CRL Distribution Points: 
                Full Name:
                  URI:http://sub-ca.localhost/sub-ca.crl
            X509v3 Extended Key Usage: 
                TLS Web Client Authentication
            X509v3 Key Usage: critical
                Digital Signature
            X509v3 Subject Key Identifier: 
                F2:81:5E:6A:31:1E:BD:56:56:5C:FF:95:FA:B3:FE:B6:70:53:54:5B
    Signature Algorithm: sha256WithRSAEncryption
    Signature Value:
        3e:b3:6d:a0:74:73:f6:d0:47:e6:c1:ca:07:22:28:e2:35:3c:
        5b:29:4b:13:ed:5a:0a:a8:4e:37:c6:44:3d:40:09:8f:36:6a:
        12:ed:37:63:32:7f:f4:8a:74:a1:26:83:66:25:f2:d7:64:b3:
        a4:e3:e5:69:76:b0:e5:2d:3f:05:86:02:f7:03:ec:38:42:34:
        de:f2:33:b9:2e:e4:10:45:34:f0:d7:2e:24:25:98:d2:1e:e8:
        8b:db:a4:41:c3:0e:de:27:d1:69:50:33:3e:85:14:8f:6c:b8:
        a8:28:76:57:60:68:5c:42:a7:be:a3:d4:fa:d5:4b:f3:bc:21:
        8f:7a:65:d3:47:c4:7d:dd:71:20:69:67:de:01:7b:b5:83:75:
        f1:9a:14:89:d1:74:d4:0a:48:ec:db:09:00:d0:bc:54:8d:36:
        ed:11:91:80:42:c3:f9:d1:58:76:c4:32:51:68:53:06:9a:1a:
        0e:ea:18:ae:47:b1:8f:fa:a8:e3:7a:99:fb:14:c2:02:cb:5c:
        b1:51:97:f8:be:6b:e9:7a:f0:42:f0:88:6b:8d:0d:c6:9d:d3:
        dc:ef:ce:97:e6:41:80:d1:86:f5:4d:9a:78:b9:7b:e7:d4:04:
        e8:52:b7:fd:54:80:7c:f8:6d:be:be:95:65:07:19:cc:5f:48:
        04:c5:fd:19
-----BEGIN CERTIFICATE-----
MIIELDCCAxSgAwIBAgIRAMiw7vAkAdeKHRRAO5D/RwAwDQYJKoZIhvcNAQELBQAw
QjELMAkGA1UEBhMCVVMxIjAgBgNVBAoMGVBvcnRsYW5kIFN0YXRlIFVuaXZlcnNp
dHkxDzANBgNVBAMMBlN1YiBDQTAeFw0yMzA2MTkxNjA2MDdaFw0zMzA2MTYxNjA2
MDdaMEIxCzAJBgNVBAYTAlVTMSIwIAYDVQQKDBlQb3J0bGFuZCBTdGF0ZSBVbml2
ZXJzaXR5MQ8wDQYDVQQDDAZTdWIgQ0EwggEiMA0GCSqGSIb3DQEBAQUAA4IBDwAw
ggEKAoIBAQDPtIXWj76vdSMtvjNuKopRC4sIGV0tqD6bAaa074QlpWUbmELATliY
VMjIFhpbLdRWzpnE374MW7GJOznvjkWGbc33g8u4hpwrunkaUYzxvnu2Wbenc3b9
3T0WejgfIHatXOqVuY0QqCc168JSkOsnvBBnypbR2lq7EFCRpGWh2fLq/mAABFWR
i9OZx7pC9WC1gmPjvoXDAZl+S0S4nUpHCZ68oSi9qHWGXXk/BjLrnJk+NM/z3B6P
IA80UJfIh/uOZj+6UbYzYCaSIgUN9uQNooAkhwHReCnzqvIu4B7X+AM/uyHKfzD3
S0gKOFSZj5CCRguhYlbgmsXfX4kPQVihAgMBAAGjggEbMIIBFzBtBggrBgEFBQcB
AQRhMF8wLgYIKwYBBQUHMAKGImh0dHA6Ly9zdWItY2EubG9jYWxob3N0L3N1Yi1j
YS5jcnQwLQYIKwYBBQUHMAGGIWh0dHA6Ly9vY3NwLnN1Yi1jYS5sb2NhbGhvc3Q6
OTA4MTAfBgNVHSMEGDAWgBRNoY2FwcHt6Jo5tQUtO3KIj3fQgjAMBgNVHRMBAf8E
AjAAMDMGA1UdHwQsMCowKKAmoCSGImh0dHA6Ly9zdWItY2EubG9jYWxob3N0L3N1
Yi1jYS5jcmwwEwYDVR0lBAwwCgYIKwYBBQUHAwIwDgYDVR0PAQH/BAQDAgeAMB0G
A1UdDgQWBBTygV5qMR69VlZc/5X6s/62cFNUWzANBgkqhkiG9w0BAQsFAAOCAQEA
PrNtoHRz9tBH5sHKByIo4jU8WylLE+1aCqhON8ZEPUAJjzZqEu03YzJ/9Ip0oSaD
ZiXy12SzpOPlaXaw5S0/BYYC9wPsOEI03vIzuS7kEEU08NcuJCWY0h7oi9ukQcMO
3ifRaVAzPoUUj2y4qCh2V2BoXEKnvqPU+tVL87whj3pl00fEfd1xIGln3gF7tYN1
8ZoUidF01ApI7NsJANC8VI027RGRgELD+dFYdsQyUWhTBpoaDuoYrkexj/qo43qZ
+xTCAstcsVGX+L5r6XrwQvCIa40Nxp3T3O/Ol+ZBgNGG9U2aeLl759QE6FK3/VSA
fPhtvr6VZQcZzF9IBMX9GQ==
-----END CERTIFICATE-----
