Certificate:
    Data:
        Version: 3 (0x2)
        Serial Number:
            c8:b0:ee:f0:24:01:d7:8a:1d:14:40:3b:90:ff:46:e3
        Signature Algorithm: sha256WithRSAEncryption
        Issuer: C=US, O=Portland State University, CN=Sub CA
        Validity
            Not Before: Nov  8 20:35:29 2022 GMT
            Not After : Nov  5 20:35:29 2032 GMT
        Subject: C=US, O=Portland State University, CN=Sub CA
        Subject Public Key Info:
            Public Key Algorithm: rsaEncryption
                Public-Key: (2048 bit)
                Modulus:
                    00:aa:1e:8b:06:00:b5:40:8f:2e:d5:2d:ff:a2:ea:
                    ce:c4:a4:3c:bc:27:8e:4d:46:f0:64:50:59:b0:18:
                    ea:77:cf:4f:88:a4:28:76:9e:73:78:ec:ef:c6:c3:
                    97:f2:b8:a9:bc:a8:a0:25:57:ee:3f:73:b2:4e:6d:
                    e4:2b:7e:b9:12:82:4d:b5:15:63:d4:c6:c0:00:cd:
                    c3:57:75:e7:d4:f3:cc:87:4d:79:81:14:96:6d:f2:
                    59:f6:f9:95:10:37:40:20:e5:ee:2c:95:03:84:23:
                    10:46:7f:b7:b9:28:06:9f:d6:e8:5c:4f:4b:c7:9c:
                    d9:ff:c3:9d:86:5a:29:f5:9a:45:45:a4:0e:76:98:
                    82:19:ba:d2:5d:18:1b:14:5c:f1:aa:80:96:67:66:
                    12:50:ca:58:2d:9d:d3:bb:d2:b6:f1:fa:53:20:77:
                    3a:9f:8e:f3:af:ad:8b:cd:5c:9e:a2:21:ed:77:e0:
                    8b:e1:9d:ac:60:e0:49:29:95:fc:eb:9f:58:eb:ac:
                    e3:58:36:d1:e7:b3:ad:9d:31:a1:c9:26:cc:58:35:
                    ea:63:45:c8:b7:40:7d:18:d1:26:60:ee:40:43:00:
                    fb:9c:3a:65:5a:73:e1:aa:d1:3b:0d:20:9d:57:1c:
                    94:2c:35:af:f8:ad:72:c9:e9:58:ca:6f:9b:14:ef:
                    90:91
                Exponent: 65537 (0x10001)
        X509v3 extensions:
            Authority Information Access: 
                CA Issuers - URI:http://sub-ca.localhost/sub-ca.crt
                OCSP - URI:http://ocsp.sub-ca.localhost:9081
            X509v3 Authority Key Identifier: 
                4D:A1:8D:85:C1:C1:ED:E8:9A:39:B5:05:2D:3B:72:88:8F:77:D0:82
            X509v3 Basic Constraints: critical
                CA:FALSE
            X509v3 CRL Distribution Points: 
                Full Name:
                  URI:http://sub-ca.localhost/sub-ca.crl
            X509v3 Extended Key Usage: 
                TLS Web Client Authentication
            X509v3 Key Usage: critical
                Digital Signature
            X509v3 Subject Key Identifier: 
                57:68:AC:D1:8A:60:D5:A7:72:BE:08:BB:F5:52:C4:BD:1C:4A:0D:5A
    Signature Algorithm: sha256WithRSAEncryption
    Signature Value:
        52:49:8a:ad:7d:46:0a:4c:39:65:0c:14:a1:0c:cb:03:74:6e:
        30:8a:5b:ad:61:73:e3:b7:4c:19:d0:2f:12:2c:a8:cb:42:47:
        d6:0e:f1:c3:64:2d:15:37:fa:9f:10:7a:15:ea:d6:2b:17:55:
        e4:bb:ba:f6:6a:d7:8a:93:a9:8c:b9:1e:01:c6:af:d7:28:77:
        76:ed:be:ac:fe:d6:04:a8:f2:52:79:36:70:fd:39:bb:e6:3c:
        2f:07:76:59:5b:98:e1:8d:ac:c5:77:e9:2e:ff:2e:88:7b:5f:
        ff:8a:00:07:88:1b:20:10:e5:b8:e1:db:d0:a3:e6:6f:29:f5:
        d5:15:d5:c4:69:6b:73:14:eb:48:0a:63:88:8b:84:9f:58:33:
        b4:b9:f0:c0:a0:53:cd:bd:a3:00:a6:1f:dd:83:31:fc:10:c1:
        23:6b:83:35:f7:bf:30:cb:fe:f9:90:41:46:0f:ac:8e:26:5f:
        d8:0e:da:3d:c1:50:19:7c:40:df:64:a8:ec:07:17:59:62:0f:
        d5:0d:9a:e3:51:ea:6e:7f:b2:56:69:5f:f4:bb:9d:42:77:10:
        cb:4c:a0:31:02:37:08:a8:97:28:e3:21:89:e0:63:9a:e4:d4:
        0e:e6:f9:5d:20:d3:d4:75:08:21:7b:0f:82:6b:c3:53:25:02:
        10:f3:bb:e5
-----BEGIN CERTIFICATE-----
MIIELDCCAxSgAwIBAgIRAMiw7vAkAdeKHRRAO5D/RuMwDQYJKoZIhvcNAQELBQAw
QjELMAkGA1UEBhMCVVMxIjAgBgNVBAoMGVBvcnRsYW5kIFN0YXRlIFVuaXZlcnNp
dHkxDzANBgNVBAMMBlN1YiBDQTAeFw0yMjExMDgyMDM1MjlaFw0zMjExMDUyMDM1
MjlaMEIxCzAJBgNVBAYTAlVTMSIwIAYDVQQKDBlQb3J0bGFuZCBTdGF0ZSBVbml2
ZXJzaXR5MQ8wDQYDVQQDDAZTdWIgQ0EwggEiMA0GCSqGSIb3DQEBAQUAA4IBDwAw
ggEKAoIBAQCqHosGALVAjy7VLf+i6s7EpDy8J45NRvBkUFmwGOp3z0+IpCh2nnN4
7O/Gw5fyuKm8qKAlV+4/c7JObeQrfrkSgk21FWPUxsAAzcNXdefU88yHTXmBFJZt
8ln2+ZUQN0Ag5e4slQOEIxBGf7e5KAaf1uhcT0vHnNn/w52GWin1mkVFpA52mIIZ
utJdGBsUXPGqgJZnZhJQylgtndO70rbx+lMgdzqfjvOvrYvNXJ6iIe134Ivhnaxg
4Ekplfzrn1jrrONYNtHns62dMaHJJsxYNepjRci3QH0Y0SZg7kBDAPucOmVac+Gq
0TsNIJ1XHJQsNa/4rXLJ6VjKb5sU75CRAgMBAAGjggEbMIIBFzBtBggrBgEFBQcB
AQRhMF8wLgYIKwYBBQUHMAKGImh0dHA6Ly9zdWItY2EubG9jYWxob3N0L3N1Yi1j
YS5jcnQwLQYIKwYBBQUHMAGGIWh0dHA6Ly9vY3NwLnN1Yi1jYS5sb2NhbGhvc3Q6
OTA4MTAfBgNVHSMEGDAWgBRNoY2FwcHt6Jo5tQUtO3KIj3fQgjAMBgNVHRMBAf8E
AjAAMDMGA1UdHwQsMCowKKAmoCSGImh0dHA6Ly9zdWItY2EubG9jYWxob3N0L3N1
Yi1jYS5jcmwwEwYDVR0lBAwwCgYIKwYBBQUHAwIwDgYDVR0PAQH/BAQDAgeAMB0G
A1UdDgQWBBRXaKzRimDVp3K+CLv1UsS9HEoNWjANBgkqhkiG9w0BAQsFAAOCAQEA
UkmKrX1GCkw5ZQwUoQzLA3RuMIpbrWFz47dMGdAvEiyoy0JH1g7xw2QtFTf6nxB6
FerWKxdV5Lu69mrXipOpjLkeAcav1yh3du2+rP7WBKjyUnk2cP05u+Y8Lwd2WVuY
4Y2sxXfpLv8uiHtf/4oAB4gbIBDluOHb0KPmbyn11RXVxGlrcxTrSApjiIuEn1gz
tLnwwKBTzb2jAKYf3YMx/BDBI2uDNfe/MMv++ZBBRg+sjiZf2A7aPcFQGXxA32So
7AcXWWIP1Q2a41Hqbn+yVmlf9LudQncQy0ygMQI3CKiXKOMhieBjmuTUDub5XSDT
1HUIIXsPgmvDUyUCEPO75Q==
-----END CERTIFICATE-----
