Certificate:
    Data:
        Version: 3 (0x2)
        Serial Number:
            c8:b0:ee:f0:24:01:d7:8a:1d:14:40:3b:90:ff:46:f1
        Signature Algorithm: sha256WithRSAEncryption
        Issuer: C=US, O=Portland State University, CN=Sub CA
        Validity
            Not Before: Jun 19 16:06:05 2023 GMT
            Not After : Jun 16 16:06:05 2033 GMT
        Subject: C=US, O=Portland State University, CN=Sub CA
        Subject Public Key Info:
            Public Key Algorithm: rsaEncryption
                Public-Key: (2048 bit)
                Modulus:
                    00:b3:ce:91:b7:64:b9:e6:65:d5:62:70:66:04:23:
                    53:bb:ad:72:d8:f9:8e:38:a5:1f:b4:a2:5e:54:c5:
                    c1:21:64:08:52:1f:68:97:3f:26:ed:d5:f3:dd:f7:
                    e5:10:98:41:fc:67:7b:6c:a0:9d:9a:42:2d:f0:f3:
                    e1:99:b6:fd:4a:83:55:aa:c3:f4:d8:80:98:dc:b2:
                    4f:b8:0f:d0:c0:00:22:9a:75:49:41:5f:a6:45:f3:
                    2b:8e:d4:24:2a:43:19:90:f1:40:0f:8f:54:69:3f:
                    3b:26:5e:77:81:6c:aa:9e:8a:5e:b9:4f:9c:55:08:
                    a7:09:2a:48:6a:47:8b:c1:a6:e3:69:e3:fc:9b:da:
                    ae:43:c7:39:8e:11:c0:f9:b7:f8:1b:10:98:d0:a8:
                    f7:e1:6e:ac:d4:eb:6a:d0:e2:7a:4f:a5:92:62:25:
                    a7:49:32:5f:70:35:94:88:16:c5:df:1f:6d:6c:e1:
                    1a:b5:1b:df:8c:02:90:17:be:9f:c0:20:c7:df:8d:
                    b5:b0:3a:dd:37:7c:59:49:47:a6:be:cc:2f:df:7a:
                    56:12:a6:31:f0:5e:94:97:72:ad:3a:f6:e7:cc:36:
                    0e:15:03:6b:ec:82:63:7e:3b:1c:51:10:e8:b9:5f:
                    4c:c3:c8:8b:23:6f:ff:fb:4f:a4:6d:90:09:38:12:
                    7f:73
                Exponent: 65537 (0x10001)
        X509v3 extensions:
            Authority Information Access: 
                CA Issuers - URI:http://sub-ca.localhost/sub-ca.crt
                OCSP - URI:http://ocsp.sub-ca.localhost:9081
            X509v3 Authority Key Identifier: 
                4D:A1:8D:85:C1:C1:ED:E8:9A:39:B5:05:2D:3B:72:88:8F:77:D0:82
            X509v3 Basic Constraints: critical
                CA:FALSE
            X509v3 CRL Distribution Points: 
                Full Name:
                  URI:http://sub-ca.localhost/sub-ca.crl
            X509v3 Extended Key Usage: 
                TLS Web Client Authentication
            X509v3 Key Usage: critical
                Digital Signature
            X509v3 Subject Key Identifier: 
                09:DE:8A:AD:70:BB:70:47:93:4C:D3:EF:F3:9E:16:1B:5F:2C:C9:D3
    Signature Algorithm: sha256WithRSAEncryption
    Signature Value:
        74:ec:16:52:e6:85:a5:47:9a:50:a1:02:74:b0:a3:29:4e:db:
        a0:85:0f:4a:d0:8b:4c:64:9b:d4:4b:f3:b7:c3:aa:91:46:f4:
        c8:9b:e0:f6:43:e0:a9:9c:81:fc:96:62:6a:16:f2:05:4b:7f:
        0c:1e:ff:fe:e2:84:01:1b:02:f5:d1:0d:0e:24:53:44:d0:34:
        f2:40:41:bb:f3:6b:64:67:2b:26:b9:45:1a:cc:19:bb:76:d3:
        bb:9f:f3:2c:57:6a:cd:de:46:81:59:6e:bb:7b:6d:79:e9:48:
        e1:a3:3d:bd:5e:4c:82:af:b1:32:fa:e6:55:0a:e2:6c:c0:e8:
        46:fb:0f:1a:6f:bf:dd:83:ac:8b:5b:99:9f:43:3a:67:d2:22:
        8b:ad:9b:bd:32:6d:73:6e:7c:97:98:c4:6b:69:5c:0b:d3:65:
        99:92:fb:6a:04:5c:eb:24:19:36:e7:de:87:bf:7a:5e:7e:fd:
        ba:a6:ba:47:85:e5:1b:c2:2d:90:49:6a:d8:cd:1e:54:1b:10:
        77:ba:2b:b4:f6:fb:87:1c:9d:fd:2a:a0:d1:aa:57:20:2b:b1:
        96:16:48:55:85:20:a0:1a:5d:28:d9:d9:d6:4c:b1:05:a6:d2:
        4a:4d:c6:25:57:fa:28:b7:1b:df:97:85:23:34:7d:75:c1:55:
        67:62:dd:27
-----BEGIN CERTIFICATE-----
MIIELDCCAxSgAwIBAgIRAMiw7vAkAdeKHRRAO5D/RvEwDQYJKoZIhvcNAQELBQAw
QjELMAkGA1UEBhMCVVMxIjAgBgNVBAoMGVBvcnRsYW5kIFN0YXRlIFVuaXZlcnNp
dHkxDzANBgNVBAMMBlN1YiBDQTAeFw0yMzA2MTkxNjA2MDVaFw0zMzA2MTYxNjA2
MDVaMEIxCzAJBgNVBAYTAlVTMSIwIAYDVQQKDBlQb3J0bGFuZCBTdGF0ZSBVbml2
ZXJzaXR5MQ8wDQYDVQQDDAZTdWIgQ0EwggEiMA0GCSqGSIb3DQEBAQUAA4IBDwAw
ggEKAoIBAQCzzpG3ZLnmZdVicGYEI1O7rXLY+Y44pR+0ol5UxcEhZAhSH2iXPybt
1fPd9+UQmEH8Z3tsoJ2aQi3w8+GZtv1Kg1Wqw/TYgJjcsk+4D9DAACKadUlBX6ZF
8yuO1CQqQxmQ8UAPj1RpPzsmXneBbKqeil65T5xVCKcJKkhqR4vBpuNp4/yb2q5D
xzmOEcD5t/gbEJjQqPfhbqzU62rQ4npPpZJiJadJMl9wNZSIFsXfH21s4Rq1G9+M
ApAXvp/AIMffjbWwOt03fFlJR6a+zC/felYSpjHwXpSXcq069ufMNg4VA2vsgmN+
OxxREOi5X0zDyIsjb//7T6RtkAk4En9zAgMBAAGjggEbMIIBFzBtBggrBgEFBQcB
AQRhMF8wLgYIKwYBBQUHMAKGImh0dHA6Ly9zdWItY2EubG9jYWxob3N0L3N1Yi1j
YS5jcnQwLQYIKwYBBQUHMAGGIWh0dHA6Ly9vY3NwLnN1Yi1jYS5sb2NhbGhvc3Q6
OTA4MTAfBgNVHSMEGDAWgBRNoY2FwcHt6Jo5tQUtO3KIj3fQgjAMBgNVHRMBAf8E
AjAAMDMGA1UdHwQsMCowKKAmoCSGImh0dHA6Ly9zdWItY2EubG9jYWxob3N0L3N1
Yi1jYS5jcmwwEwYDVR0lBAwwCgYIKwYBBQUHAwIwDgYDVR0PAQH/BAQDAgeAMB0G
A1UdDgQWBBQJ3oqtcLtwR5NM0+/znhYbXyzJ0zANBgkqhkiG9w0BAQsFAAOCAQEA
dOwWUuaFpUeaUKECdLCjKU7boIUPStCLTGSb1Evzt8OqkUb0yJvg9kPgqZyB/JZi
ahbyBUt/DB7//uKEARsC9dENDiRTRNA08kBBu/NrZGcrJrlFGswZu3bTu5/zLFdq
zd5GgVluu3tteelI4aM9vV5Mgq+xMvrmVQribMDoRvsPGm+/3YOsi1uZn0M6Z9Ii
i62bvTJtc258l5jEa2lcC9NlmZL7agRc6yQZNufeh796Xn79uqa6R4XlG8ItkElq
2M0eVBsQd7ortPb7hxyd/Sqg0apXICuxlhZIVYUgoBpdKNnZ1kyxBabSSk3GJVf6
KLcb35eFIzR9dcFVZ2LdJw==
-----END CERTIFICATE-----
