Certificate:
    Data:
        Version: 3 (0x2)
        Serial Number:
            c8:b0:ee:f0:24:01:d7:8a:1d:14:40:3b:90:ff:47:12
        Signature Algorithm: sha256WithRSAEncryption
        Issuer: C=US, O=Portland State University, CN=Sub CA
        Validity
            Not Before: Jun 19 16:06:10 2023 GMT
            Not After : Jun 16 16:06:10 2033 GMT
        Subject: C=US, O=Portland State University, CN=Sub CA
        Subject Public Key Info:
            Public Key Algorithm: rsaEncryption
                Public-Key: (2048 bit)
                Modulus:
                    00:c7:2b:71:77:a7:5e:c6:4d:91:31:e0:9a:dd:d5:
                    6a:59:32:0d:e5:bd:ea:e0:45:7b:6b:4e:3f:02:4b:
                    7b:0e:ec:29:10:f5:d0:b2:ca:78:14:d8:cb:10:55:
                    90:07:23:78:8b:0b:9a:4f:a4:76:5a:1c:ab:38:04:
                    3a:3b:cc:55:f7:e8:d0:95:b2:b0:c5:6d:87:3c:07:
                    f2:d6:93:c3:82:9b:0f:6b:cb:a0:e0:14:62:5c:8d:
                    ed:52:e8:a2:5e:22:11:18:6d:75:ca:d3:35:11:31:
                    25:c7:e9:e5:d7:d3:93:70:8e:94:c4:5f:13:a3:4b:
                    be:32:0f:0c:9f:b2:73:3e:59:e5:49:13:64:cd:fa:
                    04:e6:4c:4e:93:69:68:59:82:b2:4f:5f:e7:d3:e6:
                    6d:37:20:49:81:ad:73:b8:b5:af:7d:34:15:28:37:
                    de:84:2c:b0:95:4d:47:d0:19:f4:c9:7c:84:73:f6:
                    a5:c1:70:75:06:c7:81:ea:64:f0:fc:11:21:48:23:
                    ab:53:aa:c5:9b:0f:e3:ae:4d:a3:1f:cc:4d:ab:3d:
                    82:dd:15:5c:2d:56:44:15:b3:c7:bc:5c:48:e2:d2:
                    f1:14:44:74:41:f1:58:e7:06:20:e8:97:02:d5:62:
                    d6:e2:b3:f8:80:43:6b:91:b9:ff:21:f2:55:e1:88:
                    66:83
                Exponent: 65537 (0x10001)
        X509v3 extensions:
            Authority Information Access: 
                CA Issuers - URI:http://sub-ca.localhost/sub-ca.crt
                OCSP - URI:http://ocsp.sub-ca.localhost:9081
            X509v3 Authority Key Identifier: 
                4D:A1:8D:85:C1:C1:ED:E8:9A:39:B5:05:2D:3B:72:88:8F:77:D0:82
            X509v3 Basic Constraints: critical
                CA:FALSE
            X509v3 CRL Distribution Points: 
                Full Name:
                  URI:http://sub-ca.localhost/sub-ca.crl
            X509v3 Extended Key Usage: 
                TLS Web Client Authentication
            X509v3 Key Usage: critical
                Digital Signature
            X509v3 Subject Key Identifier: 
                4A:72:2B:01:2B:98:89:5B:F4:83:D6:60:B5:CF:87:29:CC:4C:8F:47
    Signature Algorithm: sha256WithRSAEncryption
    Signature Value:
        14:56:31:4e:55:69:89:e1:4e:3e:2f:50:d2:71:ef:48:ce:e0:
        f2:af:2d:2d:05:4a:38:fc:70:6d:f3:9f:0e:9c:33:09:a2:ba:
        a1:3a:ab:09:8d:df:a1:95:ed:1d:8b:3e:85:ed:92:5e:d2:6a:
        67:d7:b3:41:53:ec:f6:71:53:09:34:30:2a:1d:e6:50:dd:cf:
        da:45:93:f0:01:bf:59:88:fa:dc:2d:bd:4c:64:5b:81:d9:56:
        a8:68:e2:67:4e:ef:fb:3f:ed:c8:b9:44:01:f9:2a:6d:e4:7a:
        23:2d:53:aa:6f:83:2d:34:76:65:9e:55:40:2e:2f:b9:9f:bb:
        c0:4e:c7:3d:9d:6c:bd:32:d0:2d:7b:9e:b3:03:cf:02:6f:8b:
        c1:bf:ce:16:8c:1a:e0:c3:53:35:2a:90:ad:f9:d0:ec:27:c9:
        96:54:82:95:ac:f9:68:11:b5:9a:1a:a1:e7:91:cb:ad:ae:f2:
        ae:9e:4b:8d:52:e1:34:04:f9:cc:1a:a5:a0:b2:9c:a2:ef:86:
        99:a7:71:c6:30:84:86:20:29:93:a6:e7:14:8f:9f:bb:51:15:
        03:84:1d:0f:b7:c7:1c:45:92:bd:29:f8:d5:04:8d:3e:a1:c6:
        30:29:f6:9d:d5:f8:78:fc:f7:17:60:68:77:0e:e2:52:67:a7:
        29:dd:ae:08
-----BEGIN CERTIFICATE-----
MIIELDCCAxSgAwIBAgIRAMiw7vAkAdeKHRRAO5D/RxIwDQYJKoZIhvcNAQELBQAw
QjELMAkGA1UEBhMCVVMxIjAgBgNVBAoMGVBvcnRsYW5kIFN0YXRlIFVuaXZlcnNp
dHkxDzANBgNVBAMMBlN1YiBDQTAeFw0yMzA2MTkxNjA2MTBaFw0zMzA2MTYxNjA2
MTBaMEIxCzAJBgNVBAYTAlVTMSIwIAYDVQQKDBlQb3J0bGFuZCBTdGF0ZSBVbml2
ZXJzaXR5MQ8wDQYDVQQDDAZTdWIgQ0EwggEiMA0GCSqGSIb3DQEBAQUAA4IBDwAw
ggEKAoIBAQDHK3F3p17GTZEx4Jrd1WpZMg3lvergRXtrTj8CS3sO7CkQ9dCyyngU
2MsQVZAHI3iLC5pPpHZaHKs4BDo7zFX36NCVsrDFbYc8B/LWk8OCmw9ry6DgFGJc
je1S6KJeIhEYbXXK0zURMSXH6eXX05NwjpTEXxOjS74yDwyfsnM+WeVJE2TN+gTm
TE6TaWhZgrJPX+fT5m03IEmBrXO4ta99NBUoN96ELLCVTUfQGfTJfIRz9qXBcHUG
x4HqZPD8ESFII6tTqsWbD+OuTaMfzE2rPYLdFVwtVkQVs8e8XEji0vEURHRB8Vjn
BiDolwLVYtbis/iAQ2uRuf8h8lXhiGaDAgMBAAGjggEbMIIBFzBtBggrBgEFBQcB
AQRhMF8wLgYIKwYBBQUHMAKGImh0dHA6Ly9zdWItY2EubG9jYWxob3N0L3N1Yi1j
YS5jcnQwLQYIKwYBBQUHMAGGIWh0dHA6Ly9vY3NwLnN1Yi1jYS5sb2NhbGhvc3Q6
OTA4MTAfBgNVHSMEGDAWgBRNoY2FwcHt6Jo5tQUtO3KIj3fQgjAMBgNVHRMBAf8E
AjAAMDMGA1UdHwQsMCowKKAmoCSGImh0dHA6Ly9zdWItY2EubG9jYWxob3N0L3N1
Yi1jYS5jcmwwEwYDVR0lBAwwCgYIKwYBBQUHAwIwDgYDVR0PAQH/BAQDAgeAMB0G
A1UdDgQWBBRKcisBK5iJW/SD1mC1z4cpzEyPRzANBgkqhkiG9w0BAQsFAAOCAQEA
FFYxTlVpieFOPi9Q0nHvSM7g8q8tLQVKOPxwbfOfDpwzCaK6oTqrCY3foZXtHYs+
he2SXtJqZ9ezQVPs9nFTCTQwKh3mUN3P2kWT8AG/WYj63C29TGRbgdlWqGjiZ07v
+z/tyLlEAfkqbeR6Iy1Tqm+DLTR2ZZ5VQC4vuZ+7wE7HPZ1svTLQLXueswPPAm+L
wb/OFowa4MNTNSqQrfnQ7CfJllSClaz5aBG1mhqh55HLra7yrp5LjVLhNAT5zBql
oLKcou+GmadxxjCEhiApk6bnFI+fu1EVA4QdD7fHHEWSvSn41QSNPqHGMCn2ndX4
ePz3F2Bodw7iUmenKd2uCA==
-----END CERTIFICATE-----
