Certificate:
    Data:
        Version: 3 (0x2)
        Serial Number:
            c8:b0:ee:f0:24:01:d7:8a:1d:14:40:3b:90:ff:47:36
        Signature Algorithm: sha256WithRSAEncryption
        Issuer: C=US, O=Portland State University, CN=Sub CA
        Validity
            Not Before: Jun 19 16:06:16 2023 GMT
            Not After : Jun 16 16:06:16 2033 GMT
        Subject: C=US, O=Portland State University, CN=Sub CA
        Subject Public Key Info:
            Public Key Algorithm: rsaEncryption
                Public-Key: (2048 bit)
                Modulus:
                    00:b2:3b:ba:8f:de:6d:cd:b9:a4:f7:4c:9d:58:08:
                    d0:0f:24:b3:ff:c5:af:c5:72:17:69:a2:4a:77:23:
                    15:5b:15:51:6f:bd:17:17:b4:1d:35:59:58:98:31:
                    5e:df:a3:b6:27:99:c7:ac:63:c1:e7:c6:75:3c:ca:
                    1a:47:24:db:3b:a7:29:60:57:8f:37:35:a7:fe:38:
                    d3:b1:6b:8b:4e:b6:da:fe:b0:88:06:60:7a:79:e9:
                    7b:33:0f:ba:2a:32:7d:4c:76:ef:a4:fb:77:05:92:
                    29:3c:fc:f5:83:11:b8:39:88:11:7c:df:4a:32:6e:
                    87:e6:e2:b8:25:23:03:3f:8b:2f:1d:f3:a3:6c:7a:
                    3e:ff:76:e2:36:69:ef:5e:b3:48:ed:b2:9a:80:a4:
                    f8:99:7e:86:51:96:f2:2e:9d:a4:99:c7:1b:5d:dd:
                    77:04:78:f3:80:0f:fd:5d:4b:45:23:66:c3:04:f0:
                    ae:55:a5:a9:bc:17:69:08:41:1a:d6:a5:ff:5a:cf:
                    5c:81:2f:36:83:9c:64:84:52:57:da:6d:31:3e:d5:
                    a7:f7:11:d0:dc:1c:63:2a:b2:de:fe:a4:cb:0f:04:
                    a0:e9:b5:69:3e:11:4e:71:2e:7a:03:3b:ff:40:1d:
                    89:94:fb:58:f2:78:3d:20:e1:d6:bc:e8:ba:c8:cb:
                    e3:ab
                Exponent: 65537 (0x10001)
        X509v3 extensions:
            Authority Information Access: 
                CA Issuers - URI:http://sub-ca.localhost/sub-ca.crt
                OCSP - URI:http://ocsp.sub-ca.localhost:9081
            X509v3 Authority Key Identifier: 
                4D:A1:8D:85:C1:C1:ED:E8:9A:39:B5:05:2D:3B:72:88:8F:77:D0:82
            X509v3 Basic Constraints: critical
                CA:FALSE
            X509v3 CRL Distribution Points: 
                Full Name:
                  URI:http://sub-ca.localhost/sub-ca.crl
            X509v3 Extended Key Usage: 
                TLS Web Client Authentication
            X509v3 Key Usage: critical
                Digital Signature
            X509v3 Subject Key Identifier: 
                E8:F9:8D:8A:60:5B:E9:78:FF:7C:53:17:38:BC:07:50:E7:2A:85:ED
    Signature Algorithm: sha256WithRSAEncryption
    Signature Value:
        90:00:c9:29:74:1d:39:6f:8a:0c:83:f7:8e:67:d7:ee:d8:72:
        44:52:bc:4e:92:1b:60:bd:f3:88:4d:d4:72:49:c1:81:d9:1b:
        61:b8:a0:e8:cc:ab:a7:a8:7a:f0:d0:80:1d:ef:74:27:14:ce:
        57:52:5a:9d:f7:e5:90:b4:ba:df:1c:f8:29:b6:08:01:98:61:
        f7:91:5d:f2:18:bf:a6:2a:f5:74:01:e6:57:50:f8:86:62:df:
        2b:c0:39:c7:c9:10:9f:c2:b2:e0:1f:d7:d1:2f:e9:06:ae:ff:
        0d:a9:98:ad:29:7f:16:92:2c:6b:5d:a1:47:bc:82:65:aa:26:
        54:43:1d:d2:55:a8:92:b5:fb:8b:d3:bd:d6:53:e5:8a:aa:49:
        8e:78:40:c0:eb:4a:bf:33:b3:56:0a:dd:3f:42:4c:94:88:30:
        90:0d:e3:0e:6a:28:b7:97:c2:c8:3f:10:41:35:10:44:9b:22:
        5a:4a:42:12:14:9c:9d:3f:89:3f:79:c0:76:57:50:d9:16:c0:
        f4:05:fa:16:69:44:d2:21:45:3b:1b:4c:ae:20:6f:d9:5a:97:
        b7:4f:f1:9e:22:1a:77:58:11:75:e4:bb:9c:5a:5b:6c:6c:36:
        38:90:d9:c6:4c:cc:0a:f9:e3:ed:bf:e8:aa:ac:e5:f6:29:5c:
        14:b2:90:49
-----BEGIN CERTIFICATE-----
MIIELDCCAxSgAwIBAgIRAMiw7vAkAdeKHRRAO5D/RzYwDQYJKoZIhvcNAQELBQAw
QjELMAkGA1UEBhMCVVMxIjAgBgNVBAoMGVBvcnRsYW5kIFN0YXRlIFVuaXZlcnNp
dHkxDzANBgNVBAMMBlN1YiBDQTAeFw0yMzA2MTkxNjA2MTZaFw0zMzA2MTYxNjA2
MTZaMEIxCzAJBgNVBAYTAlVTMSIwIAYDVQQKDBlQb3J0bGFuZCBTdGF0ZSBVbml2
ZXJzaXR5MQ8wDQYDVQQDDAZTdWIgQ0EwggEiMA0GCSqGSIb3DQEBAQUAA4IBDwAw
ggEKAoIBAQCyO7qP3m3NuaT3TJ1YCNAPJLP/xa/Fchdpokp3IxVbFVFvvRcXtB01
WViYMV7fo7YnmcesY8HnxnU8yhpHJNs7pylgV483Naf+ONOxa4tOttr+sIgGYHp5
6XszD7oqMn1Mdu+k+3cFkik8/PWDEbg5iBF830oybofm4rglIwM/iy8d86Nsej7/
duI2ae9es0jtspqApPiZfoZRlvIunaSZxxtd3XcEePOAD/1dS0UjZsME8K5Vpam8
F2kIQRrWpf9az1yBLzaDnGSEUlfabTE+1af3EdDcHGMqst7+pMsPBKDptWk+EU5x
LnoDO/9AHYmU+1jyeD0g4da86LrIy+OrAgMBAAGjggEbMIIBFzBtBggrBgEFBQcB
AQRhMF8wLgYIKwYBBQUHMAKGImh0dHA6Ly9zdWItY2EubG9jYWxob3N0L3N1Yi1j
YS5jcnQwLQYIKwYBBQUHMAGGIWh0dHA6Ly9vY3NwLnN1Yi1jYS5sb2NhbGhvc3Q6
OTA4MTAfBgNVHSMEGDAWgBRNoY2FwcHt6Jo5tQUtO3KIj3fQgjAMBgNVHRMBAf8E
AjAAMDMGA1UdHwQsMCowKKAmoCSGImh0dHA6Ly9zdWItY2EubG9jYWxob3N0L3N1
Yi1jYS5jcmwwEwYDVR0lBAwwCgYIKwYBBQUHAwIwDgYDVR0PAQH/BAQDAgeAMB0G
A1UdDgQWBBTo+Y2KYFvpeP98Uxc4vAdQ5yqF7TANBgkqhkiG9w0BAQsFAAOCAQEA
kADJKXQdOW+KDIP3jmfX7thyRFK8TpIbYL3ziE3UcknBgdkbYbig6Myrp6h68NCA
He90JxTOV1JanfflkLS63xz4KbYIAZhh95Fd8hi/pir1dAHmV1D4hmLfK8A5x8kQ
n8Ky4B/X0S/pBq7/DamYrSl/FpIsa12hR7yCZaomVEMd0lWokrX7i9O91lPliqpJ
jnhAwOtKvzOzVgrdP0JMlIgwkA3jDmoot5fCyD8QQTUQRJsiWkpCEhScnT+JP3nA
dldQ2RbA9AX6FmlE0iFFOxtMriBv2VqXt0/xniIad1gRdeS7nFpbbGw2OJDZxkzM
Cvnj7b/oqqzl9ilcFLKQSQ==
-----END CERTIFICATE-----
