Certificate:
    Data:
        Version: 3 (0x2)
        Serial Number:
            c8:b0:ee:f0:24:01:d7:8a:1d:14:40:3b:90:ff:47:3b
        Signature Algorithm: sha256WithRSAEncryption
        Issuer: C=US, O=Portland State University, CN=Sub CA
        Validity
            Not Before: Jun 19 16:06:16 2023 GMT
            Not After : Jun 16 16:06:16 2033 GMT
        Subject: C=US, O=Portland State University, CN=Sub CA
        Subject Public Key Info:
            Public Key Algorithm: rsaEncryption
                Public-Key: (2048 bit)
                Modulus:
                    00:a5:3b:d6:26:78:19:d3:34:54:68:90:93:37:7f:
                    24:69:13:d1:df:11:b3:b8:5d:41:26:10:2d:1d:c1:
                    1b:b7:e0:cb:7b:cf:d8:60:ee:b9:8f:c3:07:9a:d4:
                    94:31:fe:89:17:2f:d4:9f:fe:1e:ee:0e:a8:3b:1f:
                    d5:d8:cc:3f:3b:6d:f6:0b:75:2c:56:a4:87:20:fe:
                    37:ca:09:00:45:6b:ed:7a:f6:ad:f0:de:a9:c7:51:
                    60:76:20:d2:a9:1c:1e:0f:e5:a3:0d:80:73:ba:f0:
                    62:16:7e:36:a0:31:b1:64:c7:38:a7:25:3f:83:f3:
                    70:89:b2:85:bd:aa:d3:31:57:77:96:cd:c2:2c:40:
                    78:e0:b5:5d:15:27:af:12:9c:21:f6:a3:15:34:e3:
                    f5:1b:67:49:5b:ec:45:9d:d7:0b:c5:a0:86:f6:42:
                    09:a2:cf:3f:92:73:77:a6:48:fd:d6:f9:04:96:59:
                    07:63:ab:ec:27:f9:b2:60:9c:48:8f:31:48:6f:59:
                    aa:35:2b:28:b8:cb:69:56:31:7e:f4:dd:be:f2:38:
                    d6:3d:27:39:b3:02:46:0b:b3:3c:96:6f:8d:18:42:
                    67:14:14:00:94:6a:7e:ac:eb:a3:8a:24:36:19:cf:
                    2c:a4:b6:6c:e9:82:4a:f0:b7:e7:02:63:f0:3b:3c:
                    4c:1b
                Exponent: 65537 (0x10001)
        X509v3 extensions:
            Authority Information Access: 
                CA Issuers - URI:http://sub-ca.localhost/sub-ca.crt
                OCSP - URI:http://ocsp.sub-ca.localhost:9081
            X509v3 Authority Key Identifier: 
                4D:A1:8D:85:C1:C1:ED:E8:9A:39:B5:05:2D:3B:72:88:8F:77:D0:82
            X509v3 Basic Constraints: critical
                CA:FALSE
            X509v3 CRL Distribution Points: 
                Full Name:
                  URI:http://sub-ca.localhost/sub-ca.crl
            X509v3 Extended Key Usage: 
                TLS Web Client Authentication
            X509v3 Key Usage: critical
                Digital Signature
            X509v3 Subject Key Identifier: 
                69:63:0A:E4:E8:40:30:45:46:CF:F5:41:F4:04:F8:E4:ED:A0:AE:6D
    Signature Algorithm: sha256WithRSAEncryption
    Signature Value:
        2f:46:6e:4a:13:5a:1a:a6:a1:77:49:bc:a3:17:03:82:39:bc:
        fb:59:27:3c:56:b3:32:dd:6a:dc:fd:d3:a4:4f:fc:80:ed:c7:
        d0:6d:e5:74:bb:1c:f6:b9:cf:74:ca:a5:7c:d5:93:27:a9:63:
        b2:ed:a9:b9:c4:23:ae:20:88:62:76:be:0c:56:cb:94:e9:e7:
        ef:3f:17:9b:56:7d:89:0f:a2:9f:dd:1e:02:ff:43:55:1d:05:
        6e:55:7a:0b:07:2f:86:08:8d:68:cc:7d:ed:c1:b4:b1:ff:5b:
        cd:ea:c6:d0:ca:ae:7a:39:ef:87:65:dd:06:c5:96:ac:9f:f3:
        7d:55:99:ca:f8:7d:c1:b9:6f:14:75:8a:85:6b:ce:79:a6:96:
        d6:75:0b:17:94:8c:4d:f6:20:5a:6c:6e:5a:e2:0b:6d:11:ba:
        32:6d:76:40:e9:cb:c2:6c:2e:49:cc:21:72:66:7e:07:60:b2:
        36:16:13:c5:ee:4b:02:c4:87:60:60:4d:55:27:f2:e2:08:35:
        15:69:b5:50:32:60:4e:7c:13:7a:bf:fd:7b:b7:36:6d:33:ad:
        34:99:5a:72:4b:71:6a:35:aa:ae:6d:29:2c:1a:47:79:bc:a7:
        47:98:f4:8f:6e:86:ea:66:8c:b7:58:a5:87:82:82:4b:63:2d:
        41:96:17:86
-----BEGIN CERTIFICATE-----
MIIELDCCAxSgAwIBAgIRAMiw7vAkAdeKHRRAO5D/RzswDQYJKoZIhvcNAQELBQAw
QjELMAkGA1UEBhMCVVMxIjAgBgNVBAoMGVBvcnRsYW5kIFN0YXRlIFVuaXZlcnNp
dHkxDzANBgNVBAMMBlN1YiBDQTAeFw0yMzA2MTkxNjA2MTZaFw0zMzA2MTYxNjA2
MTZaMEIxCzAJBgNVBAYTAlVTMSIwIAYDVQQKDBlQb3J0bGFuZCBTdGF0ZSBVbml2
ZXJzaXR5MQ8wDQYDVQQDDAZTdWIgQ0EwggEiMA0GCSqGSIb3DQEBAQUAA4IBDwAw
ggEKAoIBAQClO9YmeBnTNFRokJM3fyRpE9HfEbO4XUEmEC0dwRu34Mt7z9hg7rmP
wwea1JQx/okXL9Sf/h7uDqg7H9XYzD87bfYLdSxWpIcg/jfKCQBFa+169q3w3qnH
UWB2INKpHB4P5aMNgHO68GIWfjagMbFkxzinJT+D83CJsoW9qtMxV3eWzcIsQHjg
tV0VJ68SnCH2oxU04/UbZ0lb7EWd1wvFoIb2Qgmizz+Sc3emSP3W+QSWWQdjq+wn
+bJgnEiPMUhvWao1Kyi4y2lWMX703b7yONY9JzmzAkYLszyWb40YQmcUFACUan6s
66OKJDYZzyyktmzpgkrwt+cCY/A7PEwbAgMBAAGjggEbMIIBFzBtBggrBgEFBQcB
AQRhMF8wLgYIKwYBBQUHMAKGImh0dHA6Ly9zdWItY2EubG9jYWxob3N0L3N1Yi1j
YS5jcnQwLQYIKwYBBQUHMAGGIWh0dHA6Ly9vY3NwLnN1Yi1jYS5sb2NhbGhvc3Q6
OTA4MTAfBgNVHSMEGDAWgBRNoY2FwcHt6Jo5tQUtO3KIj3fQgjAMBgNVHRMBAf8E
AjAAMDMGA1UdHwQsMCowKKAmoCSGImh0dHA6Ly9zdWItY2EubG9jYWxob3N0L3N1
Yi1jYS5jcmwwEwYDVR0lBAwwCgYIKwYBBQUHAwIwDgYDVR0PAQH/BAQDAgeAMB0G
A1UdDgQWBBRpYwrk6EAwRUbP9UH0BPjk7aCubTANBgkqhkiG9w0BAQsFAAOCAQEA
L0ZuShNaGqahd0m8oxcDgjm8+1knPFazMt1q3P3TpE/8gO3H0G3ldLsc9rnPdMql
fNWTJ6ljsu2pucQjriCIYna+DFbLlOnn7z8Xm1Z9iQ+in90eAv9DVR0FblV6Cwcv
hgiNaMx97cG0sf9bzerG0Mquejnvh2XdBsWWrJ/zfVWZyvh9wblvFHWKhWvOeaaW
1nULF5SMTfYgWmxuWuILbRG6Mm12QOnLwmwuScwhcmZ+B2CyNhYTxe5LAsSHYGBN
VSfy4gg1FWm1UDJgTnwTer/9e7c2bTOtNJlacktxajWqrm0pLBpHebynR5j0j26G
6maMt1ilh4KCS2MtQZYXhg==
-----END CERTIFICATE-----
