Certificate:
    Data:
        Version: 3 (0x2)
        Serial Number:
            c8:b0:ee:f0:24:01:d7:8a:1d:14:40:3b:90:ff:46:fa
        Signature Algorithm: sha256WithRSAEncryption
        Issuer: C=US, O=Portland State University, CN=Sub CA
        Validity
            Not Before: Jun 19 16:06:07 2023 GMT
            Not After : Jun 16 16:06:07 2033 GMT
        Subject: C=US, O=Portland State University, CN=Sub CA
        Subject Public Key Info:
            Public Key Algorithm: rsaEncryption
                Public-Key: (2048 bit)
                Modulus:
                    00:b7:c4:c3:13:70:7d:b4:6b:63:5f:7d:fd:81:3e:
                    42:f4:10:d9:bd:74:66:64:39:6d:c7:98:3d:4f:04:
                    53:68:f5:a4:66:8f:9a:8e:d0:06:4f:e3:ec:52:d2:
                    75:c6:f5:fb:90:f7:51:20:9e:31:5d:f8:2b:03:32:
                    c2:e1:7c:79:7c:17:fe:49:5d:1e:0a:8e:1a:f1:c0:
                    bc:d8:f3:ba:54:b2:17:3e:8c:c5:5e:0e:76:ee:80:
                    ae:73:db:dd:01:55:fa:6c:c3:31:2e:11:4b:20:1a:
                    d3:40:ad:6d:b9:81:91:99:04:cf:1d:3b:ce:d4:a2:
                    22:a8:b5:c0:1a:5d:fd:e8:c9:c2:55:71:f9:48:d4:
                    d3:5d:32:56:97:73:fb:44:ab:b1:b9:1f:fb:46:b3:
                    23:b6:1c:35:0b:c3:f1:98:31:ec:4e:df:9c:f0:a7:
                    27:83:45:ff:f0:1b:b8:62:31:ff:dc:07:d1:29:1c:
                    7a:d5:f3:ed:a5:33:75:58:a0:a0:f9:d1:81:e5:72:
                    19:8c:0d:a6:2e:12:0f:40:1e:ef:48:3b:ef:7c:30:
                    0b:1d:dc:6e:d6:7a:7c:c0:51:8f:fe:6c:ff:5f:8a:
                    4a:01:e2:bc:03:b5:aa:8f:9a:2f:5f:3c:40:82:aa:
                    4a:53:44:13:7e:76:e6:9e:98:f9:78:7f:72:3a:7d:
                    34:09
                Exponent: 65537 (0x10001)
        X509v3 extensions:
            Authority Information Access: 
                CA Issuers - URI:http://sub-ca.localhost/sub-ca.crt
                OCSP - URI:http://ocsp.sub-ca.localhost:9081
            X509v3 Authority Key Identifier: 
                4D:A1:8D:85:C1:C1:ED:E8:9A:39:B5:05:2D:3B:72:88:8F:77:D0:82
            X509v3 Basic Constraints: critical
                CA:FALSE
            X509v3 CRL Distribution Points: 
                Full Name:
                  URI:http://sub-ca.localhost/sub-ca.crl
            X509v3 Extended Key Usage: 
                TLS Web Client Authentication
            X509v3 Key Usage: critical
                Digital Signature
            X509v3 Subject Key Identifier: 
                D4:A9:60:44:5A:1A:F3:01:C2:98:81:02:DF:89:70:DF:C8:61:B7:BF
    Signature Algorithm: sha256WithRSAEncryption
    Signature Value:
        31:b0:80:2f:57:17:a7:78:d7:cb:ac:9e:ba:1e:4b:69:fd:57:
        45:4a:7f:35:2d:32:a2:ca:57:af:57:33:e1:98:a0:fa:98:ad:
        e7:f7:86:e7:35:0d:9e:c7:90:49:1f:c8:0d:6b:ba:a3:86:fd:
        7c:52:1c:90:d2:f8:a3:0c:c6:12:56:6e:af:99:04:38:e1:94:
        bd:a6:b5:30:7b:bd:7a:d7:c6:64:f0:93:1b:ba:c2:77:0e:0d:
        5d:75:e5:6d:4f:c8:b4:da:af:09:5f:6b:57:d7:2e:b7:35:09:
        f3:8c:58:87:3b:f4:30:99:68:0a:0b:cf:40:6a:dc:c6:a9:55:
        f7:73:88:18:ff:19:59:ab:24:bd:73:9b:8e:bc:9b:b6:1b:44:
        90:32:01:8c:b5:6e:f4:6d:f8:13:34:f8:a3:90:51:70:d0:25:
        ba:82:87:84:35:b7:fd:e7:d9:71:62:cc:f8:53:c6:c6:7a:ac:
        85:e7:36:1d:7a:a8:c2:45:3a:29:18:d9:68:2a:b7:b8:c4:cc:
        f1:b3:2a:d2:de:b5:d0:58:f2:05:a0:bb:4d:52:0f:be:5d:27:
        9f:78:9e:f0:23:79:82:4b:2a:66:b9:ef:3d:66:e4:de:66:96:
        dc:ef:c5:dc:0e:fc:58:2a:5b:3e:99:a3:01:0f:ce:bb:21:48:
        86:28:f6:50
-----BEGIN CERTIFICATE-----
MIIELDCCAxSgAwIBAgIRAMiw7vAkAdeKHRRAO5D/RvowDQYJKoZIhvcNAQELBQAw
QjELMAkGA1UEBhMCVVMxIjAgBgNVBAoMGVBvcnRsYW5kIFN0YXRlIFVuaXZlcnNp
dHkxDzANBgNVBAMMBlN1YiBDQTAeFw0yMzA2MTkxNjA2MDdaFw0zMzA2MTYxNjA2
MDdaMEIxCzAJBgNVBAYTAlVTMSIwIAYDVQQKDBlQb3J0bGFuZCBTdGF0ZSBVbml2
ZXJzaXR5MQ8wDQYDVQQDDAZTdWIgQ0EwggEiMA0GCSqGSIb3DQEBAQUAA4IBDwAw
ggEKAoIBAQC3xMMTcH20a2Nfff2BPkL0ENm9dGZkOW3HmD1PBFNo9aRmj5qO0AZP
4+xS0nXG9fuQ91EgnjFd+CsDMsLhfHl8F/5JXR4KjhrxwLzY87pUshc+jMVeDnbu
gK5z290BVfpswzEuEUsgGtNArW25gZGZBM8dO87UoiKotcAaXf3oycJVcflI1NNd
MlaXc/tEq7G5H/tGsyO2HDULw/GYMexO35zwpyeDRf/wG7hiMf/cB9EpHHrV8+2l
M3VYoKD50YHlchmMDaYuEg9AHu9IO+98MAsd3G7WenzAUY/+bP9fikoB4rwDtaqP
mi9fPECCqkpTRBN+duaemPl4f3I6fTQJAgMBAAGjggEbMIIBFzBtBggrBgEFBQcB
AQRhMF8wLgYIKwYBBQUHMAKGImh0dHA6Ly9zdWItY2EubG9jYWxob3N0L3N1Yi1j
YS5jcnQwLQYIKwYBBQUHMAGGIWh0dHA6Ly9vY3NwLnN1Yi1jYS5sb2NhbGhvc3Q6
OTA4MTAfBgNVHSMEGDAWgBRNoY2FwcHt6Jo5tQUtO3KIj3fQgjAMBgNVHRMBAf8E
AjAAMDMGA1UdHwQsMCowKKAmoCSGImh0dHA6Ly9zdWItY2EubG9jYWxob3N0L3N1
Yi1jYS5jcmwwEwYDVR0lBAwwCgYIKwYBBQUHAwIwDgYDVR0PAQH/BAQDAgeAMB0G
A1UdDgQWBBTUqWBEWhrzAcKYgQLfiXDfyGG3vzANBgkqhkiG9w0BAQsFAAOCAQEA
MbCAL1cXp3jXy6yeuh5Laf1XRUp/NS0yospXr1cz4Zig+pit5/eG5zUNnseQSR/I
DWu6o4b9fFIckNL4owzGElZur5kEOOGUvaa1MHu9etfGZPCTG7rCdw4NXXXlbU/I
tNqvCV9rV9cutzUJ84xYhzv0MJloCgvPQGrcxqlV93OIGP8ZWaskvXObjrybthtE
kDIBjLVu9G34EzT4o5BRcNAluoKHhDW3/efZcWLM+FPGxnqshec2HXqowkU6KRjZ
aCq3uMTM8bMq0t610FjyBaC7TVIPvl0nn3ie8CN5gksqZrnvPWbk3maW3O/F3A78
WCpbPpmjAQ/OuyFIhij2UA==
-----END CERTIFICATE-----
