Certificate:
    Data:
        Version: 3 (0x2)
        Serial Number:
            c8:b0:ee:f0:24:01:d7:8a:1d:14:40:3b:90:ff:46:d8
        Signature Algorithm: sha256WithRSAEncryption
        Issuer: C=US, O=Portland State University, CN=Root CA
        Validity
            Not Before: Nov  8 20:31:17 2022 GMT
            Not After : Nov  5 20:31:17 2032 GMT
        Subject: C=US, O=Portland State University, CN=Root CA
        Subject Public Key Info:
            Public Key Algorithm: rsaEncryption
                Public-Key: (2048 bit)
                Modulus:
                    00:8d:05:21:a4:37:bc:f3:80:56:3d:63:06:87:b0:
                    92:40:e5:88:98:8a:4c:f5:93:bc:3b:48:b4:90:58:
                    7f:4f:16:70:4d:62:53:61:08:a7:ee:fe:62:b1:dc:
                    51:af:69:31:8a:94:ac:02:d2:93:b3:10:de:00:31:
                    12:b8:8c:0e:72:57:9a:7e:32:f8:56:88:9c:4a:ef:
                    c8:2f:ce:5e:0d:e2:4a:56:5d:0b:bd:46:8a:f9:5a:
                    99:18:de:d0:2a:50:f0:69:92:8a:99:4e:f0:44:e9:
                    d5:14:87:e4:38:92:37:28:94:38:89:e6:55:c7:d2:
                    d6:b8:78:11:8d:80:1f:11:17:5d:81:c6:01:02:34:
                    19:a0:4a:f1:d1:09:3d:b7:2e:c0:99:60:8b:cb:a6:
                    73:08:fc:a8:79:9e:87:6e:a1:4a:d9:2f:1c:63:3a:
                    fe:5b:35:d0:ae:6d:6d:da:cc:7d:64:b1:ef:1c:ae:
                    ca:10:60:f1:6a:96:cd:33:a5:99:db:6a:e9:da:1c:
                    84:34:1c:b1:b5:ac:19:35:9f:3e:44:1a:f5:97:33:
                    a8:65:19:30:27:a8:a1:54:59:6a:e0:a5:99:3a:1e:
                    f9:28:4f:3d:45:f2:84:df:f9:57:08:42:dd:12:2c:
                    67:1c:92:64:99:4d:46:92:79:3c:68:01:27:57:16:
                    84:51
                Exponent: 65537 (0x10001)
        X509v3 extensions:
            X509v3 Basic Constraints: critical
                CA:TRUE
            X509v3 Key Usage: critical
                Certificate Sign, CRL Sign
            X509v3 Subject Key Identifier: 
                51:35:F1:88:20:FB:42:E8:6E:9A:17:20:A8:6E:D7:F3:A4:B4:5E:52
    Signature Algorithm: sha256WithRSAEncryption
    Signature Value:
        22:6b:20:33:d9:e6:82:b5:c7:45:f1:c5:b7:e7:e0:fe:2f:a2:
        3c:59:d4:e9:53:7d:7a:4f:08:8b:c1:40:bf:f4:9a:0d:2a:7e:
        9e:05:06:f7:32:3d:a7:56:ae:fd:02:a1:a8:60:19:3c:78:09:
        43:27:b6:ac:2c:c6:aa:95:5d:f4:4d:f3:0a:d4:0a:62:5a:0d:
        78:eb:0c:60:35:95:cb:fd:3e:dc:31:5a:f9:d4:71:29:bb:41:
        59:8c:43:9c:04:de:6b:ae:65:cb:51:ef:93:00:0e:d4:1f:21:
        7a:9c:fd:f7:e7:e0:93:9c:d8:54:27:a9:12:d2:db:35:0a:68:
        f6:f7:9b:ef:5f:f5:8c:57:6f:41:4f:2c:04:39:d8:29:98:82:
        11:3a:e7:93:6e:07:dd:ec:c2:7c:b3:ed:d8:75:39:4d:0f:95:
        5d:68:97:7b:1a:14:e3:bd:bb:cc:80:22:25:30:5c:d0:34:aa:
        31:57:ac:8c:b6:a2:96:e9:40:df:0a:42:ad:90:d1:e5:17:ea:
        0b:d6:24:03:4b:bb:32:c0:6d:0b:62:b9:ac:ab:3b:72:80:16:
        e8:36:cd:ed:0c:23:ea:fd:55:69:c4:6e:5c:e0:5a:2b:8e:92:
        e6:8a:4d:8e:bb:ce:19:f5:ca:c4:51:5d:25:0b:3c:30:a5:11:
        42:41:8c:11
-----BEGIN CERTIFICATE-----
MIIDUzCCAjugAwIBAgIRAMiw7vAkAdeKHRRAO5D/RtgwDQYJKoZIhvcNAQELBQAw
QzELMAkGA1UEBhMCVVMxIjAgBgNVBAoMGVBvcnRsYW5kIFN0YXRlIFVuaXZlcnNp
dHkxEDAOBgNVBAMMB1Jvb3QgQ0EwHhcNMjIxMTA4MjAzMTE3WhcNMzIxMTA1MjAz
MTE3WjBDMQswCQYDVQQGEwJVUzEiMCAGA1UECgwZUG9ydGxhbmQgU3RhdGUgVW5p
dmVyc2l0eTEQMA4GA1UEAwwHUm9vdCBDQTCCASIwDQYJKoZIhvcNAQEBBQADggEP
ADCCAQoCggEBAI0FIaQ3vPOAVj1jBoewkkDliJiKTPWTvDtItJBYf08WcE1iU2EI
p+7+YrHcUa9pMYqUrALSk7MQ3gAxEriMDnJXmn4y+FaInErvyC/OXg3iSlZdC71G
ivlamRje0CpQ8GmSiplO8ETp1RSH5DiSNyiUOInmVcfS1rh4EY2AHxEXXYHGAQI0
GaBK8dEJPbcuwJlgi8umcwj8qHmeh26hStkvHGM6/ls10K5tbdrMfWSx7xyuyhBg
8WqWzTOlmdtq6dochDQcsbWsGTWfPkQa9ZczqGUZMCeooVRZauClmToe+ShPPUXy
hN/5VwhC3RIsZxySZJlNRpJ5PGgBJ1cWhFECAwEAAaNCMEAwDwYDVR0TAQH/BAUw
AwEB/zAOBgNVHQ8BAf8EBAMCAQYwHQYDVR0OBBYEFFE18Ygg+0LobpoXIKhu1/Ok
tF5SMA0GCSqGSIb3DQEBCwUAA4IBAQAiayAz2eaCtcdF8cW35+D+L6I8WdTpU316
TwiLwUC/9JoNKn6eBQb3Mj2nVq79AqGoYBk8eAlDJ7asLMaqlV30TfMK1ApiWg14
6wxgNZXL/T7cMVr51HEpu0FZjEOcBN5rrmXLUe+TAA7UHyF6nP335+CTnNhUJ6kS
0ts1Cmj295vvX/WMV29BTywEOdgpmIIROueTbgfd7MJ8s+3YdTlND5VdaJd7GhTj
vbvMgCIlMFzQNKoxV6yMtqKW6UDfCkKtkNHlF+oL1iQDS7sywG0LYrmsqztygBbo
Ns3tDCPq/VVpxG5c4ForjpLmik2Ou84Z9crEUV0lCzwwpRFCQYwR
-----END CERTIFICATE-----
