Certificate:
    Data:
        Version: 3 (0x2)
        Serial Number:
            c8:b0:ee:f0:24:01:d7:8a:1d:14:40:3b:90:ff:47:2d
        Signature Algorithm: sha256WithRSAEncryption
        Issuer: C=US, O=Portland State University, CN=Sub CA
        Validity
            Not Before: Jun 19 16:06:14 2023 GMT
            Not After : Jun 16 16:06:14 2033 GMT
        Subject: C=US, O=Portland State University, CN=Sub CA
        Subject Public Key Info:
            Public Key Algorithm: rsaEncryption
                Public-Key: (2048 bit)
                Modulus:
                    00:c3:d2:59:5a:92:8c:8a:a8:0c:ee:c4:e7:b2:56:
                    f5:d3:4a:47:be:80:c9:72:48:26:29:db:c8:b0:43:
                    fd:eb:2d:73:5b:d2:3e:e9:fc:7f:b2:38:dd:ff:a1:
                    38:58:64:d6:75:4e:56:11:f5:15:a6:3f:46:73:db:
                    3a:30:cf:04:66:7a:63:57:8a:85:3f:33:86:94:bc:
                    82:b6:a5:79:20:2c:a9:2d:e4:43:7c:73:56:48:99:
                    0d:2d:1c:4d:92:f8:99:c5:5b:00:00:0f:06:e4:58:
                    6b:56:80:2a:9f:de:b6:2e:fc:8e:90:22:99:b7:17:
                    83:ae:a2:6d:d6:23:53:14:2a:f1:5d:c3:52:51:d5:
                    71:33:ec:0e:fd:43:f5:82:92:1e:eb:ec:9a:c8:0c:
                    4d:df:b7:22:6f:a6:80:73:c6:9e:e6:03:0a:bd:60:
                    4e:74:8d:e2:83:2b:2c:e7:dd:b8:a3:fe:58:5f:46:
                    cd:40:36:d7:5e:1e:8b:14:49:4c:e0:02:4a:72:0f:
                    91:8a:68:de:e4:00:e7:7b:ee:90:3c:96:c3:1b:2d:
                    5b:ce:0a:b5:d4:e2:0d:c0:fa:80:26:2c:24:27:dd:
                    c7:3c:68:a4:47:b8:e2:cf:c6:bf:0e:3c:2f:ca:6c:
                    7e:17:3e:a2:1b:7e:a4:57:2a:34:9d:f9:ad:93:45:
                    4b:cf
                Exponent: 65537 (0x10001)
        X509v3 extensions:
            Authority Information Access: 
                CA Issuers - URI:http://sub-ca.localhost/sub-ca.crt
                OCSP - URI:http://ocsp.sub-ca.localhost:9081
            X509v3 Authority Key Identifier: 
                4D:A1:8D:85:C1:C1:ED:E8:9A:39:B5:05:2D:3B:72:88:8F:77:D0:82
            X509v3 Basic Constraints: critical
                CA:FALSE
            X509v3 CRL Distribution Points: 
                Full Name:
                  URI:http://sub-ca.localhost/sub-ca.crl
            X509v3 Extended Key Usage: 
                TLS Web Client Authentication
            X509v3 Key Usage: critical
                Digital Signature
            X509v3 Subject Key Identifier: 
                24:FD:54:67:C9:D6:87:A2:47:E3:90:A1:89:E8:6D:B3:C7:A3:A5:93
    Signature Algorithm: sha256WithRSAEncryption
    Signature Value:
        21:ac:ff:09:6a:b6:70:7e:70:78:77:b2:d2:f7:ec:d7:56:0f:
        f1:87:6d:14:1c:9a:5a:30:e8:05:6c:9f:7f:e5:45:6a:b0:90:
        c2:e1:ac:1c:54:39:2b:e1:03:1a:f9:f8:98:7f:1b:34:4f:aa:
        10:ad:52:ee:99:b9:cf:4e:ca:85:c4:03:52:c3:83:17:1e:e1:
        35:9e:02:ec:fb:6c:88:53:80:a1:a4:99:54:ca:a4:c6:68:71:
        91:37:53:52:d7:66:24:b3:2f:13:4d:46:f8:0d:20:44:0e:76:
        43:5e:d5:f1:24:e5:e8:c3:4f:42:93:2a:39:65:f5:61:6f:5d:
        2e:02:41:e5:7d:32:41:22:0e:38:e4:e0:20:4f:7d:c8:5d:6e:
        38:41:ce:ed:14:51:10:a7:9d:f6:4a:06:31:46:09:64:c5:12:
        51:7a:db:8b:89:cf:48:e6:4a:4b:f6:11:05:8d:5b:c6:28:f4:
        6e:b9:de:c9:6f:20:92:1c:2e:93:ab:17:de:aa:cc:fb:17:43:
        48:59:75:53:92:3c:c0:73:66:c0:2a:bd:8e:c7:16:cb:a7:33:
        37:98:85:e2:d4:6b:88:cc:eb:1b:2e:69:93:e3:a7:25:3a:c4:
        b9:17:b9:fe:a5:8c:68:f7:cf:99:f6:05:2c:ff:39:7a:7a:eb:
        23:81:9f:0d
-----BEGIN CERTIFICATE-----
MIIELDCCAxSgAwIBAgIRAMiw7vAkAdeKHRRAO5D/Ry0wDQYJKoZIhvcNAQELBQAw
QjELMAkGA1UEBhMCVVMxIjAgBgNVBAoMGVBvcnRsYW5kIFN0YXRlIFVuaXZlcnNp
dHkxDzANBgNVBAMMBlN1YiBDQTAeFw0yMzA2MTkxNjA2MTRaFw0zMzA2MTYxNjA2
MTRaMEIxCzAJBgNVBAYTAlVTMSIwIAYDVQQKDBlQb3J0bGFuZCBTdGF0ZSBVbml2
ZXJzaXR5MQ8wDQYDVQQDDAZTdWIgQ0EwggEiMA0GCSqGSIb3DQEBAQUAA4IBDwAw
ggEKAoIBAQDD0llakoyKqAzuxOeyVvXTSke+gMlySCYp28iwQ/3rLXNb0j7p/H+y
ON3/oThYZNZ1TlYR9RWmP0Zz2zowzwRmemNXioU/M4aUvIK2pXkgLKkt5EN8c1ZI
mQ0tHE2S+JnFWwAADwbkWGtWgCqf3rYu/I6QIpm3F4Ouom3WI1MUKvFdw1JR1XEz
7A79Q/WCkh7r7JrIDE3ftyJvpoBzxp7mAwq9YE50jeKDKyzn3bij/lhfRs1ANtde
HosUSUzgAkpyD5GKaN7kAOd77pA8lsMbLVvOCrXU4g3A+oAmLCQn3cc8aKRHuOLP
xr8OPC/KbH4XPqIbfqRXKjSd+a2TRUvPAgMBAAGjggEbMIIBFzBtBggrBgEFBQcB
AQRhMF8wLgYIKwYBBQUHMAKGImh0dHA6Ly9zdWItY2EubG9jYWxob3N0L3N1Yi1j
YS5jcnQwLQYIKwYBBQUHMAGGIWh0dHA6Ly9vY3NwLnN1Yi1jYS5sb2NhbGhvc3Q6
OTA4MTAfBgNVHSMEGDAWgBRNoY2FwcHt6Jo5tQUtO3KIj3fQgjAMBgNVHRMBAf8E
AjAAMDMGA1UdHwQsMCowKKAmoCSGImh0dHA6Ly9zdWItY2EubG9jYWxob3N0L3N1
Yi1jYS5jcmwwEwYDVR0lBAwwCgYIKwYBBQUHAwIwDgYDVR0PAQH/BAQDAgeAMB0G
A1UdDgQWBBQk/VRnydaHokfjkKGJ6G2zx6OlkzANBgkqhkiG9w0BAQsFAAOCAQEA
Iaz/CWq2cH5weHey0vfs11YP8YdtFByaWjDoBWyff+VFarCQwuGsHFQ5K+EDGvn4
mH8bNE+qEK1S7pm5z07KhcQDUsODFx7hNZ4C7PtsiFOAoaSZVMqkxmhxkTdTUtdm
JLMvE01G+A0gRA52Q17V8STl6MNPQpMqOWX1YW9dLgJB5X0yQSIOOOTgIE99yF1u
OEHO7RRREKed9koGMUYJZMUSUXrbi4nPSOZKS/YRBY1bxij0brneyW8gkhwuk6sX
3qrM+xdDSFl1U5I8wHNmwCq9jscWy6czN5iF4tRriMzrGy5pk+OnJTrEuRe5/qWM
aPfPmfYFLP85enrrI4GfDQ==
-----END CERTIFICATE-----
