Certificate:
    Data:
        Version: 3 (0x2)
        Serial Number:
            c8:b0:ee:f0:24:01:d7:8a:1d:14:40:3b:90:ff:47:05
        Signature Algorithm: sha256WithRSAEncryption
        Issuer: C=US, O=Portland State University, CN=Sub CA
        Validity
            Not Before: Jun 19 16:06:08 2023 GMT
            Not After : Jun 16 16:06:08 2033 GMT
        Subject: C=US, O=Portland State University, CN=Sub CA
        Subject Public Key Info:
            Public Key Algorithm: rsaEncryption
                Public-Key: (2048 bit)
                Modulus:
                    00:93:84:e2:a9:9b:ea:80:63:5d:65:89:e8:ba:60:
                    e6:12:d2:e2:c5:5c:63:8d:07:bb:0b:92:76:e3:1a:
                    74:91:75:ee:48:99:66:44:6f:05:ba:f9:8c:20:78:
                    57:a6:5d:22:99:be:b3:09:32:8a:16:3e:fc:53:f2:
                    2c:bb:8a:c9:f0:8e:b2:17:90:16:3c:5e:8a:5f:70:
                    d9:c9:f9:c4:5e:83:16:77:0c:9e:1b:9d:0d:fe:dc:
                    91:6c:bf:7b:62:7c:f2:09:53:38:2b:fa:8b:f3:70:
                    ed:0f:41:b5:36:03:83:06:e2:b9:cf:3e:4a:0e:61:
                    b2:8c:5c:74:9c:98:2a:29:17:72:b5:a1:e5:4b:b0:
                    05:aa:4a:65:16:8a:86:68:90:82:d0:25:cf:68:da:
                    17:02:7f:e3:a2:14:c2:85:e9:56:7d:70:f3:a0:4e:
                    36:b2:a7:78:37:ec:0c:d9:bc:87:0b:e3:e3:ab:d3:
                    a1:c0:a5:bd:88:03:c6:17:2d:46:d4:a5:35:e6:a5:
                    91:4e:9c:01:7f:79:9e:fa:23:25:a4:7b:05:25:90:
                    5e:03:73:2a:95:a3:b9:eb:23:43:e5:b7:0a:63:f3:
                    e9:4b:1f:a8:68:95:45:92:9d:49:09:a5:1f:f6:4c:
                    07:b4:ee:14:23:5f:6c:e1:bb:d6:5c:a7:33:35:61:
                    50:1d
                Exponent: 65537 (0x10001)
        X509v3 extensions:
            Authority Information Access: 
                CA Issuers - URI:http://sub-ca.localhost/sub-ca.crt
                OCSP - URI:http://ocsp.sub-ca.localhost:9081
            X509v3 Authority Key Identifier: 
                4D:A1:8D:85:C1:C1:ED:E8:9A:39:B5:05:2D:3B:72:88:8F:77:D0:82
            X509v3 Basic Constraints: critical
                CA:FALSE
            X509v3 CRL Distribution Points: 
                Full Name:
                  URI:http://sub-ca.localhost/sub-ca.crl
            X509v3 Extended Key Usage: 
                TLS Web Client Authentication
            X509v3 Key Usage: critical
                Digital Signature
            X509v3 Subject Key Identifier: 
                A1:FA:1A:9A:5F:5F:53:7D:12:93:65:A1:A9:4F:25:D2:0A:9D:73:F0
    Signature Algorithm: sha256WithRSAEncryption
    Signature Value:
        34:91:09:54:e1:f4:f2:bd:d6:49:96:4c:26:b0:e0:cd:06:bc:
        fa:37:3c:d0:ac:a1:1a:3e:03:5e:46:ba:de:2e:b2:ee:73:52:
        35:75:c5:0d:a9:e0:9f:45:40:72:ae:c3:a3:57:41:f3:98:fd:
        7f:94:6e:5b:6b:7f:85:54:75:4b:c6:b9:62:63:14:b7:78:2e:
        67:e5:d3:c6:01:d2:28:32:b6:61:19:cc:ce:04:5a:5f:7b:9b:
        a3:f9:ef:39:19:5d:44:23:dc:c1:c6:46:3c:e8:89:c7:30:59:
        2c:f9:62:41:15:3e:ce:62:56:97:3e:3c:92:b4:17:c7:37:53:
        0c:77:9a:d1:d5:2a:a8:b7:d1:88:12:fc:ce:78:ca:c3:ed:54:
        41:1b:13:b2:c6:1d:43:f3:15:da:8a:48:33:8c:73:b3:c1:54:
        e1:75:47:f2:53:e2:39:81:44:12:60:33:aa:d6:b6:5a:b3:9c:
        b8:1d:46:42:60:ea:46:ad:b2:79:d4:9c:ae:64:cc:7f:b4:1f:
        24:57:1d:21:d0:71:1f:8e:4d:fd:81:2e:8f:16:db:63:80:2f:
        7d:b8:10:2f:6f:37:c3:46:3d:dd:46:db:73:b5:2d:d0:ad:ec:
        3b:16:a7:31:51:55:ec:be:99:41:1e:8c:55:f1:d6:0c:a8:06:
        ec:96:cf:a8
-----BEGIN CERTIFICATE-----
MIIELDCCAxSgAwIBAgIRAMiw7vAkAdeKHRRAO5D/RwUwDQYJKoZIhvcNAQELBQAw
QjELMAkGA1UEBhMCVVMxIjAgBgNVBAoMGVBvcnRsYW5kIFN0YXRlIFVuaXZlcnNp
dHkxDzANBgNVBAMMBlN1YiBDQTAeFw0yMzA2MTkxNjA2MDhaFw0zMzA2MTYxNjA2
MDhaMEIxCzAJBgNVBAYTAlVTMSIwIAYDVQQKDBlQb3J0bGFuZCBTdGF0ZSBVbml2
ZXJzaXR5MQ8wDQYDVQQDDAZTdWIgQ0EwggEiMA0GCSqGSIb3DQEBAQUAA4IBDwAw
ggEKAoIBAQCThOKpm+qAY11liei6YOYS0uLFXGONB7sLknbjGnSRde5ImWZEbwW6
+YwgeFemXSKZvrMJMooWPvxT8iy7isnwjrIXkBY8XopfcNnJ+cRegxZ3DJ4bnQ3+
3JFsv3tifPIJUzgr+ovzcO0PQbU2A4MG4rnPPkoOYbKMXHScmCopF3K1oeVLsAWq
SmUWioZokILQJc9o2hcCf+OiFMKF6VZ9cPOgTjayp3g37AzZvIcL4+Or06HApb2I
A8YXLUbUpTXmpZFOnAF/eZ76IyWkewUlkF4DcyqVo7nrI0Pltwpj8+lLH6holUWS
nUkJpR/2TAe07hQjX2zhu9ZcpzM1YVAdAgMBAAGjggEbMIIBFzBtBggrBgEFBQcB
AQRhMF8wLgYIKwYBBQUHMAKGImh0dHA6Ly9zdWItY2EubG9jYWxob3N0L3N1Yi1j
YS5jcnQwLQYIKwYBBQUHMAGGIWh0dHA6Ly9vY3NwLnN1Yi1jYS5sb2NhbGhvc3Q6
OTA4MTAfBgNVHSMEGDAWgBRNoY2FwcHt6Jo5tQUtO3KIj3fQgjAMBgNVHRMBAf8E
AjAAMDMGA1UdHwQsMCowKKAmoCSGImh0dHA6Ly9zdWItY2EubG9jYWxob3N0L3N1
Yi1jYS5jcmwwEwYDVR0lBAwwCgYIKwYBBQUHAwIwDgYDVR0PAQH/BAQDAgeAMB0G
A1UdDgQWBBSh+hqaX19TfRKTZaGpTyXSCp1z8DANBgkqhkiG9w0BAQsFAAOCAQEA
NJEJVOH08r3WSZZMJrDgzQa8+jc80KyhGj4DXka63i6y7nNSNXXFDangn0VAcq7D
o1dB85j9f5RuW2t/hVR1S8a5YmMUt3guZ+XTxgHSKDK2YRnMzgRaX3ubo/nvORld
RCPcwcZGPOiJxzBZLPliQRU+zmJWlz48krQXxzdTDHea0dUqqLfRiBL8znjKw+1U
QRsTssYdQ/MV2opIM4xzs8FU4XVH8lPiOYFEEmAzqta2WrOcuB1GQmDqRq2yedSc
rmTMf7QfJFcdIdBxH45N/YEujxbbY4AvfbgQL283w0Y93Ubbc7Ut0K3sOxanMVFV
7L6ZQR6MVfHWDKgG7JbPqA==
-----END CERTIFICATE-----
