Certificate:
    Data:
        Version: 3 (0x2)
        Serial Number:
            c8:b0:ee:f0:24:01:d7:8a:1d:14:40:3b:90:ff:46:e1
        Signature Algorithm: sha256WithRSAEncryption
        Issuer: C=US, O=Portland State University, CN=Sub CA
        Validity
            Not Before: Nov  8 20:35:29 2022 GMT
            Not After : Nov  5 20:35:29 2032 GMT
        Subject: C=US, O=Portland State University, CN=Sub CA
        Subject Public Key Info:
            Public Key Algorithm: rsaEncryption
                Public-Key: (2048 bit)
                Modulus:
                    00:ae:f6:bf:c5:9f:06:5a:fc:e1:a7:e5:8f:36:c8:
                    02:7f:69:75:23:4d:b8:8b:4d:2d:30:8a:a7:c1:24:
                    76:16:4a:c5:14:ae:fc:f9:53:ef:ee:c6:f2:9f:8c:
                    9a:d9:c2:b8:ad:13:0a:79:b6:0b:35:28:dc:2d:bd:
                    f8:d4:95:49:5b:76:e7:d3:1e:41:df:ec:9d:74:c9:
                    95:90:63:e0:21:f9:ce:43:0f:fb:72:75:29:86:b5:
                    8d:49:d8:a1:1d:7d:8c:95:cb:86:c6:54:7a:1c:c0:
                    45:be:08:8c:8c:59:5d:36:e9:02:49:74:56:d7:e7:
                    19:0c:ad:1a:61:be:a3:85:59:43:a8:12:04:1d:ed:
                    b5:b6:6f:ab:95:4c:84:f4:4c:0c:01:68:7c:83:51:
                    19:ea:8d:15:f5:7e:b0:f8:77:42:ea:74:9d:c9:a1:
                    36:b6:70:49:ea:77:c8:5e:ac:49:c9:2f:54:dd:2b:
                    ac:c3:f2:2b:0d:b0:b0:c8:0a:1a:24:f5:4b:9a:44:
                    8b:ea:49:d1:a5:43:d2:b4:9e:15:58:47:72:e2:cc:
                    05:ac:66:7f:88:53:b6:0f:77:66:8c:80:56:7e:2a:
                    ea:5a:86:c3:8e:50:b1:d4:7f:29:89:e7:d7:47:5e:
                    53:73:20:bd:e2:f3:18:86:be:ad:7d:3f:62:93:92:
                    44:c9
                Exponent: 65537 (0x10001)
        X509v3 extensions:
            Authority Information Access: 
                CA Issuers - URI:http://sub-ca.localhost/sub-ca.crt
                OCSP - URI:http://ocsp.sub-ca.localhost:9081
            X509v3 Authority Key Identifier: 
                4D:A1:8D:85:C1:C1:ED:E8:9A:39:B5:05:2D:3B:72:88:8F:77:D0:82
            X509v3 Basic Constraints: critical
                CA:FALSE
            X509v3 CRL Distribution Points: 
                Full Name:
                  URI:http://sub-ca.localhost/sub-ca.crl
            X509v3 Extended Key Usage: 
                TLS Web Client Authentication
            X509v3 Key Usage: critical
                Digital Signature
            X509v3 Subject Key Identifier: 
                C2:B3:EC:91:2B:B9:29:50:5A:59:C1:B8:CE:5B:F3:D4:96:DC:36:04
    Signature Algorithm: sha256WithRSAEncryption
    Signature Value:
        0f:da:bd:cf:5f:ef:b2:87:f6:9d:31:57:41:7e:8f:c0:a2:b6:
        65:7c:ea:e4:2b:72:7e:cb:92:16:5f:d3:b0:44:a6:37:3e:f9:
        19:74:4d:df:3c:ec:2c:d4:dd:81:f7:e4:91:10:c7:38:55:d0:
        61:b4:3f:01:d1:7b:f6:0a:19:0c:b3:70:46:84:81:38:39:b1:
        1e:43:a0:37:5c:6b:f3:2c:72:f7:83:a2:31:f2:49:41:cc:d2:
        f0:93:dc:5a:d6:0d:43:59:25:8f:0e:df:0a:fc:75:aa:90:c5:
        1e:f8:c6:f6:68:c5:27:80:6d:98:34:cb:28:41:7f:0f:f5:dc:
        fd:e4:9c:a6:5e:3e:47:cb:29:a6:d4:25:a9:19:2a:68:d7:76:
        01:32:44:b6:d9:f9:f8:be:14:d6:6c:7b:16:c9:ed:7c:2c:9c:
        a4:f6:26:dd:e4:7c:da:fd:9f:7b:dc:df:c6:62:7e:de:42:ce:
        ec:ed:1e:df:67:20:ad:df:5b:8e:a6:25:57:0d:35:c3:32:b1:
        65:ca:8e:c1:50:6f:ed:32:73:cc:7d:6f:90:92:42:e8:71:a0:
        b5:af:1a:bc:10:d2:bd:aa:8c:b5:6a:fb:85:90:6b:2b:00:6c:
        18:f4:ca:7f:e0:91:71:63:54:8d:59:1c:55:83:88:ff:d7:32:
        a0:44:d4:41
-----BEGIN CERTIFICATE-----
MIIELDCCAxSgAwIBAgIRAMiw7vAkAdeKHRRAO5D/RuEwDQYJKoZIhvcNAQELBQAw
QjELMAkGA1UEBhMCVVMxIjAgBgNVBAoMGVBvcnRsYW5kIFN0YXRlIFVuaXZlcnNp
dHkxDzANBgNVBAMMBlN1YiBDQTAeFw0yMjExMDgyMDM1MjlaFw0zMjExMDUyMDM1
MjlaMEIxCzAJBgNVBAYTAlVTMSIwIAYDVQQKDBlQb3J0bGFuZCBTdGF0ZSBVbml2
ZXJzaXR5MQ8wDQYDVQQDDAZTdWIgQ0EwggEiMA0GCSqGSIb3DQEBAQUAA4IBDwAw
ggEKAoIBAQCu9r/FnwZa/OGn5Y82yAJ/aXUjTbiLTS0wiqfBJHYWSsUUrvz5U+/u
xvKfjJrZwritEwp5tgs1KNwtvfjUlUlbdufTHkHf7J10yZWQY+Ah+c5DD/tydSmG
tY1J2KEdfYyVy4bGVHocwEW+CIyMWV026QJJdFbX5xkMrRphvqOFWUOoEgQd7bW2
b6uVTIT0TAwBaHyDURnqjRX1frD4d0LqdJ3JoTa2cEnqd8herEnJL1TdK6zD8isN
sLDIChok9UuaRIvqSdGlQ9K0nhVYR3LizAWsZn+IU7YPd2aMgFZ+KupahsOOULHU
fymJ59dHXlNzIL3i8xiGvq19P2KTkkTJAgMBAAGjggEbMIIBFzBtBggrBgEFBQcB
AQRhMF8wLgYIKwYBBQUHMAKGImh0dHA6Ly9zdWItY2EubG9jYWxob3N0L3N1Yi1j
YS5jcnQwLQYIKwYBBQUHMAGGIWh0dHA6Ly9vY3NwLnN1Yi1jYS5sb2NhbGhvc3Q6
OTA4MTAfBgNVHSMEGDAWgBRNoY2FwcHt6Jo5tQUtO3KIj3fQgjAMBgNVHRMBAf8E
AjAAMDMGA1UdHwQsMCowKKAmoCSGImh0dHA6Ly9zdWItY2EubG9jYWxob3N0L3N1
Yi1jYS5jcmwwEwYDVR0lBAwwCgYIKwYBBQUHAwIwDgYDVR0PAQH/BAQDAgeAMB0G
A1UdDgQWBBTCs+yRK7kpUFpZwbjOW/PUltw2BDANBgkqhkiG9w0BAQsFAAOCAQEA
D9q9z1/vsof2nTFXQX6PwKK2ZXzq5CtyfsuSFl/TsESmNz75GXRN3zzsLNTdgffk
kRDHOFXQYbQ/AdF79goZDLNwRoSBODmxHkOgN1xr8yxy94OiMfJJQczS8JPcWtYN
Q1kljw7fCvx1qpDFHvjG9mjFJ4BtmDTLKEF/D/Xc/eScpl4+R8spptQlqRkqaNd2
ATJEttn5+L4U1mx7FsntfCycpPYm3eR82v2fe9zfxmJ+3kLO7O0e32cgrd9bjqYl
Vw01wzKxZcqOwVBv7TJzzH1vkJJC6HGgta8avBDSvaqMtWr7hZBrKwBsGPTKf+CR
cWNUjVkcVYOI/9cyoETUQQ==
-----END CERTIFICATE-----
