Certificate:
    Data:
        Version: 3 (0x2)
        Serial Number:
            c8:b0:ee:f0:24:01:d7:8a:1d:14:40:3b:90:ff:46:dc
        Signature Algorithm: sha256WithRSAEncryption
        Issuer: C=US, O=Portland State University, CN=Sub CA
        Validity
            Not Before: Nov  8 20:35:27 2022 GMT
            Not After : Nov  5 20:35:27 2032 GMT
        Subject: C=US, O=Portland State University, CN=Sub CA
        Subject Public Key Info:
            Public Key Algorithm: rsaEncryption
                Public-Key: (2048 bit)
                Modulus:
                    00:cd:b2:36:63:ed:e2:23:15:e1:aa:fd:62:db:84:
                    d3:87:6e:f6:83:3a:04:b4:ad:30:bf:12:73:76:19:
                    b1:01:d6:7d:6c:c1:d9:de:81:7d:62:01:80:2e:1c:
                    ec:14:9b:b9:a8:7f:fc:b8:bb:cc:b9:73:cb:b5:58:
                    21:16:8c:88:34:97:07:83:d9:c3:f1:67:e7:40:83:
                    c0:8d:40:aa:0d:0c:20:7d:8d:fb:fb:b8:d9:61:b0:
                    04:fe:29:c2:4a:1d:b8:b0:de:74:30:07:c0:bb:46:
                    50:96:4e:34:85:66:24:54:dc:bd:73:43:fe:50:c2:
                    f2:d9:46:f0:ae:59:2b:ca:f1:1a:7f:a1:8f:dd:7f:
                    b6:c9:72:1f:cc:c2:12:63:c2:c1:7b:fd:5d:89:92:
                    25:a0:d7:69:65:44:5d:13:32:85:d9:da:bf:5f:5b:
                    19:9b:9b:2d:35:d7:d8:f2:1f:a4:d1:48:c9:14:e2:
                    1b:65:f3:3f:74:85:70:df:85:27:04:4a:0a:26:cc:
                    d1:55:d9:40:0a:85:e6:b7:6d:e1:c3:85:9f:7e:63:
                    87:78:cd:2f:b1:bf:a9:95:9e:0e:66:98:3b:50:05:
                    3d:5a:27:97:e1:c1:8a:ed:c3:fc:88:77:8c:61:82:
                    9f:f1:fc:b0:4c:06:a0:dc:e2:d3:8f:a6:22:e5:96:
                    1f:c1
                Exponent: 65537 (0x10001)
        X509v3 extensions:
            Authority Information Access: 
                CA Issuers - URI:http://sub-ca.localhost/sub-ca.crt
                OCSP - URI:http://ocsp.sub-ca.localhost:9081
            X509v3 Authority Key Identifier: 
                4D:A1:8D:85:C1:C1:ED:E8:9A:39:B5:05:2D:3B:72:88:8F:77:D0:82
            X509v3 Basic Constraints: critical
                CA:FALSE
            X509v3 CRL Distribution Points: 
                Full Name:
                  URI:http://sub-ca.localhost/sub-ca.crl
            X509v3 Extended Key Usage: 
                TLS Web Client Authentication
            X509v3 Key Usage: critical
                Digital Signature
            X509v3 Subject Key Identifier: 
                68:43:E0:38:F3:77:9B:61:89:BE:B5:5B:88:66:E2:0E:CC:8C:E8:06
    Signature Algorithm: sha256WithRSAEncryption
    Signature Value:
        7a:51:38:ec:10:60:a7:c0:e4:f8:ab:81:7f:11:0e:e7:f4:ca:
        fd:f5:9e:a7:22:70:4e:a4:a7:fc:ec:a9:7f:b1:3c:a8:94:10:
        05:b2:b0:40:e3:d5:c2:ff:f5:b4:b9:a4:24:5f:8e:f1:6d:20:
        08:75:36:84:03:ef:24:dc:e7:de:90:c1:e1:64:14:6d:63:97:
        57:81:5f:31:3c:53:8a:5a:8d:e2:62:59:94:bf:4d:4d:5d:3a:
        47:5e:72:54:23:51:e8:ca:10:eb:dc:3e:52:d7:9c:ab:3f:c7:
        93:d1:15:8d:70:ba:0b:b3:c1:99:c9:e1:a2:17:74:e4:0d:b1:
        20:12:09:38:c9:55:76:63:f5:65:b4:3c:43:bc:1d:cc:df:17:
        13:d8:52:9f:11:77:c9:98:66:cb:82:67:76:4b:87:f8:08:1e:
        d7:69:51:59:29:45:ea:a3:32:bd:9d:72:78:3d:28:6e:25:bd:
        9e:f1:50:be:ac:49:74:44:ff:d6:bc:46:06:c0:98:d5:1d:55:
        f4:9b:b3:97:f1:2a:54:22:f4:bc:43:76:64:b2:0a:5f:bd:65:
        75:00:12:16:c8:35:d0:1c:d1:ab:62:5a:62:aa:2c:c6:94:80:
        1b:54:16:3d:56:b0:4a:2f:5e:69:97:e4:74:e4:ff:8b:87:e8:
        1c:80:7e:ba
-----BEGIN CERTIFICATE-----
MIIELDCCAxSgAwIBAgIRAMiw7vAkAdeKHRRAO5D/RtwwDQYJKoZIhvcNAQELBQAw
QjELMAkGA1UEBhMCVVMxIjAgBgNVBAoMGVBvcnRsYW5kIFN0YXRlIFVuaXZlcnNp
dHkxDzANBgNVBAMMBlN1YiBDQTAeFw0yMjExMDgyMDM1MjdaFw0zMjExMDUyMDM1
MjdaMEIxCzAJBgNVBAYTAlVTMSIwIAYDVQQKDBlQb3J0bGFuZCBTdGF0ZSBVbml2
ZXJzaXR5MQ8wDQYDVQQDDAZTdWIgQ0EwggEiMA0GCSqGSIb3DQEBAQUAA4IBDwAw
ggEKAoIBAQDNsjZj7eIjFeGq/WLbhNOHbvaDOgS0rTC/EnN2GbEB1n1swdnegX1i
AYAuHOwUm7mof/y4u8y5c8u1WCEWjIg0lweD2cPxZ+dAg8CNQKoNDCB9jfv7uNlh
sAT+KcJKHbiw3nQwB8C7RlCWTjSFZiRU3L1zQ/5QwvLZRvCuWSvK8Rp/oY/df7bJ
ch/MwhJjwsF7/V2JkiWg12llRF0TMoXZ2r9fWxmbmy0119jyH6TRSMkU4htl8z90
hXDfhScESgomzNFV2UAKhea3beHDhZ9+Y4d4zS+xv6mVng5mmDtQBT1aJ5fhwYrt
w/yId4xhgp/x/LBMBqDc4tOPpiLllh/BAgMBAAGjggEbMIIBFzBtBggrBgEFBQcB
AQRhMF8wLgYIKwYBBQUHMAKGImh0dHA6Ly9zdWItY2EubG9jYWxob3N0L3N1Yi1j
YS5jcnQwLQYIKwYBBQUHMAGGIWh0dHA6Ly9vY3NwLnN1Yi1jYS5sb2NhbGhvc3Q6
OTA4MTAfBgNVHSMEGDAWgBRNoY2FwcHt6Jo5tQUtO3KIj3fQgjAMBgNVHRMBAf8E
AjAAMDMGA1UdHwQsMCowKKAmoCSGImh0dHA6Ly9zdWItY2EubG9jYWxob3N0L3N1
Yi1jYS5jcmwwEwYDVR0lBAwwCgYIKwYBBQUHAwIwDgYDVR0PAQH/BAQDAgeAMB0G
A1UdDgQWBBRoQ+A483ebYYm+tVuIZuIOzIzoBjANBgkqhkiG9w0BAQsFAAOCAQEA
elE47BBgp8Dk+KuBfxEO5/TK/fWepyJwTqSn/Oypf7E8qJQQBbKwQOPVwv/1tLmk
JF+O8W0gCHU2hAPvJNzn3pDB4WQUbWOXV4FfMTxTilqN4mJZlL9NTV06R15yVCNR
6MoQ69w+Utecqz/Hk9EVjXC6C7PBmcnhohd05A2xIBIJOMlVdmP1ZbQ8Q7wdzN8X
E9hSnxF3yZhmy4JndkuH+Age12lRWSlF6qMyvZ1yeD0obiW9nvFQvqxJdET/1rxG
BsCY1R1V9Juzl/EqVCL0vEN2ZLIKX71ldQASFsg10BzRq2JaYqosxpSAG1QWPVaw
Si9eaZfkdOT/i4foHIB+ug==
-----END CERTIFICATE-----
