Certificate:
    Data:
        Version: 3 (0x2)
        Serial Number:
            c8:b0:ee:f0:24:01:d7:8a:1d:14:40:3b:90:ff:47:24
        Signature Algorithm: sha256WithRSAEncryption
        Issuer: C=US, O=Portland State University, CN=Sub CA
        Validity
            Not Before: Jun 19 16:06:12 2023 GMT
            Not After : Jun 16 16:06:12 2033 GMT
        Subject: C=US, O=Portland State University, CN=Sub CA
        Subject Public Key Info:
            Public Key Algorithm: rsaEncryption
                Public-Key: (2048 bit)
                Modulus:
                    00:cb:36:d1:9e:09:b2:51:fe:d4:97:12:e7:02:9d:
                    ec:9d:19:86:40:8e:db:a2:94:07:d3:c2:f7:2b:6f:
                    d2:ed:b0:fd:31:1a:d6:09:cf:f8:4c:84:98:89:eb:
                    ae:b2:3a:8f:46:ec:3b:3f:05:a5:48:93:8a:4d:60:
                    bd:c6:e2:b6:9f:10:2e:6f:5d:8a:01:76:ee:8f:a4:
                    33:32:00:d2:77:4b:97:db:e2:a2:76:dc:1e:64:e2:
                    d7:13:70:3e:2d:bc:d6:4f:5f:4c:64:3d:59:07:10:
                    be:97:16:ef:92:85:f9:bf:ab:b1:9d:52:3a:91:08:
                    9f:44:c8:24:39:04:5f:62:e4:49:23:eb:34:88:cf:
                    cb:34:b4:9f:41:d2:2e:37:2b:9f:73:12:76:0e:5e:
                    c4:8c:7d:fe:61:73:e4:f5:65:31:39:6d:e5:92:1d:
                    fc:86:ee:fd:7f:42:c0:8e:ce:42:91:42:00:5e:c5:
                    b0:7b:c1:5b:25:67:a5:7c:02:01:c1:d6:5b:fb:a4:
                    3c:ea:0c:71:78:41:68:86:c3:65:88:38:ef:6b:fb:
                    4f:c3:60:65:c7:a9:f3:fa:a1:91:5d:ef:85:6c:8e:
                    a1:b8:86:33:a5:63:32:00:0e:f5:ec:7e:f6:98:b0:
                    36:85:b9:fb:ae:43:d8:01:b0:1e:fb:88:5b:5b:74:
                    88:6d
                Exponent: 65537 (0x10001)
        X509v3 extensions:
            Authority Information Access: 
                CA Issuers - URI:http://sub-ca.localhost/sub-ca.crt
                OCSP - URI:http://ocsp.sub-ca.localhost:9081
            X509v3 Authority Key Identifier: 
                4D:A1:8D:85:C1:C1:ED:E8:9A:39:B5:05:2D:3B:72:88:8F:77:D0:82
            X509v3 Basic Constraints: critical
                CA:FALSE
            X509v3 CRL Distribution Points: 
                Full Name:
                  URI:http://sub-ca.localhost/sub-ca.crl
            X509v3 Extended Key Usage: 
                TLS Web Client Authentication
            X509v3 Key Usage: critical
                Digital Signature
            X509v3 Subject Key Identifier: 
                7D:A5:03:0A:A3:FE:DE:AC:58:8D:5F:03:F2:25:15:20:34:7A:E8:D6
    Signature Algorithm: sha256WithRSAEncryption
    Signature Value:
        a9:57:ae:7b:40:17:2f:86:45:06:a3:0b:db:27:f7:16:90:36:
        7c:51:cd:10:2f:46:c1:a6:ee:18:08:2a:8b:c5:80:33:99:b0:
        c3:da:ea:e9:72:53:1a:49:24:95:cf:9c:97:85:5a:a6:b6:ef:
        d2:82:74:f7:94:2e:e5:e5:f1:16:aa:f5:80:3e:31:7c:40:8a:
        59:b1:90:e4:6a:87:84:28:53:d4:62:22:59:b4:e1:de:8d:43:
        2f:1a:78:52:5e:78:57:83:f5:98:9e:a3:dc:cf:40:55:55:c0:
        e6:da:b4:8b:d2:a6:9e:ec:0b:ee:5f:52:29:c6:cd:5e:da:e9:
        b4:f0:72:aa:38:84:75:1d:86:d3:0d:83:91:35:92:0a:f3:aa:
        d1:1d:86:32:3c:4c:d7:0f:ae:80:ca:21:06:9b:a8:5c:a5:65:
        06:05:44:69:51:e3:6b:74:93:8f:f1:b2:11:00:12:01:d8:d4:
        1c:ad:6d:85:7d:a1:75:fa:6c:be:8a:da:57:cd:80:ec:a7:0a:
        b9:58:72:da:6e:21:b7:12:96:c4:ca:0e:88:3c:b6:1a:e3:63:
        83:07:24:01:86:1d:ba:c2:20:d6:aa:d5:8a:fd:4a:89:6d:1e:
        e5:de:3c:10:9d:c3:3a:d1:ab:08:f9:f8:0e:38:6c:d3:1a:dc:
        9a:87:fa:bf
-----BEGIN CERTIFICATE-----
MIIELDCCAxSgAwIBAgIRAMiw7vAkAdeKHRRAO5D/RyQwDQYJKoZIhvcNAQELBQAw
QjELMAkGA1UEBhMCVVMxIjAgBgNVBAoMGVBvcnRsYW5kIFN0YXRlIFVuaXZlcnNp
dHkxDzANBgNVBAMMBlN1YiBDQTAeFw0yMzA2MTkxNjA2MTJaFw0zMzA2MTYxNjA2
MTJaMEIxCzAJBgNVBAYTAlVTMSIwIAYDVQQKDBlQb3J0bGFuZCBTdGF0ZSBVbml2
ZXJzaXR5MQ8wDQYDVQQDDAZTdWIgQ0EwggEiMA0GCSqGSIb3DQEBAQUAA4IBDwAw
ggEKAoIBAQDLNtGeCbJR/tSXEucCneydGYZAjtuilAfTwvcrb9LtsP0xGtYJz/hM
hJiJ666yOo9G7Ds/BaVIk4pNYL3G4rafEC5vXYoBdu6PpDMyANJ3S5fb4qJ23B5k
4tcTcD4tvNZPX0xkPVkHEL6XFu+Shfm/q7GdUjqRCJ9EyCQ5BF9i5Ekj6zSIz8s0
tJ9B0i43K59zEnYOXsSMff5hc+T1ZTE5beWSHfyG7v1/QsCOzkKRQgBexbB7wVsl
Z6V8AgHB1lv7pDzqDHF4QWiGw2WIOO9r+0/DYGXHqfP6oZFd74VsjqG4hjOlYzIA
DvXsfvaYsDaFufuuQ9gBsB77iFtbdIhtAgMBAAGjggEbMIIBFzBtBggrBgEFBQcB
AQRhMF8wLgYIKwYBBQUHMAKGImh0dHA6Ly9zdWItY2EubG9jYWxob3N0L3N1Yi1j
YS5jcnQwLQYIKwYBBQUHMAGGIWh0dHA6Ly9vY3NwLnN1Yi1jYS5sb2NhbGhvc3Q6
OTA4MTAfBgNVHSMEGDAWgBRNoY2FwcHt6Jo5tQUtO3KIj3fQgjAMBgNVHRMBAf8E
AjAAMDMGA1UdHwQsMCowKKAmoCSGImh0dHA6Ly9zdWItY2EubG9jYWxob3N0L3N1
Yi1jYS5jcmwwEwYDVR0lBAwwCgYIKwYBBQUHAwIwDgYDVR0PAQH/BAQDAgeAMB0G
A1UdDgQWBBR9pQMKo/7erFiNXwPyJRUgNHro1jANBgkqhkiG9w0BAQsFAAOCAQEA
qVeue0AXL4ZFBqML2yf3FpA2fFHNEC9GwabuGAgqi8WAM5mww9rq6XJTGkkklc+c
l4Vaprbv0oJ095Qu5eXxFqr1gD4xfECKWbGQ5GqHhChT1GIiWbTh3o1DLxp4Ul54
V4P1mJ6j3M9AVVXA5tq0i9KmnuwL7l9SKcbNXtrptPByqjiEdR2G0w2DkTWSCvOq
0R2GMjxM1w+ugMohBpuoXKVlBgVEaVHja3STj/GyEQASAdjUHK1thX2hdfpsvora
V82A7KcKuVhy2m4htxKWxMoOiDy2GuNjgwckAYYdusIg1qrViv1KiW0e5d48EJ3D
OtGrCPn4Djhs0xrcmof6vw==
-----END CERTIFICATE-----
