Certificate:
    Data:
        Version: 3 (0x2)
        Serial Number:
            c8:b0:ee:f0:24:01:d7:8a:1d:14:40:3b:90:ff:47:1a
        Signature Algorithm: sha256WithRSAEncryption
        Issuer: C=US, O=Portland State University, CN=Sub CA
        Validity
            Not Before: Jun 19 16:06:11 2023 GMT
            Not After : Jun 16 16:06:11 2033 GMT
        Subject: C=US, O=Portland State University, CN=Sub CA
        Subject Public Key Info:
            Public Key Algorithm: rsaEncryption
                Public-Key: (2048 bit)
                Modulus:
                    00:af:b1:8b:72:18:4f:1b:e8:c2:86:0b:e1:f6:28:
                    bd:49:69:32:88:74:45:86:67:ca:81:7e:27:f0:dd:
                    40:36:08:14:cb:57:e5:17:c7:00:1d:61:b5:56:6c:
                    a9:c7:ff:35:01:fa:a0:4e:ad:bc:ae:96:10:ee:da:
                    5e:6e:cf:65:db:69:8e:31:64:2e:e2:02:d4:a0:44:
                    74:c7:df:a4:20:ba:5b:8a:9f:ab:78:a5:5e:e4:80:
                    d6:46:37:f8:28:4b:a1:97:ae:94:07:bc:80:c2:1b:
                    3a:a2:be:2f:0a:e6:33:46:83:a0:da:d5:bf:67:3f:
                    9f:b2:00:37:97:d4:12:87:7c:24:1a:ab:c2:8d:c8:
                    33:06:30:05:c1:0e:25:01:a4:61:8e:a0:b6:9f:6e:
                    ba:a4:9d:ec:40:af:c7:6a:a7:e5:4e:a0:f0:6f:a8:
                    f0:ac:33:92:fb:08:a6:50:08:b6:b7:f7:53:e2:ff:
                    91:23:35:62:e4:7d:6d:d8:f3:24:16:d3:4b:ce:de:
                    5a:7c:5a:01:ab:be:52:0b:a7:78:1a:d9:0c:f3:8e:
                    17:3d:6f:59:63:d0:1c:85:03:8f:e0:15:e4:90:00:
                    38:c9:89:bf:ce:2a:f2:e2:ce:aa:48:cc:55:f4:11:
                    68:3b:ed:22:e0:f1:db:e8:d9:d7:f1:37:9a:c5:2a:
                    5b:0f
                Exponent: 65537 (0x10001)
        X509v3 extensions:
            Authority Information Access: 
                CA Issuers - URI:http://sub-ca.localhost/sub-ca.crt
                OCSP - URI:http://ocsp.sub-ca.localhost:9081
            X509v3 Authority Key Identifier: 
                4D:A1:8D:85:C1:C1:ED:E8:9A:39:B5:05:2D:3B:72:88:8F:77:D0:82
            X509v3 Basic Constraints: critical
                CA:FALSE
            X509v3 CRL Distribution Points: 
                Full Name:
                  URI:http://sub-ca.localhost/sub-ca.crl
            X509v3 Extended Key Usage: 
                TLS Web Client Authentication
            X509v3 Key Usage: critical
                Digital Signature
            X509v3 Subject Key Identifier: 
                FC:5A:50:63:15:D3:AD:82:B0:ED:8A:DA:61:35:F6:A7:EF:8F:DD:82
    Signature Algorithm: sha256WithRSAEncryption
    Signature Value:
        44:6b:cf:80:df:92:79:3e:44:b3:75:4d:85:9b:c3:c1:47:44:
        6f:44:74:ff:c5:dc:cf:b9:53:23:6f:72:68:15:38:32:38:d3:
        08:71:bf:50:5d:ff:ac:a8:2a:57:55:35:a6:2f:dc:3a:86:83:
        ea:62:6f:c3:fe:7d:e9:53:d4:d4:e0:e0:f9:0e:03:4a:f8:a6:
        c2:5a:eb:41:45:ed:da:7b:33:5e:27:12:45:b4:96:3b:92:7f:
        69:d9:1f:a2:b9:fa:24:23:e8:31:b3:d1:03:8a:1e:97:b7:49:
        11:04:c1:19:19:73:e8:9b:be:a8:cb:49:ff:90:db:52:16:44:
        72:b2:1c:16:11:7c:8d:56:50:32:1d:bc:90:9a:61:eb:2f:c2:
        28:fc:c9:a1:1b:c4:7e:4a:53:d1:13:d8:55:72:26:1d:ae:84:
        ff:31:35:70:fd:27:34:fe:3a:2a:0a:a9:36:67:9e:97:52:a3:
        28:a4:dd:50:5a:3d:64:3c:f3:b7:98:07:8d:75:bf:f0:7e:8e:
        14:25:94:de:16:c2:9a:bb:6a:4f:34:f8:84:82:ea:9a:b2:fa:
        36:b3:55:f3:ea:ba:34:76:63:f9:2d:8d:fb:70:f9:d4:61:6d:
        62:8a:d1:de:b5:fa:85:be:32:16:19:2a:7e:ba:d3:65:ad:dd:
        3c:58:71:e4
-----BEGIN CERTIFICATE-----
MIIELDCCAxSgAwIBAgIRAMiw7vAkAdeKHRRAO5D/RxowDQYJKoZIhvcNAQELBQAw
QjELMAkGA1UEBhMCVVMxIjAgBgNVBAoMGVBvcnRsYW5kIFN0YXRlIFVuaXZlcnNp
dHkxDzANBgNVBAMMBlN1YiBDQTAeFw0yMzA2MTkxNjA2MTFaFw0zMzA2MTYxNjA2
MTFaMEIxCzAJBgNVBAYTAlVTMSIwIAYDVQQKDBlQb3J0bGFuZCBTdGF0ZSBVbml2
ZXJzaXR5MQ8wDQYDVQQDDAZTdWIgQ0EwggEiMA0GCSqGSIb3DQEBAQUAA4IBDwAw
ggEKAoIBAQCvsYtyGE8b6MKGC+H2KL1JaTKIdEWGZ8qBfifw3UA2CBTLV+UXxwAd
YbVWbKnH/zUB+qBOrbyulhDu2l5uz2XbaY4xZC7iAtSgRHTH36QguluKn6t4pV7k
gNZGN/goS6GXrpQHvIDCGzqivi8K5jNGg6Da1b9nP5+yADeX1BKHfCQaq8KNyDMG
MAXBDiUBpGGOoLafbrqknexAr8dqp+VOoPBvqPCsM5L7CKZQCLa391Pi/5EjNWLk
fW3Y8yQW00vO3lp8WgGrvlILp3ga2Qzzjhc9b1lj0ByFA4/gFeSQADjJib/OKvLi
zqpIzFX0EWg77SLg8dvo2dfxN5rFKlsPAgMBAAGjggEbMIIBFzBtBggrBgEFBQcB
AQRhMF8wLgYIKwYBBQUHMAKGImh0dHA6Ly9zdWItY2EubG9jYWxob3N0L3N1Yi1j
YS5jcnQwLQYIKwYBBQUHMAGGIWh0dHA6Ly9vY3NwLnN1Yi1jYS5sb2NhbGhvc3Q6
OTA4MTAfBgNVHSMEGDAWgBRNoY2FwcHt6Jo5tQUtO3KIj3fQgjAMBgNVHRMBAf8E
AjAAMDMGA1UdHwQsMCowKKAmoCSGImh0dHA6Ly9zdWItY2EubG9jYWxob3N0L3N1
Yi1jYS5jcmwwEwYDVR0lBAwwCgYIKwYBBQUHAwIwDgYDVR0PAQH/BAQDAgeAMB0G
A1UdDgQWBBT8WlBjFdOtgrDtitphNfan74/dgjANBgkqhkiG9w0BAQsFAAOCAQEA
RGvPgN+SeT5Es3VNhZvDwUdEb0R0/8Xcz7lTI29yaBU4MjjTCHG/UF3/rKgqV1U1
pi/cOoaD6mJvw/596VPU1ODg+Q4DSvimwlrrQUXt2nszXicSRbSWO5J/adkforn6
JCPoMbPRA4oel7dJEQTBGRlz6Ju+qMtJ/5DbUhZEcrIcFhF8jVZQMh28kJph6y/C
KPzJoRvEfkpT0RPYVXImHa6E/zE1cP0nNP46KgqpNmeel1KjKKTdUFo9ZDzzt5gH
jXW/8H6OFCWU3hbCmrtqTzT4hILqmrL6NrNV8+q6NHZj+S2N+3D51GFtYorR3rX6
hb4yFhkqfrrTZa3dPFhx5A==
-----END CERTIFICATE-----
