Certificate:
    Data:
        Version: 3 (0x2)
        Serial Number:
            c8:b0:ee:f0:24:01:d7:8a:1d:14:40:3b:90:ff:46:e0
        Signature Algorithm: sha256WithRSAEncryption
        Issuer: C=US, O=Portland State University, CN=Sub CA
        Validity
            Not Before: Nov  8 20:35:29 2022 GMT
            Not After : Nov  5 20:35:29 2032 GMT
        Subject: C=US, O=Portland State University, CN=Sub CA
        Subject Public Key Info:
            Public Key Algorithm: rsaEncryption
                Public-Key: (2048 bit)
                Modulus:
                    00:ac:ed:12:c8:56:6f:15:93:8d:a7:8f:04:52:e9:
                    f8:64:e2:1a:5e:fe:a5:99:60:e0:f8:30:c1:1c:6a:
                    14:8b:be:8b:55:07:76:ba:1d:5c:1d:f8:02:38:84:
                    82:55:df:5f:67:88:dd:01:65:66:c7:11:8c:b1:04:
                    31:30:c6:b2:b4:b2:ba:b2:0f:3c:ba:7d:b4:9e:10:
                    f1:32:9c:f3:c5:69:25:37:e9:20:b0:dc:99:df:e9:
                    ea:6d:c2:c1:19:84:5e:b7:76:05:a5:b1:3e:ca:9b:
                    54:7b:74:79:c0:61:98:89:d8:b2:3e:94:37:d6:38:
                    e9:4c:29:e1:48:87:18:db:85:00:dd:04:a2:a7:53:
                    f5:d4:3e:53:42:d7:41:0a:74:69:b3:e6:f4:dd:b7:
                    0b:02:a5:46:e9:1e:ae:6f:c7:63:fd:7b:4e:e6:73:
                    fa:af:2b:96:d4:a1:0d:3b:76:86:64:82:2c:79:0b:
                    10:e5:67:50:b5:42:24:36:15:05:39:e0:ff:bb:80:
                    3d:72:7a:5d:bb:e7:e7:40:98:aa:c7:75:1f:6e:22:
                    43:4e:5b:03:27:ca:52:12:52:67:26:14:b0:cd:35:
                    f8:8a:da:ec:7e:4b:ce:bc:22:6e:c9:ab:ab:f9:ea:
                    1c:5e:b5:cf:de:c1:0d:58:30:e7:c5:83:fd:1c:41:
                    83:83
                Exponent: 65537 (0x10001)
        X509v3 extensions:
            Authority Information Access: 
                CA Issuers - URI:http://sub-ca.localhost/sub-ca.crt
                OCSP - URI:http://ocsp.sub-ca.localhost:9081
            X509v3 Authority Key Identifier: 
                4D:A1:8D:85:C1:C1:ED:E8:9A:39:B5:05:2D:3B:72:88:8F:77:D0:82
            X509v3 Basic Constraints: critical
                CA:FALSE
            X509v3 CRL Distribution Points: 
                Full Name:
                  URI:http://sub-ca.localhost/sub-ca.crl
            X509v3 Extended Key Usage: 
                TLS Web Client Authentication
            X509v3 Key Usage: critical
                Digital Signature
            X509v3 Subject Key Identifier: 
                A2:D3:2D:FD:FE:C5:6F:F0:7C:9E:8E:DF:C4:42:9C:81:3A:21:7C:2A
    Signature Algorithm: sha256WithRSAEncryption
    Signature Value:
        27:98:7c:cd:56:22:81:20:b2:52:73:ad:6e:c6:b8:af:69:d2:
        b5:80:c3:6d:95:10:fa:7e:19:a9:0e:b4:4e:a6:ba:32:89:45:
        66:86:f2:4c:6b:25:30:6f:8b:af:91:a1:61:90:08:10:f3:54:
        88:0e:db:63:f6:da:6b:85:f3:97:f6:b2:a1:bc:74:6a:e7:09:
        16:6e:43:86:0c:e2:63:d7:6c:b1:18:93:22:08:80:08:18:c1:
        60:9f:a0:ab:4b:43:af:cf:f8:44:05:57:df:c5:e8:09:ba:f6:
        b8:9c:ec:92:bb:33:fc:b8:a9:53:17:52:5f:db:6e:db:28:51:
        bc:e7:d4:04:bb:eb:09:f4:d2:4c:e0:e0:74:d9:57:63:89:b3:
        7d:5d:1f:d4:e8:07:c9:f7:bb:27:fe:c1:ae:92:f5:cd:81:1b:
        23:53:38:ec:68:4d:7d:ed:6e:8c:3a:b4:2f:91:a9:da:f5:f6:
        2b:d3:cc:3b:40:ab:ce:a1:74:dc:3f:8d:eb:dd:87:20:d0:91:
        0b:cc:a1:2d:3d:9a:2a:fc:9b:c4:c3:20:8c:96:29:a0:8d:57:
        61:00:65:60:9f:27:bc:5d:5b:95:eb:e5:23:32:16:36:8d:9b:
        fc:98:b9:12:0c:9f:70:bb:65:97:3a:38:2a:ea:3e:4e:2a:51:
        32:04:f5:20
-----BEGIN CERTIFICATE-----
MIIELDCCAxSgAwIBAgIRAMiw7vAkAdeKHRRAO5D/RuAwDQYJKoZIhvcNAQELBQAw
QjELMAkGA1UEBhMCVVMxIjAgBgNVBAoMGVBvcnRsYW5kIFN0YXRlIFVuaXZlcnNp
dHkxDzANBgNVBAMMBlN1YiBDQTAeFw0yMjExMDgyMDM1MjlaFw0zMjExMDUyMDM1
MjlaMEIxCzAJBgNVBAYTAlVTMSIwIAYDVQQKDBlQb3J0bGFuZCBTdGF0ZSBVbml2
ZXJzaXR5MQ8wDQYDVQQDDAZTdWIgQ0EwggEiMA0GCSqGSIb3DQEBAQUAA4IBDwAw
ggEKAoIBAQCs7RLIVm8Vk42njwRS6fhk4hpe/qWZYOD4MMEcahSLvotVB3a6HVwd
+AI4hIJV319niN0BZWbHEYyxBDEwxrK0srqyDzy6fbSeEPEynPPFaSU36SCw3Jnf
6eptwsEZhF63dgWlsT7Km1R7dHnAYZiJ2LI+lDfWOOlMKeFIhxjbhQDdBKKnU/XU
PlNC10EKdGmz5vTdtwsCpUbpHq5vx2P9e07mc/qvK5bUoQ07doZkgix5CxDlZ1C1
QiQ2FQU54P+7gD1yel275+dAmKrHdR9uIkNOWwMnylISUmcmFLDNNfiK2ux+S868
Im7Jq6v56hxetc/ewQ1YMOfFg/0cQYODAgMBAAGjggEbMIIBFzBtBggrBgEFBQcB
AQRhMF8wLgYIKwYBBQUHMAKGImh0dHA6Ly9zdWItY2EubG9jYWxob3N0L3N1Yi1j
YS5jcnQwLQYIKwYBBQUHMAGGIWh0dHA6Ly9vY3NwLnN1Yi1jYS5sb2NhbGhvc3Q6
OTA4MTAfBgNVHSMEGDAWgBRNoY2FwcHt6Jo5tQUtO3KIj3fQgjAMBgNVHRMBAf8E
AjAAMDMGA1UdHwQsMCowKKAmoCSGImh0dHA6Ly9zdWItY2EubG9jYWxob3N0L3N1
Yi1jYS5jcmwwEwYDVR0lBAwwCgYIKwYBBQUHAwIwDgYDVR0PAQH/BAQDAgeAMB0G
A1UdDgQWBBSi0y39/sVv8Hyejt/EQpyBOiF8KjANBgkqhkiG9w0BAQsFAAOCAQEA
J5h8zVYigSCyUnOtbsa4r2nStYDDbZUQ+n4ZqQ60Tqa6MolFZobyTGslMG+Lr5Gh
YZAIEPNUiA7bY/baa4Xzl/ayobx0aucJFm5DhgziY9dssRiTIgiACBjBYJ+gq0tD
r8/4RAVX38XoCbr2uJzskrsz/LipUxdSX9tu2yhRvOfUBLvrCfTSTODgdNlXY4mz
fV0f1OgHyfe7J/7BrpL1zYEbI1M47GhNfe1ujDq0L5Gp2vX2K9PMO0CrzqF03D+N
692HINCRC8yhLT2aKvybxMMgjJYpoI1XYQBlYJ8nvF1blevlIzIWNo2b/Ji5Egyf
cLtllzo4Kuo+TipRMgT1IA==
-----END CERTIFICATE-----
