Certificate:
    Data:
        Version: 3 (0x2)
        Serial Number:
            90:4c:66:1b:96:18:b9:99:11:ea:e2:b7:9b:98:d0:06
        Signature Algorithm: sha256WithRSAEncryption
        Issuer: C=US, O=Portland State University, CN=Sub CA
        Validity
            Not Before: Apr  5 20:37:26 2022 GMT
            Not After : Apr  5 20:37:26 2023 GMT
        Subject: C=US, O=Portland State University, CN=Sub CA
        Subject Public Key Info:
            Public Key Algorithm: rsaEncryption
                RSA Public-Key: (2048 bit)
                Modulus:
                    00:bd:fe:50:26:5c:ac:21:e2:22:a2:a4:7c:07:08:
                    61:0a:9e:bb:1f:c0:61:64:80:5e:21:b0:f5:98:02:
                    e2:02:74:fe:7d:14:bc:93:69:de:b3:42:13:fd:9e:
                    9a:59:f2:aa:08:36:21:8f:2c:f9:1f:f7:1b:4d:97:
                    a2:1e:fe:a0:49:11:6b:99:47:05:78:7a:bd:b0:f1:
                    f6:fc:8e:b2:a2:71:9d:a6:cb:e0:60:3d:0b:4d:db:
                    6a:67:ca:66:aa:36:4b:1c:2d:96:6a:d3:c7:95:6d:
                    fc:a2:d7:23:42:94:de:0d:00:8c:75:16:43:c7:3d:
                    d3:bc:61:83:6c:43:9c:bb:22:82:67:a7:9f:57:1d:
                    25:25:9e:ac:42:a7:3c:fc:6c:84:8d:c1:e8:f2:61:
                    0a:7b:ff:14:42:05:c0:58:71:9d:ce:14:46:06:ac:
                    5c:a6:b5:4d:e2:70:91:22:fb:c5:e7:c2:cc:b0:80:
                    b4:aa:40:f1:34:6c:a3:68:75:db:0d:8b:a0:08:5c:
                    65:b6:99:7f:45:f3:03:4c:6b:73:e9:49:ee:4b:ae:
                    c8:9c:cd:8e:92:d4:45:cf:5d:94:2e:81:6a:e8:4c:
                    90:3a:9e:a2:39:ae:16:ea:1c:bb:b2:73:b2:9f:51:
                    97:45:78:31:bd:05:0b:e5:d2:00:3d:5a:92:13:64:
                    cf:7b
                Exponent: 65537 (0x10001)
        X509v3 extensions:
            Authority Information Access: 
                CA Issuers - URI:http://sub-ca.localhost/sub-ca.crt
                OCSP - URI:http://ocsp.sub-ca.localhost:9081

            X509v3 Authority Key Identifier: 
                keyid:20:4E:F0:B3:1E:BF:BC:1F:35:6A:C5:70:8E:A0:D8:70:D5:D1:57:44

            X509v3 Basic Constraints: critical
                CA:FALSE
            X509v3 CRL Distribution Points: 

                Full Name:
                  URI:http://sub-ca.localhost/sub-ca.crl

            X509v3 Extended Key Usage: 
                TLS Web Client Authentication
            X509v3 Key Usage: critical
                Digital Signature
            X509v3 Subject Key Identifier: 
                3E:2C:3E:27:D6:49:79:32:05:96:51:2B:C4:6B:F9:14:CA:CB:72:BC
    Signature Algorithm: sha256WithRSAEncryption
         1e:bb:6f:00:f0:6a:e3:cd:09:35:fa:75:16:c9:4a:ec:83:1b:
         2f:69:36:7d:72:f0:01:67:78:8a:32:61:87:f0:1f:e9:93:4e:
         33:05:3c:b6:0e:98:ff:44:a2:a6:cc:37:30:a0:ab:4c:84:fc:
         70:49:11:14:50:bf:93:0f:5e:e8:d8:ee:23:e4:fa:29:62:57:
         ff:92:76:f2:a9:cd:87:11:8d:2f:e8:45:e0:2b:b9:5f:ca:fd:
         aa:21:04:5a:5b:fc:68:c5:81:d1:9a:03:0c:0a:0f:03:54:c0:
         fe:bd:f5:e8:35:22:29:30:5c:91:41:89:d8:c5:9e:f2:91:bb:
         f2:e4:af:b9:56:ec:4f:8c:d3:e3:e3:3d:4a:2e:0a:13:72:67:
         eb:a6:7e:8d:dd:99:4b:21:d3:8d:95:db:f9:1b:0e:f1:bc:31:
         9a:ba:f5:34:7d:ad:1b:4b:e5:01:20:07:69:09:1a:8d:05:55:
         a1:46:4c:76:c2:44:1f:9d:28:bd:a1:c2:d9:ab:a5:59:ca:93:
         11:70:51:67:ca:cb:d2:0c:12:8f:b1:d9:6e:8b:10:55:7b:39:
         05:0d:cc:92:84:c4:d6:7f:ef:ea:0d:76:68:0f:fa:ca:4b:20:
         77:32:3f:c7:8f:45:d3:8e:1e:60:d4:54:5e:2d:82:a7:ec:c7:
         61:51:98:de
-----BEGIN CERTIFICATE-----
MIIELDCCAxSgAwIBAgIRAJBMZhuWGLmZEerit5uY0AYwDQYJKoZIhvcNAQELBQAw
QjELMAkGA1UEBhMCVVMxIjAgBgNVBAoMGVBvcnRsYW5kIFN0YXRlIFVuaXZlcnNp
dHkxDzANBgNVBAMMBlN1YiBDQTAeFw0yMjA0MDUyMDM3MjZaFw0yMzA0MDUyMDM3
MjZaMEIxCzAJBgNVBAYTAlVTMSIwIAYDVQQKDBlQb3J0bGFuZCBTdGF0ZSBVbml2
ZXJzaXR5MQ8wDQYDVQQDDAZTdWIgQ0EwggEiMA0GCSqGSIb3DQEBAQUAA4IBDwAw
ggEKAoIBAQC9/lAmXKwh4iKipHwHCGEKnrsfwGFkgF4hsPWYAuICdP59FLyTad6z
QhP9nppZ8qoINiGPLPkf9xtNl6Ie/qBJEWuZRwV4er2w8fb8jrKicZ2my+BgPQtN
22pnymaqNkscLZZq08eVbfyi1yNClN4NAIx1FkPHPdO8YYNsQ5y7IoJnp59XHSUl
nqxCpzz8bISNwejyYQp7/xRCBcBYcZ3OFEYGrFymtU3icJEi+8XnwsywgLSqQPE0
bKNoddsNi6AIXGW2mX9F8wNMa3PpSe5LrsiczY6S1EXPXZQugWroTJA6nqI5rhbq
HLuyc7KfUZdFeDG9BQvl0gA9WpITZM97AgMBAAGjggEbMIIBFzBtBggrBgEFBQcB
AQRhMF8wLgYIKwYBBQUHMAKGImh0dHA6Ly9zdWItY2EubG9jYWxob3N0L3N1Yi1j
YS5jcnQwLQYIKwYBBQUHMAGGIWh0dHA6Ly9vY3NwLnN1Yi1jYS5sb2NhbGhvc3Q6
OTA4MTAfBgNVHSMEGDAWgBQgTvCzHr+8HzVqxXCOoNhw1dFXRDAMBgNVHRMBAf8E
AjAAMDMGA1UdHwQsMCowKKAmoCSGImh0dHA6Ly9zdWItY2EubG9jYWxob3N0L3N1
Yi1jYS5jcmwwEwYDVR0lBAwwCgYIKwYBBQUHAwIwDgYDVR0PAQH/BAQDAgeAMB0G
A1UdDgQWBBQ+LD4n1kl5MgWWUSvEa/kUystyvDANBgkqhkiG9w0BAQsFAAOCAQEA
HrtvAPBq480JNfp1FslK7IMbL2k2fXLwAWd4ijJhh/Af6ZNOMwU8tg6Y/0Sipsw3
MKCrTIT8cEkRFFC/kw9e6NjuI+T6KWJX/5J28qnNhxGNL+hF4Cu5X8r9qiEEWlv8
aMWB0ZoDDAoPA1TA/r316DUiKTBckUGJ2MWe8pG78uSvuVbsT4zT4+M9Si4KE3Jn
66Z+jd2ZSyHTjZXb+RsO8bwxmrr1NH2tG0vlASAHaQkajQVVoUZMdsJEH50ovaHC
2aulWcqTEXBRZ8rL0gwSj7HZbosQVXs5BQ3MkoTE1n/v6g12aA/6yksgdzI/x49F
044eYNRUXi2Cp+zHYVGY3g==
-----END CERTIFICATE-----
