Certificate:
    Data:
        Version: 3 (0x2)
        Serial Number:
            90:4c:66:1b:96:18:b9:99:11:ea:e2:b7:9b:98:cf:bf
        Signature Algorithm: sha256WithRSAEncryption
        Issuer: C=US, O=Portland State University, CN=Sub CA
        Validity
            Not Before: Apr  5 20:37:18 2022 GMT
            Not After : Apr  5 20:37:18 2023 GMT
        Subject: C=US, O=Portland State University, CN=Sub CA
        Subject Public Key Info:
            Public Key Algorithm: rsaEncryption
                RSA Public-Key: (2048 bit)
                Modulus:
                    00:c0:de:91:50:0a:1b:d3:99:9a:2e:45:a8:81:0d:
                    ad:09:bd:92:4b:02:2d:95:36:03:82:d1:1c:ba:72:
                    dc:82:65:ba:21:55:74:b9:d1:9b:fe:fe:e4:27:40:
                    f3:40:3b:3e:4a:07:91:78:2f:9f:bc:1a:4b:8f:f3:
                    14:b4:9b:8c:29:7b:d5:50:b1:ea:47:e1:35:e7:55:
                    1b:4f:a0:cb:31:20:bc:34:92:85:dc:47:43:0d:c8:
                    d1:fa:46:a4:ca:49:f9:c8:1b:fc:52:ab:5f:69:51:
                    4f:3b:44:59:47:56:08:ee:ad:12:ae:af:a4:ac:7b:
                    25:ca:22:2c:65:ec:dc:50:22:27:00:51:c6:f6:cb:
                    c0:98:e7:08:5b:ba:48:8d:30:c9:87:60:3e:04:2c:
                    98:f8:59:78:3f:9b:63:05:da:c4:09:de:a5:d2:dd:
                    4b:bd:0f:96:6a:30:9e:46:d9:fc:f1:0c:16:5d:74:
                    33:f3:e1:9b:72:88:3a:4d:fc:32:0c:37:ad:c8:4e:
                    f5:20:39:fd:24:ad:be:a3:52:5f:12:1d:43:1a:f1:
                    0b:48:ab:7e:0d:34:8f:a3:dc:02:2b:1b:2c:7b:36:
                    11:7a:b0:71:0a:36:c9:44:bc:99:14:77:1a:be:09:
                    03:7d:80:23:ac:b1:9c:b4:7a:97:89:36:6d:84:5e:
                    92:cb
                Exponent: 65537 (0x10001)
        X509v3 extensions:
            Authority Information Access: 
                CA Issuers - URI:http://sub-ca.localhost/sub-ca.crt
                OCSP - URI:http://ocsp.sub-ca.localhost:9081

            X509v3 Authority Key Identifier: 
                keyid:20:4E:F0:B3:1E:BF:BC:1F:35:6A:C5:70:8E:A0:D8:70:D5:D1:57:44

            X509v3 Basic Constraints: critical
                CA:FALSE
            X509v3 CRL Distribution Points: 

                Full Name:
                  URI:http://sub-ca.localhost/sub-ca.crl

            X509v3 Extended Key Usage: 
                TLS Web Client Authentication
            X509v3 Key Usage: critical
                Digital Signature
            X509v3 Subject Key Identifier: 
                BC:0C:23:DF:85:08:74:D0:DA:08:AD:8A:A4:EA:12:59:49:21:6A:03
    Signature Algorithm: sha256WithRSAEncryption
         00:9e:8f:6e:fe:aa:93:b8:2f:3f:c4:ae:97:6a:29:08:57:03:
         2a:ed:ae:52:9b:af:f6:5b:9a:41:5f:6f:e0:28:41:32:c4:0f:
         c7:d1:ad:76:30:ce:46:51:0d:f4:ee:26:9f:51:3e:45:12:05:
         dd:53:bd:b2:ef:93:15:6e:08:04:4b:7f:87:ac:9f:ca:50:44:
         0d:e5:e6:da:df:8c:fb:3a:05:5d:63:bb:18:62:eb:59:0a:88:
         5e:1a:6a:cc:76:c3:ef:55:6b:d7:08:fd:da:d1:04:25:97:d9:
         f4:c2:ec:0c:b3:83:22:17:f3:bc:cd:29:81:bc:19:3a:6e:20:
         82:14:73:04:ac:ad:7a:2f:56:8e:70:92:16:26:80:e8:0c:d9:
         8f:b1:b2:3f:6c:44:bc:e1:41:7b:11:00:6f:fa:7e:97:e3:5b:
         a2:9b:80:e1:b9:3c:db:11:7f:f5:93:be:b3:62:43:cc:f0:04:
         63:bd:fc:e4:c6:59:5c:27:fc:ee:2a:00:70:87:ea:4c:ef:87:
         48:6e:8c:0c:be:5a:ec:db:da:ab:e0:a1:86:e6:76:bb:97:db:
         1e:ef:e7:2b:71:2b:5c:a8:ea:5a:e0:50:51:7e:0a:0c:bc:08:
         21:b9:8f:53:e5:59:c2:3e:5f:31:63:c6:c2:6d:90:7d:37:5e:
         e9:2e:85:7a
-----BEGIN CERTIFICATE-----
MIIELDCCAxSgAwIBAgIRAJBMZhuWGLmZEerit5uYz78wDQYJKoZIhvcNAQELBQAw
QjELMAkGA1UEBhMCVVMxIjAgBgNVBAoMGVBvcnRsYW5kIFN0YXRlIFVuaXZlcnNp
dHkxDzANBgNVBAMMBlN1YiBDQTAeFw0yMjA0MDUyMDM3MThaFw0yMzA0MDUyMDM3
MThaMEIxCzAJBgNVBAYTAlVTMSIwIAYDVQQKDBlQb3J0bGFuZCBTdGF0ZSBVbml2
ZXJzaXR5MQ8wDQYDVQQDDAZTdWIgQ0EwggEiMA0GCSqGSIb3DQEBAQUAA4IBDwAw
ggEKAoIBAQDA3pFQChvTmZouRaiBDa0JvZJLAi2VNgOC0Ry6ctyCZbohVXS50Zv+
/uQnQPNAOz5KB5F4L5+8GkuP8xS0m4wpe9VQsepH4TXnVRtPoMsxILw0koXcR0MN
yNH6RqTKSfnIG/xSq19pUU87RFlHVgjurRKur6SseyXKIixl7NxQIicAUcb2y8CY
5whbukiNMMmHYD4ELJj4WXg/m2MF2sQJ3qXS3Uu9D5ZqMJ5G2fzxDBZddDPz4Zty
iDpN/DIMN63ITvUgOf0krb6jUl8SHUMa8QtIq34NNI+j3AIrGyx7NhF6sHEKNslE
vJkUdxq+CQN9gCOssZy0epeJNm2EXpLLAgMBAAGjggEbMIIBFzBtBggrBgEFBQcB
AQRhMF8wLgYIKwYBBQUHMAKGImh0dHA6Ly9zdWItY2EubG9jYWxob3N0L3N1Yi1j
YS5jcnQwLQYIKwYBBQUHMAGGIWh0dHA6Ly9vY3NwLnN1Yi1jYS5sb2NhbGhvc3Q6
OTA4MTAfBgNVHSMEGDAWgBQgTvCzHr+8HzVqxXCOoNhw1dFXRDAMBgNVHRMBAf8E
AjAAMDMGA1UdHwQsMCowKKAmoCSGImh0dHA6Ly9zdWItY2EubG9jYWxob3N0L3N1
Yi1jYS5jcmwwEwYDVR0lBAwwCgYIKwYBBQUHAwIwDgYDVR0PAQH/BAQDAgeAMB0G
A1UdDgQWBBS8DCPfhQh00NoIrYqk6hJZSSFqAzANBgkqhkiG9w0BAQsFAAOCAQEA
AJ6Pbv6qk7gvP8Sul2opCFcDKu2uUpuv9luaQV9v4ChBMsQPx9GtdjDORlEN9O4m
n1E+RRIF3VO9su+TFW4IBEt/h6yfylBEDeXm2t+M+zoFXWO7GGLrWQqIXhpqzHbD
71Vr1wj92tEEJZfZ9MLsDLODIhfzvM0pgbwZOm4gghRzBKytei9WjnCSFiaA6AzZ
j7GyP2xEvOFBexEAb/p+l+NbopuA4bk82xF/9ZO+s2JDzPAEY7385MZZXCf87ioA
cIfqTO+HSG6MDL5a7Nvaq+ChhuZ2u5fbHu/nK3ErXKjqWuBQUX4KDLwIIbmPU+VZ
wj5fMWPGwm2QfTde6S6Feg==
-----END CERTIFICATE-----
