Certificate:
    Data:
        Version: 3 (0x2)
        Serial Number:
            90:4c:66:1b:96:18:b9:99:11:ea:e2:b7:9b:98:cf:d0
        Signature Algorithm: sha256WithRSAEncryption
        Issuer: C=US, O=Portland State University, CN=Sub CA
        Validity
            Not Before: Apr  5 20:37:20 2022 GMT
            Not After : Apr  5 20:37:20 2023 GMT
        Subject: C=US, O=Portland State University, CN=Sub CA
        Subject Public Key Info:
            Public Key Algorithm: rsaEncryption
                RSA Public-Key: (2048 bit)
                Modulus:
                    00:9f:f5:bb:1a:2b:f0:23:53:a6:88:e8:06:f6:6a:
                    af:11:86:0f:91:9b:74:75:81:7b:32:cb:90:ac:d3:
                    e1:65:08:0c:be:ed:7b:96:6e:be:a3:50:50:0d:82:
                    7a:6e:d5:82:71:f7:7e:d3:8c:84:3c:fa:27:7d:ed:
                    34:50:e6:98:33:26:ca:7e:c2:20:cc:4f:01:3b:73:
                    06:9b:82:8e:aa:b6:98:29:0f:d8:78:1c:19:d7:c4:
                    87:a0:54:c2:ae:b0:f3:53:d8:4f:c1:c2:6c:5f:41:
                    6f:57:85:a1:29:94:3e:84:22:46:72:07:1f:01:78:
                    19:6b:92:3a:dd:a8:41:75:3f:ee:74:24:78:e9:ac:
                    d6:79:a4:cc:da:ac:d5:e3:0a:7a:f5:b2:f1:bf:f8:
                    2e:05:8f:f9:f5:91:1a:50:dd:ae:f0:43:3a:57:33:
                    9a:7e:19:17:83:c5:db:ac:0f:34:1f:e0:85:a2:77:
                    2b:5e:ec:05:6c:23:7e:39:a7:37:17:07:8d:58:cf:
                    05:46:90:1f:a6:ea:b0:14:f9:47:98:9c:07:bf:cc:
                    47:e5:ba:9c:04:2d:de:a9:86:a1:da:ad:6f:35:18:
                    db:1e:cd:24:02:05:25:73:ba:74:ed:5f:47:c8:8e:
                    32:04:b8:12:ca:9f:1a:47:33:81:81:ca:0c:5b:bd:
                    3a:51
                Exponent: 65537 (0x10001)
        X509v3 extensions:
            Authority Information Access: 
                CA Issuers - URI:http://sub-ca.localhost/sub-ca.crt
                OCSP - URI:http://ocsp.sub-ca.localhost:9081

            X509v3 Authority Key Identifier: 
                keyid:20:4E:F0:B3:1E:BF:BC:1F:35:6A:C5:70:8E:A0:D8:70:D5:D1:57:44

            X509v3 Basic Constraints: critical
                CA:FALSE
            X509v3 CRL Distribution Points: 

                Full Name:
                  URI:http://sub-ca.localhost/sub-ca.crl

            X509v3 Extended Key Usage: 
                TLS Web Client Authentication
            X509v3 Key Usage: critical
                Digital Signature
            X509v3 Subject Key Identifier: 
                BC:4B:C1:BA:86:97:00:DE:33:5C:D3:EA:40:76:EE:FF:8A:F1:D3:AC
    Signature Algorithm: sha256WithRSAEncryption
         44:75:71:8c:7e:c5:ee:b6:3e:af:80:c9:c1:aa:96:47:64:ff:
         cf:1a:84:d4:83:80:08:52:66:77:20:0c:8c:2b:87:e8:55:81:
         8d:f1:d7:52:06:1b:fc:ba:cf:7d:40:a3:ee:cb:0b:54:5c:00:
         55:c7:e2:cf:3c:0c:38:83:c1:8b:36:09:8d:e3:2f:1d:03:a3:
         ef:36:98:d9:a8:a8:af:ff:01:c1:9d:ed:f0:ef:a3:d6:b1:5a:
         bd:dc:06:da:87:06:83:7b:05:cd:a8:6e:d8:bc:d7:76:2b:e8:
         1a:c7:1b:16:0e:59:9d:7e:3b:0c:e9:bb:ba:56:e5:50:fe:98:
         a7:28:6a:31:5a:ad:c9:cb:9e:27:7f:49:03:68:4c:a5:aa:10:
         04:b6:cf:0a:76:38:51:fb:f9:de:e5:ed:ca:6f:8d:90:6e:ed:
         22:8c:be:32:d4:76:c8:c5:03:10:cf:0f:a1:d6:b0:ea:70:a9:
         04:4d:82:28:70:37:43:35:ab:c7:e5:fb:3a:2f:86:2d:cb:fc:
         fc:4b:fa:e3:71:21:41:90:db:93:24:09:b7:1b:20:7c:39:2e:
         58:09:1e:05:57:02:78:07:83:92:70:28:35:62:ae:3c:46:2b:
         ad:45:fa:36:93:d2:9e:2f:d8:1c:7c:3a:1b:ce:d9:b2:70:51:
         6e:45:f8:18
-----BEGIN CERTIFICATE-----
MIIELDCCAxSgAwIBAgIRAJBMZhuWGLmZEerit5uYz9AwDQYJKoZIhvcNAQELBQAw
QjELMAkGA1UEBhMCVVMxIjAgBgNVBAoMGVBvcnRsYW5kIFN0YXRlIFVuaXZlcnNp
dHkxDzANBgNVBAMMBlN1YiBDQTAeFw0yMjA0MDUyMDM3MjBaFw0yMzA0MDUyMDM3
MjBaMEIxCzAJBgNVBAYTAlVTMSIwIAYDVQQKDBlQb3J0bGFuZCBTdGF0ZSBVbml2
ZXJzaXR5MQ8wDQYDVQQDDAZTdWIgQ0EwggEiMA0GCSqGSIb3DQEBAQUAA4IBDwAw
ggEKAoIBAQCf9bsaK/AjU6aI6Ab2aq8Rhg+Rm3R1gXsyy5Cs0+FlCAy+7XuWbr6j
UFANgnpu1YJx937TjIQ8+id97TRQ5pgzJsp+wiDMTwE7cwabgo6qtpgpD9h4HBnX
xIegVMKusPNT2E/BwmxfQW9XhaEplD6EIkZyBx8BeBlrkjrdqEF1P+50JHjprNZ5
pMzarNXjCnr1svG/+C4Fj/n1kRpQ3a7wQzpXM5p+GReDxdusDzQf4IWidyte7AVs
I345pzcXB41YzwVGkB+m6rAU+UeYnAe/zEflupwELd6phqHarW81GNsezSQCBSVz
unTtX0fIjjIEuBLKnxpHM4GBygxbvTpRAgMBAAGjggEbMIIBFzBtBggrBgEFBQcB
AQRhMF8wLgYIKwYBBQUHMAKGImh0dHA6Ly9zdWItY2EubG9jYWxob3N0L3N1Yi1j
YS5jcnQwLQYIKwYBBQUHMAGGIWh0dHA6Ly9vY3NwLnN1Yi1jYS5sb2NhbGhvc3Q6
OTA4MTAfBgNVHSMEGDAWgBQgTvCzHr+8HzVqxXCOoNhw1dFXRDAMBgNVHRMBAf8E
AjAAMDMGA1UdHwQsMCowKKAmoCSGImh0dHA6Ly9zdWItY2EubG9jYWxob3N0L3N1
Yi1jYS5jcmwwEwYDVR0lBAwwCgYIKwYBBQUHAwIwDgYDVR0PAQH/BAQDAgeAMB0G
A1UdDgQWBBS8S8G6hpcA3jNc0+pAdu7/ivHTrDANBgkqhkiG9w0BAQsFAAOCAQEA
RHVxjH7F7rY+r4DJwaqWR2T/zxqE1IOACFJmdyAMjCuH6FWBjfHXUgYb/LrPfUCj
7ssLVFwAVcfizzwMOIPBizYJjeMvHQOj7zaY2aior/8BwZ3t8O+j1rFavdwG2ocG
g3sFzahu2LzXdivoGscbFg5ZnX47DOm7ulblUP6YpyhqMVqtycueJ39JA2hMpaoQ
BLbPCnY4Ufv53uXtym+NkG7tIoy+MtR2yMUDEM8Podaw6nCpBE2CKHA3QzWrx+X7
Oi+GLcv8/Ev643EhQZDbkyQJtxsgfDkuWAkeBVcCeAeDknAoNWKuPEYrrUX6NpPS
ni/YHHw6G87ZsnBRbkX4GA==
-----END CERTIFICATE-----
