Certificate:
    Data:
        Version: 3 (0x2)
        Serial Number:
            90:4c:66:1b:96:18:b9:99:11:ea:e2:b7:9b:98:cf:ca
        Signature Algorithm: sha256WithRSAEncryption
        Issuer: C=US, O=Portland State University, CN=Sub CA
        Validity
            Not Before: Apr  5 20:37:19 2022 GMT
            Not After : Apr  5 20:37:19 2023 GMT
        Subject: C=US, O=Portland State University, CN=Sub CA
        Subject Public Key Info:
            Public Key Algorithm: rsaEncryption
                RSA Public-Key: (2048 bit)
                Modulus:
                    00:d1:51:bc:24:e5:91:73:61:ad:fa:43:63:96:74:
                    db:35:e7:27:c2:48:99:c6:a3:64:9c:1d:98:d5:05:
                    5c:a9:08:9e:bf:44:64:7d:80:7f:a1:d0:b2:3b:90:
                    17:60:5e:0b:36:02:81:94:4d:b1:bf:4d:c1:e2:30:
                    79:50:12:af:8f:98:38:49:ca:72:f4:95:0e:63:69:
                    86:a2:61:ac:03:d3:40:fb:cd:dd:38:d5:10:23:7f:
                    95:a7:2b:a5:0d:e6:dc:81:f5:22:21:d2:f4:ff:ca:
                    95:7d:ff:18:5f:1d:5c:3d:07:42:ff:7a:21:66:8d:
                    42:c5:96:8f:bc:7f:b4:da:74:7a:fa:23:05:d9:14:
                    1c:f2:51:4d:cb:a5:7a:e4:0f:2b:46:4a:9f:3f:2b:
                    6d:46:d1:ca:4a:6a:0c:8d:f2:38:2d:0f:c0:c8:7b:
                    fc:48:8d:b7:5d:63:a9:2e:16:59:af:45:51:ee:c2:
                    9d:ab:5b:28:0a:6a:39:9e:df:2c:ee:ec:c5:c0:9a:
                    ed:db:cc:38:a7:82:ef:b8:79:7a:71:db:41:80:fa:
                    01:d5:49:0d:72:e5:6c:53:72:89:46:b8:01:5d:57:
                    45:97:2c:70:a8:69:26:6f:68:62:37:f5:95:10:58:
                    6a:6a:d4:ad:d6:57:c2:cd:e1:94:d4:49:a5:55:c8:
                    55:a3
                Exponent: 65537 (0x10001)
        X509v3 extensions:
            Authority Information Access: 
                CA Issuers - URI:http://sub-ca.localhost/sub-ca.crt
                OCSP - URI:http://ocsp.sub-ca.localhost:9081

            X509v3 Authority Key Identifier: 
                keyid:20:4E:F0:B3:1E:BF:BC:1F:35:6A:C5:70:8E:A0:D8:70:D5:D1:57:44

            X509v3 Basic Constraints: critical
                CA:FALSE
            X509v3 CRL Distribution Points: 

                Full Name:
                  URI:http://sub-ca.localhost/sub-ca.crl

            X509v3 Extended Key Usage: 
                TLS Web Client Authentication
            X509v3 Key Usage: critical
                Digital Signature
            X509v3 Subject Key Identifier: 
                34:B6:E5:ED:06:45:B4:80:07:48:62:81:BF:12:19:4D:D9:BF:3C:3B
    Signature Algorithm: sha256WithRSAEncryption
         7d:ee:2a:03:1b:33:97:a5:14:c5:1a:96:15:5e:60:76:41:56:
         9e:ce:6f:91:d9:1d:7c:bd:60:ea:a9:0d:10:a2:a4:27:fc:0d:
         e1:97:53:e9:7a:7c:41:22:02:63:02:3e:8d:49:6b:1b:16:0e:
         50:5d:2a:f9:c0:4c:b3:1c:4e:c8:a7:6b:b8:61:c7:27:00:93:
         7e:b7:60:64:f1:b4:75:34:d8:8b:d2:31:e5:d1:e3:87:b1:01:
         50:a3:7e:b2:f1:10:f7:8d:9e:68:5b:44:05:dd:d4:0c:c8:20:
         56:a3:33:d8:a4:7d:bb:62:7e:74:9d:d0:b4:8b:44:f9:1f:3d:
         d5:fc:4c:79:a7:3b:0d:77:3e:0b:38:0e:18:30:81:dc:f9:de:
         a9:11:b7:dd:00:a4:a6:23:09:48:d9:d1:d4:0f:d0:88:fe:5c:
         be:9c:d0:41:57:d0:4f:f1:9b:fa:92:b2:e2:40:9d:1b:68:6a:
         71:46:8b:67:db:88:da:3b:43:ad:3f:0d:80:58:97:7b:a5:fd:
         e4:b4:72:d3:5c:e1:3b:79:e7:72:ee:66:db:e7:ea:ea:a0:4d:
         95:1a:36:a5:0e:68:da:c8:c9:3c:36:6d:95:7e:f6:c5:a8:74:
         17:f4:8a:7a:91:36:3d:51:fb:e0:6b:fb:cf:33:da:b1:c1:86:
         37:93:5d:30
-----BEGIN CERTIFICATE-----
MIIELDCCAxSgAwIBAgIRAJBMZhuWGLmZEerit5uYz8owDQYJKoZIhvcNAQELBQAw
QjELMAkGA1UEBhMCVVMxIjAgBgNVBAoMGVBvcnRsYW5kIFN0YXRlIFVuaXZlcnNp
dHkxDzANBgNVBAMMBlN1YiBDQTAeFw0yMjA0MDUyMDM3MTlaFw0yMzA0MDUyMDM3
MTlaMEIxCzAJBgNVBAYTAlVTMSIwIAYDVQQKDBlQb3J0bGFuZCBTdGF0ZSBVbml2
ZXJzaXR5MQ8wDQYDVQQDDAZTdWIgQ0EwggEiMA0GCSqGSIb3DQEBAQUAA4IBDwAw
ggEKAoIBAQDRUbwk5ZFzYa36Q2OWdNs15yfCSJnGo2ScHZjVBVypCJ6/RGR9gH+h
0LI7kBdgXgs2AoGUTbG/TcHiMHlQEq+PmDhJynL0lQ5jaYaiYawD00D7zd041RAj
f5WnK6UN5tyB9SIh0vT/ypV9/xhfHVw9B0L/eiFmjULFlo+8f7TadHr6IwXZFBzy
UU3LpXrkDytGSp8/K21G0cpKagyN8jgtD8DIe/xIjbddY6kuFlmvRVHuwp2rWygK
ajme3yzu7MXAmu3bzDingu+4eXpx20GA+gHVSQ1y5WxTcolGuAFdV0WXLHCoaSZv
aGI39ZUQWGpq1K3WV8LN4ZTUSaVVyFWjAgMBAAGjggEbMIIBFzBtBggrBgEFBQcB
AQRhMF8wLgYIKwYBBQUHMAKGImh0dHA6Ly9zdWItY2EubG9jYWxob3N0L3N1Yi1j
YS5jcnQwLQYIKwYBBQUHMAGGIWh0dHA6Ly9vY3NwLnN1Yi1jYS5sb2NhbGhvc3Q6
OTA4MTAfBgNVHSMEGDAWgBQgTvCzHr+8HzVqxXCOoNhw1dFXRDAMBgNVHRMBAf8E
AjAAMDMGA1UdHwQsMCowKKAmoCSGImh0dHA6Ly9zdWItY2EubG9jYWxob3N0L3N1
Yi1jYS5jcmwwEwYDVR0lBAwwCgYIKwYBBQUHAwIwDgYDVR0PAQH/BAQDAgeAMB0G
A1UdDgQWBBQ0tuXtBkW0gAdIYoG/EhlN2b88OzANBgkqhkiG9w0BAQsFAAOCAQEA
fe4qAxszl6UUxRqWFV5gdkFWns5vkdkdfL1g6qkNEKKkJ/wN4ZdT6Xp8QSICYwI+
jUlrGxYOUF0q+cBMsxxOyKdruGHHJwCTfrdgZPG0dTTYi9Ix5dHjh7EBUKN+svEQ
942eaFtEBd3UDMggVqMz2KR9u2J+dJ3QtItE+R891fxMeac7DXc+CzgOGDCB3Pne
qRG33QCkpiMJSNnR1A/QiP5cvpzQQVfQT/Gb+pKy4kCdG2hqcUaLZ9uI2jtDrT8N
gFiXe6X95LRy01zhO3nncu5m2+fq6qBNlRo2pQ5o2sjJPDZtlX72xah0F/SKepE2
PVH74Gv7zzPascGGN5NdMA==
-----END CERTIFICATE-----
