Certificate:
    Data:
        Version: 3 (0x2)
        Serial Number:
            90:4c:66:1b:96:18:b9:99:11:ea:e2:b7:9b:98:d0:17
        Signature Algorithm: sha256WithRSAEncryption
        Issuer: C=US, O=Portland State University, CN=Sub CA
        Validity
            Not Before: Apr  5 20:37:27 2022 GMT
            Not After : Apr  5 20:37:27 2023 GMT
        Subject: C=US, O=Portland State University, CN=Sub CA
        Subject Public Key Info:
            Public Key Algorithm: rsaEncryption
                RSA Public-Key: (2048 bit)
                Modulus:
                    00:ab:7a:31:9d:cc:3e:20:7d:9d:e7:6a:73:bf:14:
                    1a:b8:9f:98:a3:0b:0a:6b:f4:c9:65:aa:65:97:93:
                    f9:9c:e1:2c:31:58:8e:ba:23:f7:40:95:59:4d:f2:
                    b2:e3:0c:ba:39:d8:23:7c:98:1b:e2:c9:b3:85:d3:
                    95:f7:75:d2:2d:51:61:07:fe:a1:11:79:ae:4a:4a:
                    89:3c:2c:57:ef:75:d8:e9:8f:1f:30:49:31:a1:a0:
                    d2:cc:db:ed:85:ba:3d:36:0a:07:b3:2d:1a:e5:10:
                    24:88:aa:20:b2:93:91:37:e4:39:74:11:97:d1:df:
                    60:11:03:1d:6a:88:5c:54:4c:27:79:a1:42:15:b1:
                    d7:ae:d1:fc:7c:fe:69:27:72:c0:99:30:d7:a3:35:
                    42:c9:1c:46:12:0c:bb:02:63:d7:38:22:c3:40:71:
                    d9:82:d3:07:87:33:c8:2a:a3:77:6f:60:36:69:59:
                    50:7b:a7:21:6d:82:71:70:a0:cd:90:bf:f0:94:5e:
                    fb:b9:7f:b4:16:6e:37:4f:b8:96:01:d5:dd:09:24:
                    4a:db:08:1c:d6:e9:98:97:91:79:1b:3d:72:4d:ca:
                    41:a1:86:ad:5a:1d:55:2c:64:41:6a:ed:62:95:8a:
                    e0:21:31:cf:6e:61:31:37:48:ca:cf:52:cb:fd:cd:
                    a3:cf
                Exponent: 65537 (0x10001)
        X509v3 extensions:
            Authority Information Access: 
                CA Issuers - URI:http://sub-ca.localhost/sub-ca.crt
                OCSP - URI:http://ocsp.sub-ca.localhost:9081

            X509v3 Authority Key Identifier: 
                keyid:20:4E:F0:B3:1E:BF:BC:1F:35:6A:C5:70:8E:A0:D8:70:D5:D1:57:44

            X509v3 Basic Constraints: critical
                CA:FALSE
            X509v3 CRL Distribution Points: 

                Full Name:
                  URI:http://sub-ca.localhost/sub-ca.crl

            X509v3 Extended Key Usage: 
                TLS Web Client Authentication
            X509v3 Key Usage: critical
                Digital Signature
            X509v3 Subject Key Identifier: 
                D0:41:E0:CB:23:0D:EF:FD:D1:7D:36:15:11:3D:25:AD:CA:F5:48:BC
    Signature Algorithm: sha256WithRSAEncryption
         00:cb:a0:58:7b:19:01:8f:e9:04:b3:f4:58:e4:48:b8:1a:08:
         f2:65:61:48:c7:9a:a9:f1:c6:4e:bc:e3:df:7f:71:45:15:11:
         17:10:af:ce:03:42:a0:19:1e:91:bf:70:c5:ce:b7:fb:47:4f:
         39:3b:d4:b3:79:ff:ba:e3:61:71:27:31:c1:26:4d:72:f3:73:
         1e:ba:cf:a4:7f:b0:53:99:be:b3:a0:19:e3:cc:41:69:15:95:
         35:cc:a2:7e:fc:13:ac:47:65:eb:6a:fc:49:29:f0:a2:5b:7f:
         c7:2d:79:35:10:5f:88:a8:38:fc:bb:da:0a:59:8d:5c:43:f3:
         28:43:a6:40:c6:11:97:f2:bd:b6:ae:49:0d:24:e5:96:18:8d:
         22:95:4a:74:de:8a:0a:a8:eb:bb:e8:17:de:fb:57:03:4e:5a:
         55:50:df:c7:35:44:fb:88:7c:2b:38:ea:5a:75:76:a0:fe:22:
         37:c4:10:06:fa:3c:ae:ae:a6:cd:29:59:fd:1d:35:9b:02:f6:
         76:0c:55:55:a1:ae:3b:cf:39:07:db:79:2e:9c:23:4a:dd:27:
         a3:b9:fb:29:a6:2f:f2:21:64:7a:97:f2:18:4d:73:3e:ca:f5:
         26:84:0a:65:bd:26:82:3f:19:fa:89:53:8b:be:90:d0:34:b1:
         82:e7:82:a6
-----BEGIN CERTIFICATE-----
MIIELDCCAxSgAwIBAgIRAJBMZhuWGLmZEerit5uY0BcwDQYJKoZIhvcNAQELBQAw
QjELMAkGA1UEBhMCVVMxIjAgBgNVBAoMGVBvcnRsYW5kIFN0YXRlIFVuaXZlcnNp
dHkxDzANBgNVBAMMBlN1YiBDQTAeFw0yMjA0MDUyMDM3MjdaFw0yMzA0MDUyMDM3
MjdaMEIxCzAJBgNVBAYTAlVTMSIwIAYDVQQKDBlQb3J0bGFuZCBTdGF0ZSBVbml2
ZXJzaXR5MQ8wDQYDVQQDDAZTdWIgQ0EwggEiMA0GCSqGSIb3DQEBAQUAA4IBDwAw
ggEKAoIBAQCrejGdzD4gfZ3nanO/FBq4n5ijCwpr9MllqmWXk/mc4SwxWI66I/dA
lVlN8rLjDLo52CN8mBviybOF05X3ddItUWEH/qERea5KSok8LFfvddjpjx8wSTGh
oNLM2+2Fuj02CgezLRrlECSIqiCyk5E35Dl0EZfR32ARAx1qiFxUTCd5oUIVsdeu
0fx8/mkncsCZMNejNULJHEYSDLsCY9c4IsNAcdmC0weHM8gqo3dvYDZpWVB7pyFt
gnFwoM2Qv/CUXvu5f7QWbjdPuJYB1d0JJErbCBzW6ZiXkXkbPXJNykGhhq1aHVUs
ZEFq7WKViuAhMc9uYTE3SMrPUsv9zaPPAgMBAAGjggEbMIIBFzBtBggrBgEFBQcB
AQRhMF8wLgYIKwYBBQUHMAKGImh0dHA6Ly9zdWItY2EubG9jYWxob3N0L3N1Yi1j
YS5jcnQwLQYIKwYBBQUHMAGGIWh0dHA6Ly9vY3NwLnN1Yi1jYS5sb2NhbGhvc3Q6
OTA4MTAfBgNVHSMEGDAWgBQgTvCzHr+8HzVqxXCOoNhw1dFXRDAMBgNVHRMBAf8E
AjAAMDMGA1UdHwQsMCowKKAmoCSGImh0dHA6Ly9zdWItY2EubG9jYWxob3N0L3N1
Yi1jYS5jcmwwEwYDVR0lBAwwCgYIKwYBBQUHAwIwDgYDVR0PAQH/BAQDAgeAMB0G
A1UdDgQWBBTQQeDLIw3v/dF9NhURPSWtyvVIvDANBgkqhkiG9w0BAQsFAAOCAQEA
AMugWHsZAY/pBLP0WORIuBoI8mVhSMeaqfHGTrzj339xRRURFxCvzgNCoBkekb9w
xc63+0dPOTvUs3n/uuNhcScxwSZNcvNzHrrPpH+wU5m+s6AZ48xBaRWVNcyifvwT
rEdl62r8SSnwolt/xy15NRBfiKg4/LvaClmNXEPzKEOmQMYRl/K9tq5JDSTllhiN
IpVKdN6KCqjru+gX3vtXA05aVVDfxzVE+4h8KzjqWnV2oP4iN8QQBvo8rq6mzSlZ
/R01mwL2dgxVVaGuO885B9t5LpwjSt0no7n7KaYv8iFkepfyGE1zPsr1JoQKZb0m
gj8Z+olTi76Q0DSxgueCpg==
-----END CERTIFICATE-----
