Certificate:
    Data:
        Version: 3 (0x2)
        Serial Number:
            90:4c:66:1b:96:18:b9:99:11:ea:e2:b7:9b:98:cf:cb
        Signature Algorithm: sha256WithRSAEncryption
        Issuer: C=US, O=Portland State University, CN=Sub CA
        Validity
            Not Before: Apr  5 20:37:19 2022 GMT
            Not After : Apr  5 20:37:19 2023 GMT
        Subject: C=US, O=Portland State University, CN=Sub CA
        Subject Public Key Info:
            Public Key Algorithm: rsaEncryption
                RSA Public-Key: (2048 bit)
                Modulus:
                    00:d4:83:2b:29:59:d2:f4:1f:37:78:fe:72:11:b0:
                    6e:f0:c0:db:2e:8e:df:70:0b:43:57:92:fa:e8:32:
                    a3:99:5f:ec:f2:e2:de:7a:81:84:c6:6f:77:b6:12:
                    15:3e:6b:80:83:d3:74:3f:63:30:d5:c1:50:67:54:
                    35:88:54:04:45:52:7a:d4:0b:59:9c:78:23:a3:27:
                    49:24:11:a0:71:e7:42:50:7d:bd:71:c4:3d:aa:3e:
                    a2:cd:3b:4e:a1:9e:b7:9b:02:12:17:e7:e2:3a:25:
                    cc:9d:43:7c:dc:3b:4f:82:9e:82:4a:8d:77:02:49:
                    b6:2c:e0:ed:a2:bf:38:d8:e1:29:33:f0:d5:da:c3:
                    e3:88:a0:76:8b:36:79:14:04:3b:58:65:4a:1e:bc:
                    52:94:8e:f2:19:90:38:eb:cf:b4:e1:d6:fc:79:06:
                    9f:cc:19:f4:15:a4:24:a4:f7:59:29:3d:94:c3:bb:
                    87:de:d4:58:c8:44:16:73:67:b0:76:7e:50:aa:13:
                    36:28:3b:46:05:2b:e3:f6:c2:f2:06:dd:12:f1:00:
                    27:97:2d:d6:fa:9a:06:b4:1b:c9:e5:01:f2:d4:8e:
                    0b:61:fc:22:89:7b:14:c8:b1:ad:eb:fe:4a:68:d1:
                    40:73:00:b9:64:01:f9:4f:7a:af:11:17:88:00:55:
                    7c:b1
                Exponent: 65537 (0x10001)
        X509v3 extensions:
            Authority Information Access: 
                CA Issuers - URI:http://sub-ca.localhost/sub-ca.crt
                OCSP - URI:http://ocsp.sub-ca.localhost:9081

            X509v3 Authority Key Identifier: 
                keyid:20:4E:F0:B3:1E:BF:BC:1F:35:6A:C5:70:8E:A0:D8:70:D5:D1:57:44

            X509v3 Basic Constraints: critical
                CA:FALSE
            X509v3 CRL Distribution Points: 

                Full Name:
                  URI:http://sub-ca.localhost/sub-ca.crl

            X509v3 Extended Key Usage: 
                TLS Web Client Authentication
            X509v3 Key Usage: critical
                Digital Signature
            X509v3 Subject Key Identifier: 
                04:65:14:78:9F:C1:AF:87:41:4C:9A:7D:EB:03:3B:39:94:54:56:65
    Signature Algorithm: sha256WithRSAEncryption
         63:cc:9e:e8:30:94:36:7d:1c:4b:99:20:ff:94:4a:70:d8:2a:
         81:47:dd:fc:94:e4:db:3f:a4:1e:ad:d5:a6:c4:30:61:b2:2e:
         d9:0a:ca:83:61:a9:bc:4d:a0:2d:71:d6:f4:05:00:43:12:bc:
         d8:d4:a4:1c:a7:25:42:5e:18:c8:db:c2:52:27:4a:64:cb:3f:
         b7:50:2c:c6:e5:f1:04:fb:0b:41:cb:1a:03:d7:85:3d:e7:24:
         b0:f4:48:c4:e0:e8:17:99:2a:4e:7f:8d:e0:42:81:c8:d4:80:
         ba:c7:2a:8d:26:64:d2:aa:16:4c:d8:22:6a:a5:38:15:31:95:
         d7:63:d3:f5:f2:9f:a7:7c:b4:cd:d1:67:e9:9b:4c:e6:31:62:
         8f:36:cc:9b:da:9b:3d:aa:20:d2:fe:16:28:b4:10:67:0d:06:
         66:b3:f8:93:62:1c:36:f0:f6:ad:77:38:01:f3:91:fa:26:f6:
         18:f8:40:50:5d:58:93:51:98:a1:f9:3c:d8:e5:31:b6:cd:b1:
         14:51:61:8c:69:47:10:ad:02:5c:da:ea:5e:f3:34:a5:5d:e9:
         18:b9:ee:ab:71:86:52:d0:f9:78:92:93:74:0c:3b:67:c4:19:
         6e:7e:06:a1:10:79:74:43:c0:01:b1:31:5d:2d:38:ad:f4:c8:
         d6:28:d1:52
-----BEGIN CERTIFICATE-----
MIIELDCCAxSgAwIBAgIRAJBMZhuWGLmZEerit5uYz8swDQYJKoZIhvcNAQELBQAw
QjELMAkGA1UEBhMCVVMxIjAgBgNVBAoMGVBvcnRsYW5kIFN0YXRlIFVuaXZlcnNp
dHkxDzANBgNVBAMMBlN1YiBDQTAeFw0yMjA0MDUyMDM3MTlaFw0yMzA0MDUyMDM3
MTlaMEIxCzAJBgNVBAYTAlVTMSIwIAYDVQQKDBlQb3J0bGFuZCBTdGF0ZSBVbml2
ZXJzaXR5MQ8wDQYDVQQDDAZTdWIgQ0EwggEiMA0GCSqGSIb3DQEBAQUAA4IBDwAw
ggEKAoIBAQDUgyspWdL0Hzd4/nIRsG7wwNsujt9wC0NXkvroMqOZX+zy4t56gYTG
b3e2EhU+a4CD03Q/YzDVwVBnVDWIVARFUnrUC1mceCOjJ0kkEaBx50JQfb1xxD2q
PqLNO06hnrebAhIX5+I6JcydQ3zcO0+CnoJKjXcCSbYs4O2ivzjY4Skz8NXaw+OI
oHaLNnkUBDtYZUoevFKUjvIZkDjrz7Th1vx5Bp/MGfQVpCSk91kpPZTDu4fe1FjI
RBZzZ7B2flCqEzYoO0YFK+P2wvIG3RLxACeXLdb6mga0G8nlAfLUjgth/CKJexTI
sa3r/kpo0UBzALlkAflPeq8RF4gAVXyxAgMBAAGjggEbMIIBFzBtBggrBgEFBQcB
AQRhMF8wLgYIKwYBBQUHMAKGImh0dHA6Ly9zdWItY2EubG9jYWxob3N0L3N1Yi1j
YS5jcnQwLQYIKwYBBQUHMAGGIWh0dHA6Ly9vY3NwLnN1Yi1jYS5sb2NhbGhvc3Q6
OTA4MTAfBgNVHSMEGDAWgBQgTvCzHr+8HzVqxXCOoNhw1dFXRDAMBgNVHRMBAf8E
AjAAMDMGA1UdHwQsMCowKKAmoCSGImh0dHA6Ly9zdWItY2EubG9jYWxob3N0L3N1
Yi1jYS5jcmwwEwYDVR0lBAwwCgYIKwYBBQUHAwIwDgYDVR0PAQH/BAQDAgeAMB0G
A1UdDgQWBBQEZRR4n8Gvh0FMmn3rAzs5lFRWZTANBgkqhkiG9w0BAQsFAAOCAQEA
Y8ye6DCUNn0cS5kg/5RKcNgqgUfd/JTk2z+kHq3VpsQwYbIu2QrKg2GpvE2gLXHW
9AUAQxK82NSkHKclQl4YyNvCUidKZMs/t1AsxuXxBPsLQcsaA9eFPecksPRIxODo
F5kqTn+N4EKByNSAuscqjSZk0qoWTNgiaqU4FTGV12PT9fKfp3y0zdFn6ZtM5jFi
jzbMm9qbPaog0v4WKLQQZw0GZrP4k2IcNvD2rXc4AfOR+ib2GPhAUF1Yk1GYofk8
2OUxts2xFFFhjGlHEK0CXNrqXvM0pV3pGLnuq3GGUtD5eJKTdAw7Z8QZbn4GoRB5
dEPAAbExXS04rfTI1ijRUg==
-----END CERTIFICATE-----
