Certificate:
    Data:
        Version: 3 (0x2)
        Serial Number:
            90:4c:66:1b:96:18:b9:99:11:ea:e2:b7:9b:98:cf:dc
        Signature Algorithm: sha256WithRSAEncryption
        Issuer: C=US, O=Portland State University, CN=Sub CA
        Validity
            Not Before: Apr  5 20:37:21 2022 GMT
            Not After : Apr  5 20:37:21 2023 GMT
        Subject: C=US, O=Portland State University, CN=Sub CA
        Subject Public Key Info:
            Public Key Algorithm: rsaEncryption
                RSA Public-Key: (2048 bit)
                Modulus:
                    00:d5:f7:c9:9f:2a:c5:70:cc:f6:ba:c6:80:91:13:
                    50:22:5c:55:01:5a:df:aa:54:74:66:79:c5:ec:8b:
                    4a:6e:9d:b1:d1:4a:ee:97:f6:93:5f:00:a6:be:65:
                    89:a5:d7:04:41:82:74:20:0b:ee:78:ef:83:5f:7d:
                    22:89:0e:a0:8b:79:8f:b4:f4:7c:c5:36:61:20:50:
                    c6:3c:33:b3:95:2f:22:c0:dc:b3:cf:51:29:78:44:
                    8b:a1:5f:a2:24:d4:64:16:3a:1d:0a:69:9f:49:a1:
                    00:4b:7d:1b:c3:7e:eb:83:83:7b:c2:b9:4a:a3:f5:
                    0a:ad:9d:fd:cf:3e:ea:82:8d:75:7b:34:de:21:dd:
                    ed:e1:7d:cc:b2:5c:ef:5d:a7:03:ba:2f:e1:b0:a3:
                    46:1a:f4:95:6e:c1:26:db:66:83:74:42:68:3c:8c:
                    e0:03:6e:bb:ce:35:cf:62:5d:d6:e4:59:af:86:8b:
                    83:75:1a:74:92:47:56:3b:d0:54:ca:22:1c:60:0e:
                    6f:7c:1a:7e:d4:a0:88:4d:ac:d2:19:37:ba:06:a0:
                    46:90:ad:6a:19:c8:a2:34:90:07:b3:26:26:76:62:
                    02:90:8a:84:d7:a1:cc:7d:ae:9e:f6:13:16:95:2b:
                    07:07:06:08:c2:e0:33:6f:f7:3f:5c:f8:96:dd:dd:
                    60:5b
                Exponent: 65537 (0x10001)
        X509v3 extensions:
            Authority Information Access: 
                CA Issuers - URI:http://sub-ca.localhost/sub-ca.crt
                OCSP - URI:http://ocsp.sub-ca.localhost:9081

            X509v3 Authority Key Identifier: 
                keyid:20:4E:F0:B3:1E:BF:BC:1F:35:6A:C5:70:8E:A0:D8:70:D5:D1:57:44

            X509v3 Basic Constraints: critical
                CA:FALSE
            X509v3 CRL Distribution Points: 

                Full Name:
                  URI:http://sub-ca.localhost/sub-ca.crl

            X509v3 Extended Key Usage: 
                TLS Web Client Authentication
            X509v3 Key Usage: critical
                Digital Signature
            X509v3 Subject Key Identifier: 
                BB:FD:99:5E:3A:FC:29:4E:62:B2:39:77:02:3A:66:85:A9:87:86:94
    Signature Algorithm: sha256WithRSAEncryption
         18:eb:62:ae:3e:dc:3b:e2:08:81:39:cf:91:4d:71:2b:ec:6d:
         90:27:f8:3f:85:40:6c:01:a3:07:40:d5:83:6d:cd:6b:41:f3:
         c8:0e:bd:61:02:37:e9:e5:cc:02:98:90:a9:4f:40:48:84:bf:
         f4:d9:55:e3:a5:bb:b2:c9:46:ba:b9:4a:59:22:ea:58:e9:61:
         04:27:7e:3f:be:98:84:48:39:a9:6d:6a:74:31:c8:c4:d3:6b:
         f1:4b:84:26:62:d4:23:18:29:26:fa:47:7c:13:13:79:cf:d5:
         69:53:db:12:e7:95:93:dc:29:34:b4:9e:4d:af:fa:5c:3a:3a:
         ce:3b:ab:93:ee:c3:0d:1b:24:78:03:1e:cc:86:fd:56:44:18:
         bb:28:0a:ec:91:e5:c4:7f:2e:2e:43:4a:9b:ff:8b:45:e0:1b:
         19:82:36:05:c5:fb:c4:59:28:07:c5:a1:31:df:fd:70:e7:ec:
         b7:d5:d9:4c:ec:30:88:9d:ed:c3:dd:8a:23:16:52:2f:bf:96:
         c6:2d:13:0d:8c:97:ae:8d:05:1b:53:a5:da:d8:d0:b6:64:f5:
         60:b7:6e:a5:fc:45:a6:e6:99:8f:71:b3:e4:8b:5b:4a:a2:88:
         d5:c8:a7:40:72:72:28:6a:22:02:c6:d5:75:6f:07:4b:7f:79:
         ef:9d:0f:fb
-----BEGIN CERTIFICATE-----
MIIELDCCAxSgAwIBAgIRAJBMZhuWGLmZEerit5uYz9wwDQYJKoZIhvcNAQELBQAw
QjELMAkGA1UEBhMCVVMxIjAgBgNVBAoMGVBvcnRsYW5kIFN0YXRlIFVuaXZlcnNp
dHkxDzANBgNVBAMMBlN1YiBDQTAeFw0yMjA0MDUyMDM3MjFaFw0yMzA0MDUyMDM3
MjFaMEIxCzAJBgNVBAYTAlVTMSIwIAYDVQQKDBlQb3J0bGFuZCBTdGF0ZSBVbml2
ZXJzaXR5MQ8wDQYDVQQDDAZTdWIgQ0EwggEiMA0GCSqGSIb3DQEBAQUAA4IBDwAw
ggEKAoIBAQDV98mfKsVwzPa6xoCRE1AiXFUBWt+qVHRmecXsi0punbHRSu6X9pNf
AKa+ZYml1wRBgnQgC+5474NffSKJDqCLeY+09HzFNmEgUMY8M7OVLyLA3LPPUSl4
RIuhX6Ik1GQWOh0KaZ9JoQBLfRvDfuuDg3vCuUqj9Qqtnf3PPuqCjXV7NN4h3e3h
fcyyXO9dpwO6L+Gwo0Ya9JVuwSbbZoN0Qmg8jOADbrvONc9iXdbkWa+Gi4N1GnSS
R1Y70FTKIhxgDm98Gn7UoIhNrNIZN7oGoEaQrWoZyKI0kAezJiZ2YgKQioTXocx9
rp72ExaVKwcHBgjC4DNv9z9c+Jbd3WBbAgMBAAGjggEbMIIBFzBtBggrBgEFBQcB
AQRhMF8wLgYIKwYBBQUHMAKGImh0dHA6Ly9zdWItY2EubG9jYWxob3N0L3N1Yi1j
YS5jcnQwLQYIKwYBBQUHMAGGIWh0dHA6Ly9vY3NwLnN1Yi1jYS5sb2NhbGhvc3Q6
OTA4MTAfBgNVHSMEGDAWgBQgTvCzHr+8HzVqxXCOoNhw1dFXRDAMBgNVHRMBAf8E
AjAAMDMGA1UdHwQsMCowKKAmoCSGImh0dHA6Ly9zdWItY2EubG9jYWxob3N0L3N1
Yi1jYS5jcmwwEwYDVR0lBAwwCgYIKwYBBQUHAwIwDgYDVR0PAQH/BAQDAgeAMB0G
A1UdDgQWBBS7/ZleOvwpTmKyOXcCOmaFqYeGlDANBgkqhkiG9w0BAQsFAAOCAQEA
GOtirj7cO+IIgTnPkU1xK+xtkCf4P4VAbAGjB0DVg23Na0HzyA69YQI36eXMApiQ
qU9ASIS/9NlV46W7sslGurlKWSLqWOlhBCd+P76YhEg5qW1qdDHIxNNr8UuEJmLU
IxgpJvpHfBMTec/VaVPbEueVk9wpNLSeTa/6XDo6zjurk+7DDRskeAMezIb9VkQY
uygK7JHlxH8uLkNKm/+LReAbGYI2BcX7xFkoB8WhMd/9cOfst9XZTOwwiJ3tw92K
IxZSL7+Wxi0TDYyXro0FG1Ol2tjQtmT1YLdupfxFpuaZj3Gz5ItbSqKI1cinQHJy
KGoiAsbVdW8HS395750P+w==
-----END CERTIFICATE-----
