Certificate:
    Data:
        Version: 3 (0x2)
        Serial Number:
            90:4c:66:1b:96:18:b9:99:11:ea:e2:b7:9b:98:d0:20
        Signature Algorithm: sha256WithRSAEncryption
        Issuer: C=US, O=Portland State University, CN=Sub CA
        Validity
            Not Before: Apr  5 20:37:28 2022 GMT
            Not After : Apr  5 20:37:28 2023 GMT
        Subject: C=US, O=Portland State University, CN=Sub CA
        Subject Public Key Info:
            Public Key Algorithm: rsaEncryption
                RSA Public-Key: (2048 bit)
                Modulus:
                    00:bb:a4:e1:8c:48:ce:b4:40:85:e3:5b:c1:65:5a:
                    60:a9:e9:83:82:6f:bc:77:d1:89:81:fb:95:72:95:
                    ff:ec:1f:59:a8:27:ca:d2:bd:08:46:18:f1:ad:11:
                    5c:bb:9b:7e:eb:30:72:7e:e1:6b:89:6c:90:be:1e:
                    3c:25:36:78:12:40:f7:90:fb:02:cd:77:f8:4c:c8:
                    84:8a:d9:9b:87:93:8b:b1:04:54:36:14:44:02:68:
                    11:88:88:0a:3b:1c:92:e6:cb:13:bf:2a:cd:9c:ab:
                    07:ad:66:1b:a2:0e:62:f9:1b:05:30:1b:d1:df:e0:
                    81:a7:ea:4c:1c:3f:92:d4:fd:20:dd:75:40:1d:98:
                    30:af:8c:f5:00:f0:53:20:ac:9f:f4:da:79:9e:6a:
                    b6:4c:26:71:44:9c:60:f3:60:2a:68:19:dd:5a:cd:
                    61:04:af:1d:35:e6:0b:26:d8:f9:a9:41:cf:3d:b0:
                    c6:52:f2:58:5c:8b:7b:ce:ff:43:3e:ce:04:cd:e7:
                    40:e5:b9:4c:a2:7f:1a:e1:5c:1d:f3:51:f6:21:36:
                    29:5b:d3:9e:65:1b:6e:29:09:72:61:c3:3e:6a:18:
                    a9:b0:1b:b5:c0:f0:ec:9c:25:3b:7a:85:68:3c:14:
                    b1:57:4b:8f:a3:a8:e3:2a:10:ac:13:8a:e9:89:fa:
                    29:89
                Exponent: 65537 (0x10001)
        X509v3 extensions:
            Authority Information Access: 
                CA Issuers - URI:http://sub-ca.localhost/sub-ca.crt
                OCSP - URI:http://ocsp.sub-ca.localhost:9081

            X509v3 Authority Key Identifier: 
                keyid:20:4E:F0:B3:1E:BF:BC:1F:35:6A:C5:70:8E:A0:D8:70:D5:D1:57:44

            X509v3 Basic Constraints: critical
                CA:FALSE
            X509v3 CRL Distribution Points: 

                Full Name:
                  URI:http://sub-ca.localhost/sub-ca.crl

            X509v3 Extended Key Usage: 
                TLS Web Client Authentication
            X509v3 Key Usage: critical
                Digital Signature
            X509v3 Subject Key Identifier: 
                A8:26:2C:40:2B:72:81:83:AB:59:5E:82:96:F9:50:E3:15:D9:DE:60
    Signature Algorithm: sha256WithRSAEncryption
         40:58:9d:b9:62:7d:22:f8:c0:63:68:c9:ab:90:8e:2f:73:dd:
         9a:0c:86:57:5f:49:47:6b:f0:43:3d:1c:5e:1d:9b:ee:7a:32:
         aa:49:5e:6b:8d:3f:e9:da:bb:80:0f:8d:47:b3:f1:5f:42:78:
         00:a9:0c:b4:48:c0:9c:ad:b1:49:42:1a:eb:70:66:ad:64:67:
         70:e4:4e:f3:c1:9f:7f:f9:66:ac:66:1c:0f:7c:34:5c:18:ce:
         8d:86:19:cf:4a:6a:7f:64:ee:68:f7:ca:60:3f:66:fb:8b:39:
         ac:6f:2f:20:fe:43:54:0a:34:c1:3d:c4:28:aa:54:b4:b0:90:
         79:0b:40:b9:53:65:2c:f1:c3:c5:58:06:ef:3e:28:e5:41:cc:
         34:77:73:3a:a5:3d:ba:db:f3:be:2d:85:47:14:90:88:58:ae:
         cf:2a:a1:1f:35:19:2e:9b:75:c2:85:77:64:15:dd:94:de:c5:
         39:d7:09:54:e3:2c:8a:0c:fe:43:11:18:1e:8f:79:32:ce:d4:
         17:77:c4:f3:b4:9b:6f:b5:cd:1d:13:ab:6f:c9:4e:bd:cb:99:
         4b:95:ec:f3:fe:b6:6d:c3:cd:3f:31:a7:2a:da:f6:7c:95:fc:
         25:ef:0b:0a:58:43:ca:79:a5:b5:21:4b:71:8a:9e:43:4d:67:
         3a:40:37:70
-----BEGIN CERTIFICATE-----
MIIELDCCAxSgAwIBAgIRAJBMZhuWGLmZEerit5uY0CAwDQYJKoZIhvcNAQELBQAw
QjELMAkGA1UEBhMCVVMxIjAgBgNVBAoMGVBvcnRsYW5kIFN0YXRlIFVuaXZlcnNp
dHkxDzANBgNVBAMMBlN1YiBDQTAeFw0yMjA0MDUyMDM3MjhaFw0yMzA0MDUyMDM3
MjhaMEIxCzAJBgNVBAYTAlVTMSIwIAYDVQQKDBlQb3J0bGFuZCBTdGF0ZSBVbml2
ZXJzaXR5MQ8wDQYDVQQDDAZTdWIgQ0EwggEiMA0GCSqGSIb3DQEBAQUAA4IBDwAw
ggEKAoIBAQC7pOGMSM60QIXjW8FlWmCp6YOCb7x30YmB+5Vylf/sH1moJ8rSvQhG
GPGtEVy7m37rMHJ+4WuJbJC+HjwlNngSQPeQ+wLNd/hMyISK2ZuHk4uxBFQ2FEQC
aBGIiAo7HJLmyxO/Ks2cqwetZhuiDmL5GwUwG9Hf4IGn6kwcP5LU/SDddUAdmDCv
jPUA8FMgrJ/02nmearZMJnFEnGDzYCpoGd1azWEErx015gsm2PmpQc89sMZS8lhc
i3vO/0M+zgTN50DluUyifxrhXB3zUfYhNilb055lG24pCXJhwz5qGKmwG7XA8Oyc
JTt6hWg8FLFXS4+jqOMqEKwTiumJ+imJAgMBAAGjggEbMIIBFzBtBggrBgEFBQcB
AQRhMF8wLgYIKwYBBQUHMAKGImh0dHA6Ly9zdWItY2EubG9jYWxob3N0L3N1Yi1j
YS5jcnQwLQYIKwYBBQUHMAGGIWh0dHA6Ly9vY3NwLnN1Yi1jYS5sb2NhbGhvc3Q6
OTA4MTAfBgNVHSMEGDAWgBQgTvCzHr+8HzVqxXCOoNhw1dFXRDAMBgNVHRMBAf8E
AjAAMDMGA1UdHwQsMCowKKAmoCSGImh0dHA6Ly9zdWItY2EubG9jYWxob3N0L3N1
Yi1jYS5jcmwwEwYDVR0lBAwwCgYIKwYBBQUHAwIwDgYDVR0PAQH/BAQDAgeAMB0G
A1UdDgQWBBSoJixAK3KBg6tZXoKW+VDjFdneYDANBgkqhkiG9w0BAQsFAAOCAQEA
QFiduWJ9IvjAY2jJq5COL3PdmgyGV19JR2vwQz0cXh2b7noyqklea40/6dq7gA+N
R7PxX0J4AKkMtEjAnK2xSUIa63BmrWRncORO88Gff/lmrGYcD3w0XBjOjYYZz0pq
f2TuaPfKYD9m+4s5rG8vIP5DVAo0wT3EKKpUtLCQeQtAuVNlLPHDxVgG7z4o5UHM
NHdzOqU9utvzvi2FRxSQiFiuzyqhHzUZLpt1woV3ZBXdlN7FOdcJVOMsigz+QxEY
Ho95Ms7UF3fE87Sbb7XNHROrb8lOvcuZS5Xs8/62bcPNPzGnKtr2fJX8Je8LClhD
ynmltSFLcYqeQ01nOkA3cA==
-----END CERTIFICATE-----
