Certificate:
    Data:
        Version: 3 (0x2)
        Serial Number:
            90:4c:66:1b:96:18:b9:99:11:ea:e2:b7:9b:98:cf:c6
        Signature Algorithm: sha256WithRSAEncryption
        Issuer: C=US, O=Portland State University, CN=Sub CA
        Validity
            Not Before: Apr  5 20:37:19 2022 GMT
            Not After : Apr  5 20:37:19 2023 GMT
        Subject: C=US, O=Portland State University, CN=Sub CA
        Subject Public Key Info:
            Public Key Algorithm: rsaEncryption
                RSA Public-Key: (2048 bit)
                Modulus:
                    00:d8:70:84:5a:93:31:2c:16:93:e8:ee:20:ae:be:
                    46:54:5a:a6:3b:ef:41:a4:e7:d6:e1:9b:de:40:e2:
                    dc:46:e1:de:fc:77:89:f3:5c:56:1e:7c:eb:65:c1:
                    27:cf:f2:6b:b9:ad:4f:34:9f:0f:cf:1d:97:72:6b:
                    10:44:fc:7a:75:a0:45:d5:a7:2e:fb:0d:f6:0a:01:
                    ac:29:50:5d:07:cb:10:4b:64:9f:c1:c5:25:09:fb:
                    79:2e:c6:61:2e:5a:9e:d2:ca:8e:57:5c:ed:55:06:
                    f0:bd:6b:41:ea:39:af:d8:78:8a:6d:5c:8b:b3:9d:
                    b6:0f:83:ec:ef:f1:b0:40:0c:9d:3b:42:f9:25:91:
                    45:04:a2:a5:27:3b:7e:92:df:30:8f:4b:b3:9b:32:
                    9e:71:e7:c3:69:b3:3c:c8:2d:60:81:bd:e5:de:12:
                    a6:48:22:c3:5f:ba:49:83:72:b6:8f:26:d6:e8:4c:
                    4e:12:30:c1:64:f2:de:9f:1a:f2:23:eb:e7:d7:c9:
                    c0:2d:dd:c4:46:ee:63:42:82:85:14:c4:0d:ac:e6:
                    61:81:4e:c3:27:b0:96:7b:60:31:1c:8c:a2:68:a3:
                    c1:be:d3:c6:53:60:38:14:c3:35:8d:1f:38:50:32:
                    18:b0:8b:36:db:74:66:05:e4:c9:7d:cd:e2:b6:04:
                    9b:7b
                Exponent: 65537 (0x10001)
        X509v3 extensions:
            Authority Information Access: 
                CA Issuers - URI:http://sub-ca.localhost/sub-ca.crt
                OCSP - URI:http://ocsp.sub-ca.localhost:9081

            X509v3 Authority Key Identifier: 
                keyid:20:4E:F0:B3:1E:BF:BC:1F:35:6A:C5:70:8E:A0:D8:70:D5:D1:57:44

            X509v3 Basic Constraints: critical
                CA:FALSE
            X509v3 CRL Distribution Points: 

                Full Name:
                  URI:http://sub-ca.localhost/sub-ca.crl

            X509v3 Extended Key Usage: 
                TLS Web Client Authentication
            X509v3 Key Usage: critical
                Digital Signature
            X509v3 Subject Key Identifier: 
                7C:C9:5D:42:A6:C0:A2:98:BE:54:25:67:50:67:20:19:31:5B:84:F3
    Signature Algorithm: sha256WithRSAEncryption
         30:dd:03:11:9e:25:7e:86:bd:25:62:df:2d:d8:b9:0e:b0:ab:
         51:86:0d:32:4e:6e:58:31:98:a4:a6:c5:c7:3a:a4:f8:6b:5f:
         6c:68:c5:a7:3f:9a:6c:73:dd:bd:58:f6:42:f3:be:53:54:95:
         39:c5:6a:a1:c6:0c:53:2d:eb:88:1f:11:47:1a:93:c5:f5:78:
         61:e8:c3:13:dc:51:47:f6:9e:bf:79:8c:c3:9c:5e:17:3a:1c:
         a4:cb:db:2b:12:92:b0:e2:c7:ab:dd:f0:d1:b9:9d:7d:64:7a:
         c2:83:b0:ee:41:f2:fb:92:ee:14:ae:0b:77:9f:23:20:aa:af:
         64:3a:83:d1:36:9a:d8:00:20:b8:1c:95:53:b7:06:58:ca:f1:
         50:63:3e:c0:4a:61:da:bf:14:c1:e9:97:3b:9f:bc:5e:c3:12:
         10:6f:6a:cb:ca:62:fe:ab:6a:00:7d:da:25:3a:7b:e7:93:63:
         91:6f:0d:0c:88:fb:b8:2b:e1:af:eb:69:45:7a:04:9d:90:4f:
         20:71:b7:c1:2a:c5:a8:f9:7b:a9:24:d3:c8:cf:f2:91:25:84:
         ee:ad:61:ab:71:db:2f:01:9b:1c:1f:77:11:22:d5:1e:65:39:
         2b:9a:af:c3:3c:a1:ae:03:b5:ad:5d:60:cf:56:64:0a:b6:f4:
         f4:06:47:dd
-----BEGIN CERTIFICATE-----
MIIELDCCAxSgAwIBAgIRAJBMZhuWGLmZEerit5uYz8YwDQYJKoZIhvcNAQELBQAw
QjELMAkGA1UEBhMCVVMxIjAgBgNVBAoMGVBvcnRsYW5kIFN0YXRlIFVuaXZlcnNp
dHkxDzANBgNVBAMMBlN1YiBDQTAeFw0yMjA0MDUyMDM3MTlaFw0yMzA0MDUyMDM3
MTlaMEIxCzAJBgNVBAYTAlVTMSIwIAYDVQQKDBlQb3J0bGFuZCBTdGF0ZSBVbml2
ZXJzaXR5MQ8wDQYDVQQDDAZTdWIgQ0EwggEiMA0GCSqGSIb3DQEBAQUAA4IBDwAw
ggEKAoIBAQDYcIRakzEsFpPo7iCuvkZUWqY770Gk59bhm95A4txG4d78d4nzXFYe
fOtlwSfP8mu5rU80nw/PHZdyaxBE/Hp1oEXVpy77DfYKAawpUF0HyxBLZJ/BxSUJ
+3kuxmEuWp7Syo5XXO1VBvC9a0HqOa/YeIptXIuznbYPg+zv8bBADJ07QvklkUUE
oqUnO36S3zCPS7ObMp5x58NpszzILWCBveXeEqZIIsNfukmDcraPJtboTE4SMMFk
8t6fGvIj6+fXycAt3cRG7mNCgoUUxA2s5mGBTsMnsJZ7YDEcjKJoo8G+08ZTYDgU
wzWNHzhQMhiwizbbdGYF5Ml9zeK2BJt7AgMBAAGjggEbMIIBFzBtBggrBgEFBQcB
AQRhMF8wLgYIKwYBBQUHMAKGImh0dHA6Ly9zdWItY2EubG9jYWxob3N0L3N1Yi1j
YS5jcnQwLQYIKwYBBQUHMAGGIWh0dHA6Ly9vY3NwLnN1Yi1jYS5sb2NhbGhvc3Q6
OTA4MTAfBgNVHSMEGDAWgBQgTvCzHr+8HzVqxXCOoNhw1dFXRDAMBgNVHRMBAf8E
AjAAMDMGA1UdHwQsMCowKKAmoCSGImh0dHA6Ly9zdWItY2EubG9jYWxob3N0L3N1
Yi1jYS5jcmwwEwYDVR0lBAwwCgYIKwYBBQUHAwIwDgYDVR0PAQH/BAQDAgeAMB0G
A1UdDgQWBBR8yV1CpsCimL5UJWdQZyAZMVuE8zANBgkqhkiG9w0BAQsFAAOCAQEA
MN0DEZ4lfoa9JWLfLdi5DrCrUYYNMk5uWDGYpKbFxzqk+GtfbGjFpz+abHPdvVj2
QvO+U1SVOcVqocYMUy3riB8RRxqTxfV4YejDE9xRR/aev3mMw5xeFzocpMvbKxKS
sOLHq93w0bmdfWR6woOw7kHy+5LuFK4Ld58jIKqvZDqD0Taa2AAguByVU7cGWMrx
UGM+wEph2r8UwemXO5+8XsMSEG9qy8pi/qtqAH3aJTp755NjkW8NDIj7uCvhr+tp
RXoEnZBPIHG3wSrFqPl7qSTTyM/ykSWE7q1hq3HbLwGbHB93ESLVHmU5K5qvwzyh
rgO1rV1gz1ZkCrb09AZH3Q==
-----END CERTIFICATE-----
