Certificate:
    Data:
        Version: 3 (0x2)
        Serial Number:
            90:4c:66:1b:96:18:b9:99:11:ea:e2:b7:9b:98:cf:d4
        Signature Algorithm: sha256WithRSAEncryption
        Issuer: C=US, O=Portland State University, CN=Sub CA
        Validity
            Not Before: Apr  5 20:37:20 2022 GMT
            Not After : Apr  5 20:37:20 2023 GMT
        Subject: C=US, O=Portland State University, CN=Sub CA
        Subject Public Key Info:
            Public Key Algorithm: rsaEncryption
                RSA Public-Key: (2048 bit)
                Modulus:
                    00:e7:d6:50:f0:99:32:ff:86:78:6b:c9:a4:42:05:
                    07:44:1a:a2:b4:40:50:64:16:ba:80:ef:63:34:46:
                    7e:44:df:c5:f6:b9:0d:51:4e:ed:3b:9f:4f:99:59:
                    91:02:53:fa:a1:4c:ee:4d:cd:c6:a7:e9:20:26:66:
                    8c:4f:6e:07:86:e8:73:57:a2:b6:47:ec:ab:81:31:
                    68:c5:15:57:88:02:c7:72:96:8e:a5:be:a2:91:2f:
                    a1:52:9e:1b:d9:df:9b:2f:a5:7f:7b:f0:07:a1:e8:
                    e3:4e:66:0f:89:f6:cd:5b:32:59:6f:26:d2:62:cc:
                    90:be:08:41:3d:95:64:be:5a:8a:b7:43:8f:7d:11:
                    42:77:4f:ed:1e:6c:b5:cc:b5:db:1b:5b:aa:e6:c2:
                    c6:2e:25:1d:e3:6a:f4:e3:70:7f:7a:5a:17:30:f6:
                    45:d5:8e:8d:a9:7a:08:cb:8d:e3:d9:6d:98:0c:1c:
                    d2:f8:c6:c4:bb:11:1a:64:de:e3:da:23:27:da:ae:
                    a7:df:a3:d5:b1:4e:62:58:86:68:fb:00:ed:4e:e6:
                    73:c0:56:16:8b:f6:86:e4:9f:a3:72:0b:7b:0d:fa:
                    24:76:85:6e:fe:ae:a5:ad:fa:e3:67:35:ad:d8:70:
                    17:fe:ad:66:03:35:bd:f4:bc:5c:5b:51:23:2c:25:
                    e4:95
                Exponent: 65537 (0x10001)
        X509v3 extensions:
            Authority Information Access: 
                CA Issuers - URI:http://sub-ca.localhost/sub-ca.crt
                OCSP - URI:http://ocsp.sub-ca.localhost:9081

            X509v3 Authority Key Identifier: 
                keyid:20:4E:F0:B3:1E:BF:BC:1F:35:6A:C5:70:8E:A0:D8:70:D5:D1:57:44

            X509v3 Basic Constraints: critical
                CA:FALSE
            X509v3 CRL Distribution Points: 

                Full Name:
                  URI:http://sub-ca.localhost/sub-ca.crl

            X509v3 Extended Key Usage: 
                TLS Web Client Authentication
            X509v3 Key Usage: critical
                Digital Signature
            X509v3 Subject Key Identifier: 
                D7:04:91:2B:1C:FA:37:F4:0B:38:AE:9C:E9:4A:4E:29:6C:D4:45:C5
    Signature Algorithm: sha256WithRSAEncryption
         23:99:2d:f7:8b:67:94:33:bb:16:c2:5a:1a:22:a8:9a:71:2e:
         ff:60:96:4d:ef:7e:bd:f6:84:07:67:1b:18:09:f1:fe:df:c1:
         2a:b1:bf:da:7d:ef:19:0b:04:4c:40:c4:b0:e8:cf:1e:84:fd:
         a8:e7:57:db:b3:9b:dc:d3:c5:82:6f:b1:9c:0b:77:6d:59:32:
         62:9e:83:d2:bf:fc:d9:96:25:10:1e:07:2e:8d:fc:44:47:e6:
         c8:1e:1f:c2:dc:86:2a:12:f5:51:03:b0:1b:44:c7:d1:93:2b:
         d1:aa:1a:14:ca:61:65:90:19:2f:ed:31:17:c4:e2:69:56:4b:
         3b:dd:41:a3:c8:b5:06:f3:ea:e0:5c:4e:8a:61:c1:c8:59:58:
         4a:5a:48:25:f0:c0:34:6a:a2:be:35:c9:68:db:9d:44:14:ad:
         7f:79:e6:e5:6b:1f:36:fc:02:18:86:c6:b0:10:8c:8c:e3:5a:
         03:89:6c:93:4f:bc:b4:1a:66:5a:31:ce:7d:35:f0:65:90:95:
         26:a3:b5:20:99:0f:38:a3:00:33:eb:88:ba:23:12:7f:e1:3e:
         a1:be:1b:65:55:a8:4a:17:61:79:e2:1a:38:77:9d:61:67:da:
         d0:6e:cd:97:d1:72:22:53:9e:05:be:33:90:d1:23:a8:52:91:
         f3:00:c2:e2
-----BEGIN CERTIFICATE-----
MIIELDCCAxSgAwIBAgIRAJBMZhuWGLmZEerit5uYz9QwDQYJKoZIhvcNAQELBQAw
QjELMAkGA1UEBhMCVVMxIjAgBgNVBAoMGVBvcnRsYW5kIFN0YXRlIFVuaXZlcnNp
dHkxDzANBgNVBAMMBlN1YiBDQTAeFw0yMjA0MDUyMDM3MjBaFw0yMzA0MDUyMDM3
MjBaMEIxCzAJBgNVBAYTAlVTMSIwIAYDVQQKDBlQb3J0bGFuZCBTdGF0ZSBVbml2
ZXJzaXR5MQ8wDQYDVQQDDAZTdWIgQ0EwggEiMA0GCSqGSIb3DQEBAQUAA4IBDwAw
ggEKAoIBAQDn1lDwmTL/hnhryaRCBQdEGqK0QFBkFrqA72M0Rn5E38X2uQ1RTu07
n0+ZWZECU/qhTO5Nzcan6SAmZoxPbgeG6HNXorZH7KuBMWjFFVeIAsdylo6lvqKR
L6FSnhvZ35svpX978Aeh6ONOZg+J9s1bMllvJtJizJC+CEE9lWS+Woq3Q499EUJ3
T+0ebLXMtdsbW6rmwsYuJR3javTjcH96Whcw9kXVjo2pegjLjePZbZgMHNL4xsS7
ERpk3uPaIyfarqffo9WxTmJYhmj7AO1O5nPAVhaL9obkn6NyC3sN+iR2hW7+rqWt
+uNnNa3YcBf+rWYDNb30vFxbUSMsJeSVAgMBAAGjggEbMIIBFzBtBggrBgEFBQcB
AQRhMF8wLgYIKwYBBQUHMAKGImh0dHA6Ly9zdWItY2EubG9jYWxob3N0L3N1Yi1j
YS5jcnQwLQYIKwYBBQUHMAGGIWh0dHA6Ly9vY3NwLnN1Yi1jYS5sb2NhbGhvc3Q6
OTA4MTAfBgNVHSMEGDAWgBQgTvCzHr+8HzVqxXCOoNhw1dFXRDAMBgNVHRMBAf8E
AjAAMDMGA1UdHwQsMCowKKAmoCSGImh0dHA6Ly9zdWItY2EubG9jYWxob3N0L3N1
Yi1jYS5jcmwwEwYDVR0lBAwwCgYIKwYBBQUHAwIwDgYDVR0PAQH/BAQDAgeAMB0G
A1UdDgQWBBTXBJErHPo39As4rpzpSk4pbNRFxTANBgkqhkiG9w0BAQsFAAOCAQEA
I5kt94tnlDO7FsJaGiKomnEu/2CWTe9+vfaEB2cbGAnx/t/BKrG/2n3vGQsETEDE
sOjPHoT9qOdX27Ob3NPFgm+xnAt3bVkyYp6D0r/82ZYlEB4HLo38REfmyB4fwtyG
KhL1UQOwG0TH0ZMr0aoaFMphZZAZL+0xF8TiaVZLO91Bo8i1BvPq4FxOimHByFlY
SlpIJfDANGqivjXJaNudRBStf3nm5WsfNvwCGIbGsBCMjONaA4lsk0+8tBpmWjHO
fTXwZZCVJqO1IJkPOKMAM+uIuiMSf+E+ob4bZVWoShdheeIaOHedYWfa0G7Nl9Fy
IlOeBb4zkNEjqFKR8wDC4g==
-----END CERTIFICATE-----
