Certificate:
    Data:
        Version: 3 (0x2)
        Serial Number:
            90:4c:66:1b:96:18:b9:99:11:ea:e2:b7:9b:98:cf:f5
        Signature Algorithm: sha256WithRSAEncryption
        Issuer: C=US, O=Portland State University, CN=Sub CA
        Validity
            Not Before: Apr  5 20:37:24 2022 GMT
            Not After : Apr  5 20:37:24 2023 GMT
        Subject: C=US, O=Portland State University, CN=Sub CA
        Subject Public Key Info:
            Public Key Algorithm: rsaEncryption
                RSA Public-Key: (2048 bit)
                Modulus:
                    00:b4:24:f8:42:f4:c8:19:e3:64:4e:43:ca:dc:48:
                    d0:d3:8d:72:50:6d:7a:fc:e7:fa:6e:a9:35:85:35:
                    63:bc:b7:00:93:af:9f:40:2e:f4:e4:2c:54:33:bd:
                    b8:21:7b:c6:ba:e5:62:aa:de:99:b3:6c:c6:b0:9c:
                    8a:8f:e3:92:10:6f:6b:2a:22:0f:95:87:1f:32:16:
                    74:02:d9:aa:91:d9:97:5c:bf:ee:a0:19:17:47:c8:
                    47:d2:50:59:33:29:61:d1:ea:be:41:71:0b:df:3f:
                    4c:c1:a2:f8:7e:f9:98:45:03:70:1a:e4:9b:d7:f3:
                    86:01:72:cc:f8:e6:62:bf:d7:f8:03:0f:0f:07:90:
                    e0:a3:d5:65:83:8c:6b:80:1b:f1:af:d9:38:f4:b3:
                    63:32:9d:72:3c:14:fd:13:1c:7d:d7:2d:32:a6:31:
                    24:54:55:81:57:53:6d:f4:34:55:bd:a3:30:4f:45:
                    3c:a9:2b:01:5b:7f:74:03:a7:b8:76:ce:6e:c2:ac:
                    97:b1:88:47:26:7a:c6:4a:78:26:de:6d:19:cf:f2:
                    a1:06:9a:64:0e:c6:05:85:a8:99:80:fd:b1:bb:38:
                    9f:10:fb:28:14:fe:c7:1b:9b:25:72:50:9f:99:a5:
                    20:c7:b8:f4:70:55:a7:d9:39:86:19:c6:61:e5:21:
                    96:09
                Exponent: 65537 (0x10001)
        X509v3 extensions:
            Authority Information Access: 
                CA Issuers - URI:http://sub-ca.localhost/sub-ca.crt
                OCSP - URI:http://ocsp.sub-ca.localhost:9081

            X509v3 Authority Key Identifier: 
                keyid:20:4E:F0:B3:1E:BF:BC:1F:35:6A:C5:70:8E:A0:D8:70:D5:D1:57:44

            X509v3 Basic Constraints: critical
                CA:FALSE
            X509v3 CRL Distribution Points: 

                Full Name:
                  URI:http://sub-ca.localhost/sub-ca.crl

            X509v3 Extended Key Usage: 
                TLS Web Client Authentication
            X509v3 Key Usage: critical
                Digital Signature
            X509v3 Subject Key Identifier: 
                08:8F:BA:0B:74:1E:0F:8C:F5:C5:76:A3:21:D6:6F:C4:45:6A:D4:84
    Signature Algorithm: sha256WithRSAEncryption
         62:6e:2f:cd:87:ab:e0:c5:2f:13:62:4e:85:83:4c:42:9a:37:
         a8:2c:bc:83:c6:30:6a:4a:4a:b4:18:52:2e:e1:87:37:41:eb:
         97:92:90:29:ae:fe:fc:5c:1d:f1:b9:3f:fe:64:ab:65:bd:40:
         b3:c1:43:b0:df:2b:b3:dd:32:aa:0a:96:0a:3b:45:e6:ef:10:
         da:7a:2b:1a:0c:9c:46:52:65:30:a4:69:4d:a0:ab:a0:80:70:
         cb:bf:59:af:57:73:2d:aa:66:42:2f:f0:2f:b4:9d:15:b3:4a:
         70:d2:1d:e8:d4:23:09:90:a1:69:6f:09:a4:02:37:b5:76:d6:
         34:ea:ed:8f:86:ea:fc:37:ad:6c:a5:ec:bc:b4:e2:30:1c:4b:
         3a:06:b8:af:6a:24:63:04:c3:76:15:f9:e7:72:e8:ad:29:af:
         81:65:35:58:77:4f:dd:51:ff:77:c4:f9:c6:5c:e1:33:d7:6e:
         70:44:0a:8d:c1:a2:19:67:ae:9e:4c:44:34:60:7e:eb:a7:cf:
         0d:b2:7e:a2:b6:f2:dc:9c:bb:f7:fb:c7:2a:ba:77:70:34:1c:
         c3:90:8f:2b:3c:05:26:69:99:d7:bb:73:20:45:81:95:55:bd:
         77:7d:c9:77:48:52:70:01:87:54:bd:66:a3:64:6f:2b:96:67:
         74:41:8e:42
-----BEGIN CERTIFICATE-----
MIIELDCCAxSgAwIBAgIRAJBMZhuWGLmZEerit5uYz/UwDQYJKoZIhvcNAQELBQAw
QjELMAkGA1UEBhMCVVMxIjAgBgNVBAoMGVBvcnRsYW5kIFN0YXRlIFVuaXZlcnNp
dHkxDzANBgNVBAMMBlN1YiBDQTAeFw0yMjA0MDUyMDM3MjRaFw0yMzA0MDUyMDM3
MjRaMEIxCzAJBgNVBAYTAlVTMSIwIAYDVQQKDBlQb3J0bGFuZCBTdGF0ZSBVbml2
ZXJzaXR5MQ8wDQYDVQQDDAZTdWIgQ0EwggEiMA0GCSqGSIb3DQEBAQUAA4IBDwAw
ggEKAoIBAQC0JPhC9MgZ42ROQ8rcSNDTjXJQbXr85/puqTWFNWO8twCTr59ALvTk
LFQzvbghe8a65WKq3pmzbMawnIqP45IQb2sqIg+Vhx8yFnQC2aqR2Zdcv+6gGRdH
yEfSUFkzKWHR6r5BcQvfP0zBovh++ZhFA3Aa5JvX84YBcsz45mK/1/gDDw8HkOCj
1WWDjGuAG/Gv2Tj0s2MynXI8FP0THH3XLTKmMSRUVYFXU230NFW9ozBPRTypKwFb
f3QDp7h2zm7CrJexiEcmesZKeCbebRnP8qEGmmQOxgWFqJmA/bG7OJ8Q+ygU/scb
myVyUJ+ZpSDHuPRwVafZOYYZxmHlIZYJAgMBAAGjggEbMIIBFzBtBggrBgEFBQcB
AQRhMF8wLgYIKwYBBQUHMAKGImh0dHA6Ly9zdWItY2EubG9jYWxob3N0L3N1Yi1j
YS5jcnQwLQYIKwYBBQUHMAGGIWh0dHA6Ly9vY3NwLnN1Yi1jYS5sb2NhbGhvc3Q6
OTA4MTAfBgNVHSMEGDAWgBQgTvCzHr+8HzVqxXCOoNhw1dFXRDAMBgNVHRMBAf8E
AjAAMDMGA1UdHwQsMCowKKAmoCSGImh0dHA6Ly9zdWItY2EubG9jYWxob3N0L3N1
Yi1jYS5jcmwwEwYDVR0lBAwwCgYIKwYBBQUHAwIwDgYDVR0PAQH/BAQDAgeAMB0G
A1UdDgQWBBQIj7oLdB4PjPXFdqMh1m/ERWrUhDANBgkqhkiG9w0BAQsFAAOCAQEA
Ym4vzYer4MUvE2JOhYNMQpo3qCy8g8YwakpKtBhSLuGHN0Hrl5KQKa7+/Fwd8bk/
/mSrZb1As8FDsN8rs90yqgqWCjtF5u8Q2norGgycRlJlMKRpTaCroIBwy79Zr1dz
LapmQi/wL7SdFbNKcNId6NQjCZChaW8JpAI3tXbWNOrtj4bq/DetbKXsvLTiMBxL
Oga4r2okYwTDdhX553LorSmvgWU1WHdP3VH/d8T5xlzhM9ducEQKjcGiGWeunkxE
NGB+66fPDbJ+orby3Jy79/vHKrp3cDQcw5CPKzwFJmmZ17tzIEWBlVW9d33Jd0hS
cAGHVL1mo2RvK5ZndEGOQg==
-----END CERTIFICATE-----
