Certificate:
    Data:
        Version: 3 (0x2)
        Serial Number:
            90:4c:66:1b:96:18:b9:99:11:ea:e2:b7:9b:98:cf:f1
        Signature Algorithm: sha256WithRSAEncryption
        Issuer: C=US, O=Portland State University, CN=Sub CA
        Validity
            Not Before: Apr  5 20:37:24 2022 GMT
            Not After : Apr  5 20:37:24 2023 GMT
        Subject: C=US, O=Portland State University, CN=Sub CA
        Subject Public Key Info:
            Public Key Algorithm: rsaEncryption
                RSA Public-Key: (2048 bit)
                Modulus:
                    00:dc:ec:e1:89:58:bb:f8:5b:06:1f:01:11:1c:45:
                    0f:2e:62:30:f7:a7:68:ca:8f:f7:1c:26:13:c5:08:
                    93:1c:38:82:7a:b2:4e:9a:52:40:15:12:90:ec:2d:
                    7f:b3:7b:02:1c:6d:07:16:c7:c1:b6:a4:39:f4:87:
                    f6:0e:fe:22:bf:98:0a:33:eb:7d:3f:3e:43:84:89:
                    cf:36:27:e3:68:bf:c9:8d:6f:0f:5c:4f:1d:bb:b4:
                    a5:94:8f:88:56:28:07:bb:60:e1:2f:7e:88:ef:00:
                    3c:54:ce:10:ac:23:09:7d:6a:ee:a5:83:7c:dd:63:
                    03:f1:a7:d4:84:48:4c:f3:d2:7f:c6:3c:82:3e:ac:
                    5a:16:de:af:67:3e:2c:36:03:34:84:30:53:64:98:
                    f4:98:95:0a:c4:8e:00:03:0f:fb:5c:31:d9:57:61:
                    39:97:0e:2f:c2:2d:6b:18:de:a7:40:da:5b:27:0a:
                    84:0e:5b:ea:86:10:34:7a:55:39:ed:ae:a4:37:15:
                    77:33:7a:92:ee:87:fd:09:6c:bc:99:36:ca:f3:32:
                    a6:10:e4:79:54:26:20:98:7f:43:0b:d7:7c:81:00:
                    5e:d0:91:0f:c7:26:2f:05:50:79:b0:4a:ac:65:86:
                    ae:d3:c7:a0:f8:75:c3:e9:47:50:0f:e0:32:e9:74:
                    eb:91
                Exponent: 65537 (0x10001)
        X509v3 extensions:
            Authority Information Access: 
                CA Issuers - URI:http://sub-ca.localhost/sub-ca.crt
                OCSP - URI:http://ocsp.sub-ca.localhost:9081

            X509v3 Authority Key Identifier: 
                keyid:20:4E:F0:B3:1E:BF:BC:1F:35:6A:C5:70:8E:A0:D8:70:D5:D1:57:44

            X509v3 Basic Constraints: critical
                CA:FALSE
            X509v3 CRL Distribution Points: 

                Full Name:
                  URI:http://sub-ca.localhost/sub-ca.crl

            X509v3 Extended Key Usage: 
                TLS Web Client Authentication
            X509v3 Key Usage: critical
                Digital Signature
            X509v3 Subject Key Identifier: 
                25:69:7A:D6:82:67:2C:F7:92:27:02:E1:2E:D4:21:A1:3A:13:CC:BC
    Signature Algorithm: sha256WithRSAEncryption
         76:c7:8d:82:e3:c3:eb:e3:6d:12:f4:84:c2:48:f5:0d:a6:2a:
         bd:e4:de:9f:c3:55:45:01:ab:77:28:c4:fe:5c:c8:b9:74:3a:
         07:27:2f:9e:d9:74:0e:e3:dd:9a:86:54:66:15:1d:7d:6c:d1:
         9b:7d:92:ce:7a:e7:51:f6:3c:ee:4d:e0:55:51:85:10:04:4e:
         c1:37:61:90:f6:1b:6a:20:e9:4e:a1:fe:81:c0:c2:28:80:3b:
         fb:2b:9c:b2:9d:a2:09:43:06:a5:0d:59:7e:a1:03:b2:2b:34:
         e2:9e:ad:f6:c5:ac:89:b8:3f:33:ae:6e:f3:bd:8a:ae:26:20:
         5d:4a:5a:ca:df:f6:9e:76:25:ac:1e:28:74:41:35:b1:a7:b9:
         08:51:35:32:3b:83:b9:ad:c6:99:3c:25:80:a5:bb:bc:a9:e0:
         c6:61:8a:08:ce:fb:15:45:9c:bf:00:7a:6a:7c:77:be:11:a0:
         14:c4:1c:19:15:17:0c:b5:bb:b0:5f:4d:a3:6a:ce:64:bd:4f:
         0f:ab:c4:82:1c:c8:b6:a0:08:41:3e:cd:cb:ae:42:06:45:63:
         3f:9f:bf:f5:f5:d2:1b:05:dd:44:f4:4b:84:2f:f7:9c:fd:a6:
         ee:ca:99:a3:b4:ab:59:e0:e6:d6:67:6b:44:2c:d7:5b:28:13:
         92:86:22:7d
-----BEGIN CERTIFICATE-----
MIIELDCCAxSgAwIBAgIRAJBMZhuWGLmZEerit5uYz/EwDQYJKoZIhvcNAQELBQAw
QjELMAkGA1UEBhMCVVMxIjAgBgNVBAoMGVBvcnRsYW5kIFN0YXRlIFVuaXZlcnNp
dHkxDzANBgNVBAMMBlN1YiBDQTAeFw0yMjA0MDUyMDM3MjRaFw0yMzA0MDUyMDM3
MjRaMEIxCzAJBgNVBAYTAlVTMSIwIAYDVQQKDBlQb3J0bGFuZCBTdGF0ZSBVbml2
ZXJzaXR5MQ8wDQYDVQQDDAZTdWIgQ0EwggEiMA0GCSqGSIb3DQEBAQUAA4IBDwAw
ggEKAoIBAQDc7OGJWLv4WwYfAREcRQ8uYjD3p2jKj/ccJhPFCJMcOIJ6sk6aUkAV
EpDsLX+zewIcbQcWx8G2pDn0h/YO/iK/mAoz630/PkOEic82J+Nov8mNbw9cTx27
tKWUj4hWKAe7YOEvfojvADxUzhCsIwl9au6lg3zdYwPxp9SESEzz0n/GPII+rFoW
3q9nPiw2AzSEMFNkmPSYlQrEjgADD/tcMdlXYTmXDi/CLWsY3qdA2lsnCoQOW+qG
EDR6VTntrqQ3FXczepLuh/0JbLyZNsrzMqYQ5HlUJiCYf0ML13yBAF7QkQ/HJi8F
UHmwSqxlhq7Tx6D4dcPpR1AP4DLpdOuRAgMBAAGjggEbMIIBFzBtBggrBgEFBQcB
AQRhMF8wLgYIKwYBBQUHMAKGImh0dHA6Ly9zdWItY2EubG9jYWxob3N0L3N1Yi1j
YS5jcnQwLQYIKwYBBQUHMAGGIWh0dHA6Ly9vY3NwLnN1Yi1jYS5sb2NhbGhvc3Q6
OTA4MTAfBgNVHSMEGDAWgBQgTvCzHr+8HzVqxXCOoNhw1dFXRDAMBgNVHRMBAf8E
AjAAMDMGA1UdHwQsMCowKKAmoCSGImh0dHA6Ly9zdWItY2EubG9jYWxob3N0L3N1
Yi1jYS5jcmwwEwYDVR0lBAwwCgYIKwYBBQUHAwIwDgYDVR0PAQH/BAQDAgeAMB0G
A1UdDgQWBBQlaXrWgmcs95InAuEu1CGhOhPMvDANBgkqhkiG9w0BAQsFAAOCAQEA
dseNguPD6+NtEvSEwkj1DaYqveTen8NVRQGrdyjE/lzIuXQ6Bycvntl0DuPdmoZU
ZhUdfWzRm32SznrnUfY87k3gVVGFEAROwTdhkPYbaiDpTqH+gcDCKIA7+yucsp2i
CUMGpQ1ZfqEDsis04p6t9sWsibg/M65u872KriYgXUpayt/2nnYlrB4odEE1sae5
CFE1MjuDua3GmTwlgKW7vKngxmGKCM77FUWcvwB6anx3vhGgFMQcGRUXDLW7sF9N
o2rOZL1PD6vEghzItqAIQT7Ny65CBkVjP5+/9fXSGwXdRPRLhC/3nP2m7sqZo7Sr
WeDm1mdrRCzXWygTkoYifQ==
-----END CERTIFICATE-----
