Certificate:
    Data:
        Version: 3 (0x2)
        Serial Number:
            90:4c:66:1b:96:18:b9:99:11:ea:e2:b7:9b:98:cf:d3
        Signature Algorithm: sha256WithRSAEncryption
        Issuer: C=US, O=Portland State University, CN=Sub CA
        Validity
            Not Before: Apr  5 20:37:20 2022 GMT
            Not After : Apr  5 20:37:20 2023 GMT
        Subject: C=US, O=Portland State University, CN=Sub CA
        Subject Public Key Info:
            Public Key Algorithm: rsaEncryption
                RSA Public-Key: (2048 bit)
                Modulus:
                    00:aa:55:26:25:04:9a:a8:be:fa:5b:d2:44:0c:04:
                    71:6c:47:c4:44:a9:23:47:65:20:25:fa:9d:78:c1:
                    21:c9:b1:a0:95:e3:92:0b:e3:10:b3:3f:b3:1c:7d:
                    2f:b7:5e:08:c1:7c:a7:ca:c4:84:9d:4e:c9:1e:a5:
                    4b:49:d3:b0:84:25:5a:f7:2a:b9:c1:8f:a9:c4:0c:
                    98:86:20:ba:48:60:b1:af:7b:0a:88:27:0c:52:04:
                    1e:80:ee:53:ef:fd:79:4d:c2:ac:6b:a3:20:22:df:
                    8b:b9:d3:b8:5f:00:d3:e7:89:9a:ad:08:b4:1a:ce:
                    99:69:9e:47:2d:76:e5:d5:e8:e1:51:0e:70:19:d9:
                    4c:11:5a:c1:49:2e:72:df:6f:88:05:ec:4a:7f:80:
                    c4:f6:ab:93:88:bc:3f:7e:7d:7e:d6:ca:5d:87:15:
                    14:20:b8:b2:9e:ac:31:f4:2d:cb:2e:7f:79:2f:d3:
                    67:c9:f5:57:77:16:b0:a8:40:79:73:bf:63:02:90:
                    8c:02:a1:c1:50:ad:62:e6:8b:57:2d:db:a9:fa:1d:
                    01:0a:17:4a:da:7f:6d:1d:83:36:42:32:1f:9b:1f:
                    ad:90:88:ad:a5:c3:9d:43:f7:bd:96:9b:78:c6:64:
                    e6:6b:2a:00:ca:42:f3:3e:b1:90:52:3e:df:14:ed:
                    c6:3d
                Exponent: 65537 (0x10001)
        X509v3 extensions:
            Authority Information Access: 
                CA Issuers - URI:http://sub-ca.localhost/sub-ca.crt
                OCSP - URI:http://ocsp.sub-ca.localhost:9081

            X509v3 Authority Key Identifier: 
                keyid:20:4E:F0:B3:1E:BF:BC:1F:35:6A:C5:70:8E:A0:D8:70:D5:D1:57:44

            X509v3 Basic Constraints: critical
                CA:FALSE
            X509v3 CRL Distribution Points: 

                Full Name:
                  URI:http://sub-ca.localhost/sub-ca.crl

            X509v3 Extended Key Usage: 
                TLS Web Client Authentication
            X509v3 Key Usage: critical
                Digital Signature
            X509v3 Subject Key Identifier: 
                D3:53:C6:3A:67:AD:03:53:CD:0D:36:56:86:03:3D:7D:B9:03:09:B8
    Signature Algorithm: sha256WithRSAEncryption
         94:68:49:26:ed:1b:3d:37:c0:2a:fb:21:c8:13:5a:5f:74:1c:
         3a:38:01:7d:5a:07:89:3b:48:19:89:5c:2b:0f:28:ec:80:92:
         32:ee:b4:3d:7c:77:cb:79:7d:c6:75:39:43:c0:28:5b:0b:50:
         af:09:67:9b:d9:82:87:51:6a:1e:4b:bf:f6:ea:3b:17:a2:6d:
         46:1c:b9:46:13:f3:b6:05:f4:3a:c5:a7:af:b7:41:78:f9:b8:
         f5:bc:a2:03:c5:f7:6f:b7:5f:02:8b:ba:09:bd:55:94:89:4d:
         62:f9:de:3a:f5:82:68:3b:31:51:e6:2d:12:40:7b:66:5d:44:
         f1:21:99:44:bb:1f:93:0b:ce:a1:92:ec:9d:38:fb:b6:72:a6:
         3b:5a:e4:b3:1b:2d:d9:9d:ba:60:07:63:7b:eb:e3:f1:d0:de:
         f2:8a:ad:78:87:5a:8b:45:95:e8:d9:75:d2:05:3e:42:2d:25:
         32:ad:f8:0d:04:3d:8b:f1:3b:85:b9:c2:6f:0c:20:99:a8:ab:
         7f:db:c7:40:22:af:01:28:54:87:b9:ed:d4:be:2d:e6:43:17:
         39:84:05:87:fa:8b:b3:05:84:94:9e:24:49:7b:74:fd:cb:0a:
         26:2d:93:fa:fb:ce:68:c8:b8:d3:bd:f2:65:5f:49:9d:20:c5:
         10:c5:f6:81
-----BEGIN CERTIFICATE-----
MIIELDCCAxSgAwIBAgIRAJBMZhuWGLmZEerit5uYz9MwDQYJKoZIhvcNAQELBQAw
QjELMAkGA1UEBhMCVVMxIjAgBgNVBAoMGVBvcnRsYW5kIFN0YXRlIFVuaXZlcnNp
dHkxDzANBgNVBAMMBlN1YiBDQTAeFw0yMjA0MDUyMDM3MjBaFw0yMzA0MDUyMDM3
MjBaMEIxCzAJBgNVBAYTAlVTMSIwIAYDVQQKDBlQb3J0bGFuZCBTdGF0ZSBVbml2
ZXJzaXR5MQ8wDQYDVQQDDAZTdWIgQ0EwggEiMA0GCSqGSIb3DQEBAQUAA4IBDwAw
ggEKAoIBAQCqVSYlBJqovvpb0kQMBHFsR8REqSNHZSAl+p14wSHJsaCV45IL4xCz
P7McfS+3XgjBfKfKxISdTskepUtJ07CEJVr3KrnBj6nEDJiGILpIYLGvewqIJwxS
BB6A7lPv/XlNwqxroyAi34u507hfANPniZqtCLQazplpnkctduXV6OFRDnAZ2UwR
WsFJLnLfb4gF7Ep/gMT2q5OIvD9+fX7Wyl2HFRQguLKerDH0Lcsuf3kv02fJ9Vd3
FrCoQHlzv2MCkIwCocFQrWLmi1ct26n6HQEKF0raf20dgzZCMh+bH62QiK2lw51D
972Wm3jGZOZrKgDKQvM+sZBSPt8U7cY9AgMBAAGjggEbMIIBFzBtBggrBgEFBQcB
AQRhMF8wLgYIKwYBBQUHMAKGImh0dHA6Ly9zdWItY2EubG9jYWxob3N0L3N1Yi1j
YS5jcnQwLQYIKwYBBQUHMAGGIWh0dHA6Ly9vY3NwLnN1Yi1jYS5sb2NhbGhvc3Q6
OTA4MTAfBgNVHSMEGDAWgBQgTvCzHr+8HzVqxXCOoNhw1dFXRDAMBgNVHRMBAf8E
AjAAMDMGA1UdHwQsMCowKKAmoCSGImh0dHA6Ly9zdWItY2EubG9jYWxob3N0L3N1
Yi1jYS5jcmwwEwYDVR0lBAwwCgYIKwYBBQUHAwIwDgYDVR0PAQH/BAQDAgeAMB0G
A1UdDgQWBBTTU8Y6Z60DU80NNlaGAz19uQMJuDANBgkqhkiG9w0BAQsFAAOCAQEA
lGhJJu0bPTfAKvshyBNaX3QcOjgBfVoHiTtIGYlcKw8o7ICSMu60PXx3y3l9xnU5
Q8AoWwtQrwlnm9mCh1FqHku/9uo7F6JtRhy5RhPztgX0OsWnr7dBePm49byiA8X3
b7dfAou6Cb1VlIlNYvneOvWCaDsxUeYtEkB7Zl1E8SGZRLsfkwvOoZLsnTj7tnKm
O1rksxst2Z26YAdje+vj8dDe8oqteIdai0WV6Nl10gU+Qi0lMq34DQQ9i/E7hbnC
bwwgmairf9vHQCKvAShUh7nt1L4t5kMXOYQFh/qLswWElJ4kSXt0/csKJi2T+vvO
aMi4073yZV9JnSDFEMX2gQ==
-----END CERTIFICATE-----
