Certificate:
    Data:
        Version: 3 (0x2)
        Serial Number:
            90:4c:66:1b:96:18:b9:99:11:ea:e2:b7:9b:98:cf:e5
        Signature Algorithm: sha256WithRSAEncryption
        Issuer: C=US, O=Portland State University, CN=Sub CA
        Validity
            Not Before: Apr  5 20:37:22 2022 GMT
            Not After : Apr  5 20:37:22 2023 GMT
        Subject: C=US, O=Portland State University, CN=Sub CA
        Subject Public Key Info:
            Public Key Algorithm: rsaEncryption
                RSA Public-Key: (2048 bit)
                Modulus:
                    00:a1:94:c9:50:c6:9d:d0:dc:d4:d4:bc:ca:33:a6:
                    58:de:f6:29:85:9f:29:3c:a1:7a:68:c4:40:54:65:
                    f4:e3:d6:64:c5:aa:d9:1c:7e:f6:9e:9c:35:98:01:
                    9c:b5:41:d7:8c:ef:d2:6b:bd:5b:b1:dd:99:b7:d5:
                    ae:0d:d1:61:e7:5f:45:bb:86:8f:20:80:53:dc:20:
                    54:da:9f:fe:a7:f2:02:3e:e3:e2:e5:f2:df:17:08:
                    ec:25:df:36:99:14:9b:15:a3:99:d1:d6:1f:c2:58:
                    b1:62:61:93:cc:c3:9f:f5:be:2a:b5:17:ae:f4:de:
                    79:e2:3b:9b:9c:67:41:bf:8e:6e:a2:14:aa:49:fd:
                    fc:00:02:ac:33:4a:17:b0:ae:f1:5f:04:a9:2c:d2:
                    d9:82:3c:7b:a2:5e:4d:b5:04:91:dd:07:cd:fe:5e:
                    49:76:66:1d:e1:42:08:1f:71:d9:e2:28:31:53:a8:
                    3b:4e:2b:fb:53:85:eb:4d:38:b4:21:69:46:d3:df:
                    fd:cc:61:ac:ef:17:87:92:4e:61:58:4f:eb:65:5f:
                    28:a5:dc:ad:33:e8:e9:67:ac:c3:2b:9a:44:80:25:
                    9e:0c:f6:d5:73:ee:e4:05:5c:b2:04:1e:30:21:a8:
                    16:3b:4d:5a:23:cd:e3:64:2c:86:c2:56:03:36:7e:
                    3a:83
                Exponent: 65537 (0x10001)
        X509v3 extensions:
            Authority Information Access: 
                CA Issuers - URI:http://sub-ca.localhost/sub-ca.crt
                OCSP - URI:http://ocsp.sub-ca.localhost:9081

            X509v3 Authority Key Identifier: 
                keyid:20:4E:F0:B3:1E:BF:BC:1F:35:6A:C5:70:8E:A0:D8:70:D5:D1:57:44

            X509v3 Basic Constraints: critical
                CA:FALSE
            X509v3 CRL Distribution Points: 

                Full Name:
                  URI:http://sub-ca.localhost/sub-ca.crl

            X509v3 Extended Key Usage: 
                TLS Web Client Authentication
            X509v3 Key Usage: critical
                Digital Signature
            X509v3 Subject Key Identifier: 
                44:17:27:47:56:F8:4D:3B:84:C8:3C:BD:E5:ED:80:2A:4B:2D:D4:53
    Signature Algorithm: sha256WithRSAEncryption
         68:f7:cd:f6:1a:6f:2b:b1:26:64:fd:d0:7a:d1:f7:f7:7b:02:
         b4:dd:0b:00:e4:52:c3:92:9a:cf:fe:cd:85:9d:34:40:22:00:
         f8:04:1f:8a:72:e1:5e:15:5b:2c:2d:20:79:5b:c3:1b:79:48:
         5c:12:8f:8b:85:09:06:70:00:ec:69:a0:bc:ce:42:2b:2f:c0:
         51:a8:fe:b4:26:6b:9d:c1:39:78:3d:4c:6f:2d:8e:5e:af:0a:
         e2:1e:c7:1f:e0:df:01:61:6b:9c:99:de:43:84:59:48:a4:58:
         4b:f1:13:ff:48:6d:9c:9f:b1:f9:3b:30:7b:4b:17:a7:a1:6e:
         2e:b4:25:b3:25:0d:3a:9e:6c:3a:4f:26:e6:5f:40:03:9c:cc:
         5e:fd:d0:f4:5b:f9:ee:88:03:d7:73:81:47:d9:e0:ed:e6:7e:
         74:7d:e6:7c:58:0d:e1:b5:1f:38:6a:17:51:eb:5f:39:48:c2:
         6d:b5:9f:8a:e9:30:a4:0a:b0:a0:ff:f4:2d:c3:3c:ef:a0:15:
         4b:7a:57:76:59:6f:32:87:25:85:ce:af:97:ae:38:c2:7e:66:
         9a:32:37:fc:b5:1b:4c:62:38:87:06:a1:0c:56:94:f2:2d:42:
         91:95:9b:ec:a0:02:cd:1e:02:d2:44:cc:95:08:c1:5b:de:dd:
         f6:da:90:99
-----BEGIN CERTIFICATE-----
MIIELDCCAxSgAwIBAgIRAJBMZhuWGLmZEerit5uYz+UwDQYJKoZIhvcNAQELBQAw
QjELMAkGA1UEBhMCVVMxIjAgBgNVBAoMGVBvcnRsYW5kIFN0YXRlIFVuaXZlcnNp
dHkxDzANBgNVBAMMBlN1YiBDQTAeFw0yMjA0MDUyMDM3MjJaFw0yMzA0MDUyMDM3
MjJaMEIxCzAJBgNVBAYTAlVTMSIwIAYDVQQKDBlQb3J0bGFuZCBTdGF0ZSBVbml2
ZXJzaXR5MQ8wDQYDVQQDDAZTdWIgQ0EwggEiMA0GCSqGSIb3DQEBAQUAA4IBDwAw
ggEKAoIBAQChlMlQxp3Q3NTUvMozplje9imFnyk8oXpoxEBUZfTj1mTFqtkcfvae
nDWYAZy1QdeM79JrvVux3Zm31a4N0WHnX0W7ho8ggFPcIFTan/6n8gI+4+Ll8t8X
COwl3zaZFJsVo5nR1h/CWLFiYZPMw5/1viq1F6703nniO5ucZ0G/jm6iFKpJ/fwA
AqwzShewrvFfBKks0tmCPHuiXk21BJHdB83+Xkl2Zh3hQggfcdniKDFTqDtOK/tT
hetNOLQhaUbT3/3MYazvF4eSTmFYT+tlXyil3K0z6OlnrMMrmkSAJZ4M9tVz7uQF
XLIEHjAhqBY7TVojzeNkLIbCVgM2fjqDAgMBAAGjggEbMIIBFzBtBggrBgEFBQcB
AQRhMF8wLgYIKwYBBQUHMAKGImh0dHA6Ly9zdWItY2EubG9jYWxob3N0L3N1Yi1j
YS5jcnQwLQYIKwYBBQUHMAGGIWh0dHA6Ly9vY3NwLnN1Yi1jYS5sb2NhbGhvc3Q6
OTA4MTAfBgNVHSMEGDAWgBQgTvCzHr+8HzVqxXCOoNhw1dFXRDAMBgNVHRMBAf8E
AjAAMDMGA1UdHwQsMCowKKAmoCSGImh0dHA6Ly9zdWItY2EubG9jYWxob3N0L3N1
Yi1jYS5jcmwwEwYDVR0lBAwwCgYIKwYBBQUHAwIwDgYDVR0PAQH/BAQDAgeAMB0G
A1UdDgQWBBREFydHVvhNO4TIPL3l7YAqSy3UUzANBgkqhkiG9w0BAQsFAAOCAQEA
aPfN9hpvK7EmZP3QetH393sCtN0LAORSw5Kaz/7NhZ00QCIA+AQfinLhXhVbLC0g
eVvDG3lIXBKPi4UJBnAA7GmgvM5CKy/AUaj+tCZrncE5eD1Mby2OXq8K4h7HH+Df
AWFrnJneQ4RZSKRYS/ET/0htnJ+x+Tswe0sXp6FuLrQlsyUNOp5sOk8m5l9AA5zM
Xv3Q9Fv57ogD13OBR9ng7eZ+dH3mfFgN4bUfOGoXUetfOUjCbbWfiukwpAqwoP/0
LcM876AVS3pXdllvMoclhc6vl644wn5mmjI3/LUbTGI4hwahDFaU8i1CkZWb7KAC
zR4C0kTMlQjBW97d9tqQmQ==
-----END CERTIFICATE-----
