Certificate:
    Data:
        Version: 3 (0x2)
        Serial Number:
            90:4c:66:1b:96:18:b9:99:11:ea:e2:b7:9b:98:d0:1c
        Signature Algorithm: sha256WithRSAEncryption
        Issuer: C=US, O=Portland State University, CN=Sub CA
        Validity
            Not Before: Apr  5 20:37:28 2022 GMT
            Not After : Apr  5 20:37:28 2023 GMT
        Subject: C=US, O=Portland State University, CN=Sub CA
        Subject Public Key Info:
            Public Key Algorithm: rsaEncryption
                RSA Public-Key: (2048 bit)
                Modulus:
                    00:bc:ef:bc:ac:32:88:53:35:3d:dc:56:b2:09:b4:
                    4a:5a:18:c2:5d:32:86:22:ea:97:37:8c:60:a4:0a:
                    a8:e4:48:b1:7b:3d:d0:76:1b:df:75:ef:2e:bc:14:
                    9e:c2:18:0c:cf:18:c9:25:5c:b9:a8:d1:38:71:69:
                    2a:e3:f8:b1:b1:70:d4:5e:5a:58:aa:ae:db:9e:71:
                    13:d1:10:17:99:e0:46:e3:d0:77:8d:cc:13:7f:84:
                    03:b5:b0:d9:c3:90:c1:23:1d:a6:d5:06:59:7a:f7:
                    5d:48:2b:8c:70:90:53:a1:17:0d:84:7a:53:58:e9:
                    d6:67:be:55:34:8b:60:3e:69:8b:15:ea:e3:5a:30:
                    0c:0b:25:9c:82:2d:fc:c0:39:fc:8c:76:ec:e9:dc:
                    8e:d2:d6:12:7c:6f:28:24:e6:d9:d7:e1:47:5a:d7:
                    9e:2e:e1:fa:62:2f:5e:56:02:f5:b1:07:0d:d1:bc:
                    5c:67:35:bb:a9:a4:65:60:3d:ba:6f:c9:34:fb:71:
                    3b:58:82:d3:5c:89:1b:43:78:34:c2:98:5d:1b:59:
                    5f:75:f5:10:28:b5:21:31:1c:93:ef:57:28:ba:73:
                    c1:6d:cc:69:d8:30:78:26:aa:60:e8:bf:27:ef:35:
                    dc:19:df:0d:56:d4:4c:b4:4f:74:3f:5b:d6:9a:5e:
                    ad:51
                Exponent: 65537 (0x10001)
        X509v3 extensions:
            Authority Information Access: 
                CA Issuers - URI:http://sub-ca.localhost/sub-ca.crt
                OCSP - URI:http://ocsp.sub-ca.localhost:9081

            X509v3 Authority Key Identifier: 
                keyid:20:4E:F0:B3:1E:BF:BC:1F:35:6A:C5:70:8E:A0:D8:70:D5:D1:57:44

            X509v3 Basic Constraints: critical
                CA:FALSE
            X509v3 CRL Distribution Points: 

                Full Name:
                  URI:http://sub-ca.localhost/sub-ca.crl

            X509v3 Extended Key Usage: 
                TLS Web Client Authentication
            X509v3 Key Usage: critical
                Digital Signature
            X509v3 Subject Key Identifier: 
                93:D4:03:35:87:41:63:2B:5F:A4:0A:B4:C0:A9:F4:16:3B:36:07:8A
    Signature Algorithm: sha256WithRSAEncryption
         9c:f3:82:58:fc:3a:b0:bc:2e:cb:32:49:b7:57:69:6e:f4:6b:
         28:03:cd:1a:5f:63:7f:c0:69:f7:29:69:d5:4e:8f:73:7c:4d:
         03:39:9a:e2:aa:17:31:13:d6:9a:0a:a2:9a:ee:a8:c1:3f:9b:
         9b:b5:4a:a0:53:95:4a:a4:8b:f5:c6:71:ea:ce:22:a7:45:de:
         68:70:e3:bc:b6:b5:c2:e5:8b:e8:f2:36:91:40:4b:72:b2:8f:
         c4:36:84:69:5f:08:d4:8d:e8:38:9b:b7:4c:1b:dc:4f:a9:7a:
         8d:cb:31:f3:30:d6:d2:14:16:25:e6:e8:a0:47:d5:db:90:c3:
         a5:a9:0b:b2:88:0a:d3:a0:17:d9:70:62:4c:10:4e:0e:1d:f6:
         f3:1a:36:0f:f0:84:c5:26:7b:a9:a8:18:10:c1:b8:c2:a2:8a:
         e4:65:ef:7e:f4:d4:24:8c:7e:95:13:57:f5:7b:f0:62:0d:36:
         69:ff:02:67:14:7a:67:ab:01:b5:28:f8:83:13:da:c6:b3:69:
         4b:5b:39:83:c6:01:86:d2:33:c1:9c:81:66:1d:af:dc:a1:0c:
         09:d6:39:77:28:97:0a:c1:e2:1e:df:37:34:aa:dd:a9:60:9e:
         f2:36:24:9a:ee:c7:19:6a:dd:f3:88:59:37:d2:87:42:ce:39:
         70:89:0f:33
-----BEGIN CERTIFICATE-----
MIIELDCCAxSgAwIBAgIRAJBMZhuWGLmZEerit5uY0BwwDQYJKoZIhvcNAQELBQAw
QjELMAkGA1UEBhMCVVMxIjAgBgNVBAoMGVBvcnRsYW5kIFN0YXRlIFVuaXZlcnNp
dHkxDzANBgNVBAMMBlN1YiBDQTAeFw0yMjA0MDUyMDM3MjhaFw0yMzA0MDUyMDM3
MjhaMEIxCzAJBgNVBAYTAlVTMSIwIAYDVQQKDBlQb3J0bGFuZCBTdGF0ZSBVbml2
ZXJzaXR5MQ8wDQYDVQQDDAZTdWIgQ0EwggEiMA0GCSqGSIb3DQEBAQUAA4IBDwAw
ggEKAoIBAQC877ysMohTNT3cVrIJtEpaGMJdMoYi6pc3jGCkCqjkSLF7PdB2G991
7y68FJ7CGAzPGMklXLmo0ThxaSrj+LGxcNReWliqrtuecRPREBeZ4Ebj0HeNzBN/
hAO1sNnDkMEjHabVBll6911IK4xwkFOhFw2EelNY6dZnvlU0i2A+aYsV6uNaMAwL
JZyCLfzAOfyMduzp3I7S1hJ8bygk5tnX4Uda154u4fpiL15WAvWxBw3RvFxnNbup
pGVgPbpvyTT7cTtYgtNciRtDeDTCmF0bWV919RAotSExHJPvVyi6c8FtzGnYMHgm
qmDovyfvNdwZ3w1W1Ey0T3Q/W9aaXq1RAgMBAAGjggEbMIIBFzBtBggrBgEFBQcB
AQRhMF8wLgYIKwYBBQUHMAKGImh0dHA6Ly9zdWItY2EubG9jYWxob3N0L3N1Yi1j
YS5jcnQwLQYIKwYBBQUHMAGGIWh0dHA6Ly9vY3NwLnN1Yi1jYS5sb2NhbGhvc3Q6
OTA4MTAfBgNVHSMEGDAWgBQgTvCzHr+8HzVqxXCOoNhw1dFXRDAMBgNVHRMBAf8E
AjAAMDMGA1UdHwQsMCowKKAmoCSGImh0dHA6Ly9zdWItY2EubG9jYWxob3N0L3N1
Yi1jYS5jcmwwEwYDVR0lBAwwCgYIKwYBBQUHAwIwDgYDVR0PAQH/BAQDAgeAMB0G
A1UdDgQWBBST1AM1h0FjK1+kCrTAqfQWOzYHijANBgkqhkiG9w0BAQsFAAOCAQEA
nPOCWPw6sLwuyzJJt1dpbvRrKAPNGl9jf8Bp9ylp1U6Pc3xNAzma4qoXMRPWmgqi
mu6owT+bm7VKoFOVSqSL9cZx6s4ip0XeaHDjvLa1wuWL6PI2kUBLcrKPxDaEaV8I
1I3oOJu3TBvcT6l6jcsx8zDW0hQWJebooEfV25DDpakLsogK06AX2XBiTBBODh32
8xo2D/CExSZ7qagYEMG4wqKK5GXvfvTUJIx+lRNX9XvwYg02af8CZxR6Z6sBtSj4
gxPaxrNpS1s5g8YBhtIzwZyBZh2v3KEMCdY5dyiXCsHiHt83NKrdqWCe8jYkmu7H
GWrd84hZN9KHQs45cIkPMw==
-----END CERTIFICATE-----
