Certificate:
    Data:
        Version: 3 (0x2)
        Serial Number:
            90:4c:66:1b:96:18:b9:99:11:ea:e2:b7:9b:98:cf:c0
        Signature Algorithm: sha256WithRSAEncryption
        Issuer: C=US, O=Portland State University, CN=Sub CA
        Validity
            Not Before: Apr  5 20:37:18 2022 GMT
            Not After : Apr  5 20:37:18 2023 GMT
        Subject: C=US, O=Portland State University, CN=Sub CA
        Subject Public Key Info:
            Public Key Algorithm: rsaEncryption
                RSA Public-Key: (2048 bit)
                Modulus:
                    00:b3:eb:b9:54:cc:5e:25:24:aa:b2:22:46:81:3d:
                    a2:8d:31:a5:fe:d3:9a:39:98:e7:c9:0f:51:ac:35:
                    d6:b4:ce:93:b7:9e:7b:f9:61:6e:38:3e:97:36:e0:
                    f0:77:63:91:a0:05:2d:fb:0e:3c:6d:ce:22:30:d3:
                    84:2b:19:9c:06:10:5d:a2:5e:7f:43:1f:a2:46:1f:
                    ef:73:6a:d7:56:95:d8:54:7b:60:0f:15:ff:f7:a0:
                    7a:3c:42:1a:4c:85:6d:7e:eb:42:7c:ee:61:f2:20:
                    b5:44:1f:52:aa:45:85:7c:20:aa:2c:e6:66:a2:13:
                    c8:94:35:f9:73:69:9e:c4:63:c2:e8:8d:eb:41:e7:
                    c5:ae:b0:f2:6d:a0:92:64:39:cb:41:41:66:17:6a:
                    8b:20:e2:b7:04:c2:65:25:c3:e9:52:31:11:37:c2:
                    86:85:20:44:ff:d3:67:f5:20:93:15:39:9a:dc:a6:
                    81:58:19:25:1e:e4:7d:71:dc:d5:21:af:c4:18:ed:
                    3b:12:70:ee:f7:06:15:d4:3b:fd:38:a4:85:bb:17:
                    3d:4f:32:1f:35:55:36:47:f0:1a:2e:cb:51:47:ba:
                    65:33:e9:f2:5d:92:78:15:73:90:eb:76:bf:6a:50:
                    05:85:b3:af:cd:0b:8d:a6:97:f8:0a:6d:e0:9d:9e:
                    75:67
                Exponent: 65537 (0x10001)
        X509v3 extensions:
            Authority Information Access: 
                CA Issuers - URI:http://sub-ca.localhost/sub-ca.crt
                OCSP - URI:http://ocsp.sub-ca.localhost:9081

            X509v3 Authority Key Identifier: 
                keyid:20:4E:F0:B3:1E:BF:BC:1F:35:6A:C5:70:8E:A0:D8:70:D5:D1:57:44

            X509v3 Basic Constraints: critical
                CA:FALSE
            X509v3 CRL Distribution Points: 

                Full Name:
                  URI:http://sub-ca.localhost/sub-ca.crl

            X509v3 Extended Key Usage: 
                TLS Web Client Authentication
            X509v3 Key Usage: critical
                Digital Signature
            X509v3 Subject Key Identifier: 
                35:80:49:6E:88:EF:28:A7:A7:3D:70:3B:8F:2F:1E:2D:7E:A6:99:B5
    Signature Algorithm: sha256WithRSAEncryption
         1c:93:29:9d:47:bc:64:ed:02:7f:aa:75:e2:4f:94:51:cb:cb:
         1a:90:c2:a0:5a:3b:8d:44:80:35:28:88:d2:05:6e:27:4d:44:
         db:81:6f:ec:2e:85:2c:bc:d5:8c:de:c5:ec:6f:d4:3a:2e:d5:
         49:91:6e:7b:97:fd:a0:88:2b:f7:e1:06:5f:e7:36:60:90:58:
         22:32:c4:96:5a:2a:32:94:bb:d4:7f:40:a0:e6:8e:da:39:06:
         22:49:d6:83:c4:54:d5:d9:96:b4:10:93:4a:6a:e7:ef:37:02:
         21:dd:95:35:79:00:53:71:c7:0d:9b:89:82:cc:4b:16:e8:64:
         95:b1:bf:b5:7e:98:20:43:b6:c3:7b:a0:4d:e7:e4:c2:32:70:
         b1:90:30:f6:5b:af:e3:ee:0a:d7:ef:1e:52:a3:47:e6:d1:68:
         7b:57:ef:dc:35:47:3a:f2:a8:e2:94:50:64:c0:e2:88:bb:8b:
         18:9a:d2:28:e1:cd:9d:35:2c:ce:3c:e6:53:4e:59:49:29:91:
         66:86:e1:26:46:1d:9c:61:3d:f1:36:1b:34:6f:bf:ed:3e:7e:
         b2:e6:13:e7:32:eb:a1:7b:25:d6:a9:fd:a9:9c:72:1b:5e:f1:
         89:8e:0f:7d:ef:f8:24:20:6a:24:7a:2e:f3:0b:91:2b:24:c0:
         b1:0d:ef:ff
-----BEGIN CERTIFICATE-----
MIIELDCCAxSgAwIBAgIRAJBMZhuWGLmZEerit5uYz8AwDQYJKoZIhvcNAQELBQAw
QjELMAkGA1UEBhMCVVMxIjAgBgNVBAoMGVBvcnRsYW5kIFN0YXRlIFVuaXZlcnNp
dHkxDzANBgNVBAMMBlN1YiBDQTAeFw0yMjA0MDUyMDM3MThaFw0yMzA0MDUyMDM3
MThaMEIxCzAJBgNVBAYTAlVTMSIwIAYDVQQKDBlQb3J0bGFuZCBTdGF0ZSBVbml2
ZXJzaXR5MQ8wDQYDVQQDDAZTdWIgQ0EwggEiMA0GCSqGSIb3DQEBAQUAA4IBDwAw
ggEKAoIBAQCz67lUzF4lJKqyIkaBPaKNMaX+05o5mOfJD1GsNda0zpO3nnv5YW44
Ppc24PB3Y5GgBS37DjxtziIw04QrGZwGEF2iXn9DH6JGH+9zatdWldhUe2APFf/3
oHo8QhpMhW1+60J87mHyILVEH1KqRYV8IKos5maiE8iUNflzaZ7EY8LojetB58Wu
sPJtoJJkOctBQWYXaosg4rcEwmUlw+lSMRE3woaFIET/02f1IJMVOZrcpoFYGSUe
5H1x3NUhr8QY7TsScO73BhXUO/04pIW7Fz1PMh81VTZH8Bouy1FHumUz6fJdkngV
c5Drdr9qUAWFs6/NC42ml/gKbeCdnnVnAgMBAAGjggEbMIIBFzBtBggrBgEFBQcB
AQRhMF8wLgYIKwYBBQUHMAKGImh0dHA6Ly9zdWItY2EubG9jYWxob3N0L3N1Yi1j
YS5jcnQwLQYIKwYBBQUHMAGGIWh0dHA6Ly9vY3NwLnN1Yi1jYS5sb2NhbGhvc3Q6
OTA4MTAfBgNVHSMEGDAWgBQgTvCzHr+8HzVqxXCOoNhw1dFXRDAMBgNVHRMBAf8E
AjAAMDMGA1UdHwQsMCowKKAmoCSGImh0dHA6Ly9zdWItY2EubG9jYWxob3N0L3N1
Yi1jYS5jcmwwEwYDVR0lBAwwCgYIKwYBBQUHAwIwDgYDVR0PAQH/BAQDAgeAMB0G
A1UdDgQWBBQ1gEluiO8op6c9cDuPLx4tfqaZtTANBgkqhkiG9w0BAQsFAAOCAQEA
HJMpnUe8ZO0Cf6p14k+UUcvLGpDCoFo7jUSANSiI0gVuJ01E24Fv7C6FLLzVjN7F
7G/UOi7VSZFue5f9oIgr9+EGX+c2YJBYIjLElloqMpS71H9AoOaO2jkGIknWg8RU
1dmWtBCTSmrn7zcCId2VNXkAU3HHDZuJgsxLFuhklbG/tX6YIEO2w3ugTefkwjJw
sZAw9luv4+4K1+8eUqNH5tFoe1fv3DVHOvKo4pRQZMDiiLuLGJrSKOHNnTUszjzm
U05ZSSmRZobhJkYdnGE98TYbNG+/7T5+suYT5zLroXsl1qn9qZxyG17xiY4Pfe/4
JCBqJHou8wuRKyTAsQ3v/w==
-----END CERTIFICATE-----
