Certificate:
    Data:
        Version: 3 (0x2)
        Serial Number:
            90:4c:66:1b:96:18:b9:99:11:ea:e2:b7:9b:98:cf:fa
        Signature Algorithm: sha256WithRSAEncryption
        Issuer: C=US, O=Portland State University, CN=Sub CA
        Validity
            Not Before: Apr  5 20:37:24 2022 GMT
            Not After : Apr  5 20:37:24 2023 GMT
        Subject: C=US, O=Portland State University, CN=Sub CA
        Subject Public Key Info:
            Public Key Algorithm: rsaEncryption
                RSA Public-Key: (2048 bit)
                Modulus:
                    00:c3:e8:50:26:34:3f:8c:bd:0b:e3:25:8f:cd:78:
                    d4:63:b7:68:8a:6b:29:86:93:28:47:4c:e8:05:31:
                    94:d8:ce:39:8d:55:54:c7:2b:62:80:1e:9a:21:e0:
                    89:38:c4:5a:a4:50:0b:d0:0a:85:df:20:3f:7f:78:
                    8a:86:28:d2:aa:50:e2:6a:0e:f9:5e:b5:1a:78:4f:
                    bd:d5:9b:8d:35:b2:a9:84:ef:b7:80:51:4f:1b:38:
                    02:7a:63:be:57:6e:39:df:64:94:e5:2b:6c:e1:d9:
                    38:bc:a1:8f:70:d6:dd:fd:51:b6:b0:f3:cb:10:32:
                    c4:81:43:01:b9:bd:fa:ed:55:9f:a2:5a:b3:be:ea:
                    5d:a2:28:71:a8:ef:11:aa:74:31:0d:4a:b5:b1:19:
                    be:b9:15:a8:4c:0d:de:2d:52:88:99:73:94:8c:73:
                    bb:19:b3:df:f4:0b:f2:6b:a6:b2:39:b9:14:5e:9b:
                    4f:ac:2b:8e:67:04:4e:c6:d5:41:b7:6a:07:37:d0:
                    37:d9:f4:1b:52:48:be:8b:30:a5:24:9d:bb:60:60:
                    60:b9:70:82:df:4a:17:81:5d:10:0f:ff:d2:37:4c:
                    d8:3f:34:a7:be:a6:37:8d:ca:1f:8c:10:ca:f1:a9:
                    f2:3c:7d:77:84:49:c2:80:d2:6e:3c:cc:88:6b:3e:
                    96:8b
                Exponent: 65537 (0x10001)
        X509v3 extensions:
            Authority Information Access: 
                CA Issuers - URI:http://sub-ca.localhost/sub-ca.crt
                OCSP - URI:http://ocsp.sub-ca.localhost:9081

            X509v3 Authority Key Identifier: 
                keyid:20:4E:F0:B3:1E:BF:BC:1F:35:6A:C5:70:8E:A0:D8:70:D5:D1:57:44

            X509v3 Basic Constraints: critical
                CA:FALSE
            X509v3 CRL Distribution Points: 

                Full Name:
                  URI:http://sub-ca.localhost/sub-ca.crl

            X509v3 Extended Key Usage: 
                TLS Web Client Authentication
            X509v3 Key Usage: critical
                Digital Signature
            X509v3 Subject Key Identifier: 
                22:20:BD:5E:15:E2:70:9A:80:90:B9:F1:FC:09:21:0B:0F:FB:7E:43
    Signature Algorithm: sha256WithRSAEncryption
         ad:c7:3b:2c:c1:09:81:07:d8:b6:83:37:a6:e1:32:27:e9:2d:
         51:ca:40:81:f8:a9:dc:e1:14:8f:d8:73:68:4e:63:bc:d3:21:
         a9:c8:10:6c:f2:f8:cd:e8:17:3e:a4:17:1c:4b:b9:01:88:99:
         80:2d:68:67:da:a1:23:e3:d1:e6:f2:97:57:88:38:13:72:53:
         3f:6b:a3:ec:6d:7c:5c:37:b3:c7:c0:ee:9d:15:8f:af:37:8d:
         64:7e:7b:d5:72:66:be:0b:1c:43:40:42:32:dc:c1:56:fe:42:
         65:be:95:62:c8:e8:45:3d:21:27:5b:7e:48:65:07:a1:a7:0d:
         c9:3b:1d:de:9d:03:d1:da:6b:64:62:71:63:42:d1:9d:1c:c3:
         d4:5d:ec:1e:7e:bf:a0:30:0b:50:00:e5:d7:68:31:49:24:2d:
         d5:d4:82:18:f2:26:be:a5:42:b4:7a:d9:34:ff:dc:03:1e:ce:
         70:fb:6c:d0:e9:fd:8b:6b:4c:77:97:a6:a6:00:76:b7:73:21:
         aa:c3:86:4c:c0:02:51:3b:1c:a5:16:1a:bf:6a:78:d8:63:25:
         77:5b:5b:9b:c6:55:78:7d:49:7c:89:d7:6c:de:61:5b:5b:ea:
         c6:5d:ca:2f:90:16:31:33:69:db:39:a0:4c:85:6f:1e:43:de:
         58:1a:82:c2
-----BEGIN CERTIFICATE-----
MIIELDCCAxSgAwIBAgIRAJBMZhuWGLmZEerit5uYz/owDQYJKoZIhvcNAQELBQAw
QjELMAkGA1UEBhMCVVMxIjAgBgNVBAoMGVBvcnRsYW5kIFN0YXRlIFVuaXZlcnNp
dHkxDzANBgNVBAMMBlN1YiBDQTAeFw0yMjA0MDUyMDM3MjRaFw0yMzA0MDUyMDM3
MjRaMEIxCzAJBgNVBAYTAlVTMSIwIAYDVQQKDBlQb3J0bGFuZCBTdGF0ZSBVbml2
ZXJzaXR5MQ8wDQYDVQQDDAZTdWIgQ0EwggEiMA0GCSqGSIb3DQEBAQUAA4IBDwAw
ggEKAoIBAQDD6FAmND+MvQvjJY/NeNRjt2iKaymGkyhHTOgFMZTYzjmNVVTHK2KA
Hpoh4Ik4xFqkUAvQCoXfID9/eIqGKNKqUOJqDvletRp4T73Vm401sqmE77eAUU8b
OAJ6Y75XbjnfZJTlK2zh2Ti8oY9w1t39Ubaw88sQMsSBQwG5vfrtVZ+iWrO+6l2i
KHGo7xGqdDENSrWxGb65FahMDd4tUoiZc5SMc7sZs9/0C/JrprI5uRRem0+sK45n
BE7G1UG3agc30DfZ9BtSSL6LMKUknbtgYGC5cILfSheBXRAP/9I3TNg/NKe+pjeN
yh+MEMrxqfI8fXeEScKA0m48zIhrPpaLAgMBAAGjggEbMIIBFzBtBggrBgEFBQcB
AQRhMF8wLgYIKwYBBQUHMAKGImh0dHA6Ly9zdWItY2EubG9jYWxob3N0L3N1Yi1j
YS5jcnQwLQYIKwYBBQUHMAGGIWh0dHA6Ly9vY3NwLnN1Yi1jYS5sb2NhbGhvc3Q6
OTA4MTAfBgNVHSMEGDAWgBQgTvCzHr+8HzVqxXCOoNhw1dFXRDAMBgNVHRMBAf8E
AjAAMDMGA1UdHwQsMCowKKAmoCSGImh0dHA6Ly9zdWItY2EubG9jYWxob3N0L3N1
Yi1jYS5jcmwwEwYDVR0lBAwwCgYIKwYBBQUHAwIwDgYDVR0PAQH/BAQDAgeAMB0G
A1UdDgQWBBQiIL1eFeJwmoCQufH8CSELD/t+QzANBgkqhkiG9w0BAQsFAAOCAQEA
rcc7LMEJgQfYtoM3puEyJ+ktUcpAgfip3OEUj9hzaE5jvNMhqcgQbPL4zegXPqQX
HEu5AYiZgC1oZ9qhI+PR5vKXV4g4E3JTP2uj7G18XDezx8DunRWPrzeNZH571XJm
vgscQ0BCMtzBVv5CZb6VYsjoRT0hJ1t+SGUHoacNyTsd3p0D0dprZGJxY0LRnRzD
1F3sHn6/oDALUADl12gxSSQt1dSCGPImvqVCtHrZNP/cAx7OcPts0On9i2tMd5em
pgB2t3MhqsOGTMACUTscpRYav2p42GMld1tbm8ZVeH1JfInXbN5hW1vqxl3KL5AW
MTNp2zmgTIVvHkPeWBqCwg==
-----END CERTIFICATE-----
