Certificate:
    Data:
        Version: 3 (0x2)
        Serial Number:
            90:4c:66:1b:96:18:b9:99:11:ea:e2:b7:9b:98:d0:03
        Signature Algorithm: sha256WithRSAEncryption
        Issuer: C=US, O=Portland State University, CN=Sub CA
        Validity
            Not Before: Apr  5 20:37:25 2022 GMT
            Not After : Apr  5 20:37:25 2023 GMT
        Subject: C=US, O=Portland State University, CN=Sub CA
        Subject Public Key Info:
            Public Key Algorithm: rsaEncryption
                RSA Public-Key: (2048 bit)
                Modulus:
                    00:aa:71:37:78:87:46:40:5f:e4:e3:7c:62:cb:42:
                    b3:bd:cb:5d:52:32:ec:4f:2d:fb:33:13:a4:05:27:
                    16:2b:fb:42:36:69:de:cd:64:79:a4:ff:39:e9:e9:
                    50:14:46:46:e0:b7:e9:9d:b8:58:09:f8:e6:36:67:
                    de:33:2e:a7:17:40:30:cf:e2:78:4d:ef:43:e0:5a:
                    cc:50:62:0a:58:61:cb:96:86:b4:23:e4:63:a0:22:
                    52:cc:3a:48:50:1a:7c:fb:5a:27:1f:0e:c2:d1:64:
                    e6:93:e6:61:cb:14:64:6e:3f:29:67:8c:8d:98:43:
                    f6:e4:16:b0:84:17:f7:24:3f:bc:6f:bd:ca:0b:0d:
                    c2:b9:0e:04:67:24:bd:41:ef:09:48:75:a2:cf:b7:
                    98:3b:c6:27:e6:46:e3:a2:f7:76:2a:0e:0c:d4:c7:
                    0e:b1:81:78:62:3b:b6:3e:c1:95:ed:f3:c5:7e:1b:
                    6e:9b:bc:18:0f:b7:cb:ac:29:f2:70:c8:0f:d5:06:
                    10:ab:82:bf:68:ff:2e:c4:bc:a1:17:2a:d8:a0:00:
                    e5:18:bd:5d:b9:8e:7b:69:41:9c:9a:fa:2c:75:77:
                    77:b8:29:59:26:46:e0:14:66:ba:e1:8e:f6:6b:f4:
                    33:2e:fb:98:c6:c3:cf:46:ca:d2:51:22:4b:88:13:
                    a2:ab
                Exponent: 65537 (0x10001)
        X509v3 extensions:
            Authority Information Access: 
                CA Issuers - URI:http://sub-ca.localhost/sub-ca.crt
                OCSP - URI:http://ocsp.sub-ca.localhost:9081

            X509v3 Authority Key Identifier: 
                keyid:20:4E:F0:B3:1E:BF:BC:1F:35:6A:C5:70:8E:A0:D8:70:D5:D1:57:44

            X509v3 Basic Constraints: critical
                CA:FALSE
            X509v3 CRL Distribution Points: 

                Full Name:
                  URI:http://sub-ca.localhost/sub-ca.crl

            X509v3 Extended Key Usage: 
                TLS Web Client Authentication
            X509v3 Key Usage: critical
                Digital Signature
            X509v3 Subject Key Identifier: 
                F3:45:C5:DB:D8:41:74:67:45:0D:C7:2C:58:0D:4C:B8:44:FE:02:CC
    Signature Algorithm: sha256WithRSAEncryption
         94:e3:e5:e6:0d:0d:25:6f:13:00:77:15:04:9e:f9:57:da:11:
         dd:d7:5e:cc:c5:a8:f9:ed:48:be:38:28:fa:97:a2:4b:ca:60:
         54:56:e9:10:e2:44:d8:03:65:8e:b9:18:65:b8:8f:0c:26:02:
         3a:52:74:31:c6:60:32:cc:de:3d:fe:a4:6e:3a:0c:63:93:fe:
         f3:29:f7:60:21:4a:3f:9d:a6:30:2c:0c:4b:ac:fe:08:9a:51:
         e0:a9:9c:ad:c0:2c:66:ac:c7:d9:3c:25:3b:78:e5:56:38:57:
         12:ed:ac:b7:00:fd:b8:43:b2:77:49:ea:05:87:61:7a:e8:53:
         2c:5d:1c:0b:84:9b:9c:1f:ca:0a:77:9b:cd:57:84:e0:0d:ec:
         bc:3b:e4:9e:c8:0d:45:6f:0c:bc:3d:70:54:2e:e3:7a:fd:ec:
         b8:63:7c:09:6b:41:a5:6a:bf:75:8e:03:3d:b4:52:97:d8:dc:
         2f:2c:b2:32:e3:e5:69:de:25:61:b8:c8:ec:33:ec:36:af:f1:
         18:f6:d5:26:0f:96:e1:47:85:6a:43:cc:c0:c7:59:a9:bc:cc:
         d6:35:da:d7:0c:1a:63:7e:29:a9:83:8b:3b:34:17:c0:f7:e4:
         63:56:d5:ab:60:74:ec:1c:ff:b7:c3:33:d6:02:27:78:7e:8d:
         83:4a:af:84
-----BEGIN CERTIFICATE-----
MIIELDCCAxSgAwIBAgIRAJBMZhuWGLmZEerit5uY0AMwDQYJKoZIhvcNAQELBQAw
QjELMAkGA1UEBhMCVVMxIjAgBgNVBAoMGVBvcnRsYW5kIFN0YXRlIFVuaXZlcnNp
dHkxDzANBgNVBAMMBlN1YiBDQTAeFw0yMjA0MDUyMDM3MjVaFw0yMzA0MDUyMDM3
MjVaMEIxCzAJBgNVBAYTAlVTMSIwIAYDVQQKDBlQb3J0bGFuZCBTdGF0ZSBVbml2
ZXJzaXR5MQ8wDQYDVQQDDAZTdWIgQ0EwggEiMA0GCSqGSIb3DQEBAQUAA4IBDwAw
ggEKAoIBAQCqcTd4h0ZAX+TjfGLLQrO9y11SMuxPLfszE6QFJxYr+0I2ad7NZHmk
/znp6VAURkbgt+mduFgJ+OY2Z94zLqcXQDDP4nhN70PgWsxQYgpYYcuWhrQj5GOg
IlLMOkhQGnz7WicfDsLRZOaT5mHLFGRuPylnjI2YQ/bkFrCEF/ckP7xvvcoLDcK5
DgRnJL1B7wlIdaLPt5g7xifmRuOi93YqDgzUxw6xgXhiO7Y+wZXt88V+G26bvBgP
t8usKfJwyA/VBhCrgr9o/y7EvKEXKtigAOUYvV25jntpQZya+ix1d3e4KVkmRuAU
ZrrhjvZr9DMu+5jGw89GytJRIkuIE6KrAgMBAAGjggEbMIIBFzBtBggrBgEFBQcB
AQRhMF8wLgYIKwYBBQUHMAKGImh0dHA6Ly9zdWItY2EubG9jYWxob3N0L3N1Yi1j
YS5jcnQwLQYIKwYBBQUHMAGGIWh0dHA6Ly9vY3NwLnN1Yi1jYS5sb2NhbGhvc3Q6
OTA4MTAfBgNVHSMEGDAWgBQgTvCzHr+8HzVqxXCOoNhw1dFXRDAMBgNVHRMBAf8E
AjAAMDMGA1UdHwQsMCowKKAmoCSGImh0dHA6Ly9zdWItY2EubG9jYWxob3N0L3N1
Yi1jYS5jcmwwEwYDVR0lBAwwCgYIKwYBBQUHAwIwDgYDVR0PAQH/BAQDAgeAMB0G
A1UdDgQWBBTzRcXb2EF0Z0UNxyxYDUy4RP4CzDANBgkqhkiG9w0BAQsFAAOCAQEA
lOPl5g0NJW8TAHcVBJ75V9oR3ddezMWo+e1Ivjgo+peiS8pgVFbpEOJE2ANljrkY
ZbiPDCYCOlJ0McZgMszePf6kbjoMY5P+8yn3YCFKP52mMCwMS6z+CJpR4KmcrcAs
ZqzH2TwlO3jlVjhXEu2stwD9uEOyd0nqBYdheuhTLF0cC4SbnB/KCnebzVeE4A3s
vDvknsgNRW8MvD1wVC7jev3suGN8CWtBpWq/dY4DPbRSl9jcLyyyMuPlad4lYbjI
7DPsNq/xGPbVJg+W4UeFakPMwMdZqbzM1jXa1wwaY34pqYOLOzQXwPfkY1bVq2B0
7Bz/t8Mz1gIneH6Ng0qvhA==
-----END CERTIFICATE-----
