Certificate:
    Data:
        Version: 3 (0x2)
        Serial Number:
            90:4c:66:1b:96:18:b9:99:11:ea:e2:b7:9b:98:cf:c2
        Signature Algorithm: sha256WithRSAEncryption
        Issuer: C=US, O=Portland State University, CN=Sub CA
        Validity
            Not Before: Apr  5 20:37:18 2022 GMT
            Not After : Apr  5 20:37:18 2023 GMT
        Subject: C=US, O=Portland State University, CN=Sub CA
        Subject Public Key Info:
            Public Key Algorithm: rsaEncryption
                RSA Public-Key: (2048 bit)
                Modulus:
                    00:a6:bd:3b:b1:25:6a:a2:d8:9b:06:f3:8c:01:bf:
                    ce:4a:8c:18:51:d7:61:77:ce:30:3b:91:8c:d6:27:
                    d8:77:ac:98:d8:11:c9:ba:91:b0:f4:f1:27:51:ca:
                    e5:a2:c5:9a:f1:64:1e:23:9b:c5:2b:07:3a:e2:55:
                    7f:a3:6f:41:29:b5:45:6b:31:d9:6d:66:dc:94:ef:
                    be:9d:cf:47:45:ba:4c:72:0a:bf:cf:bf:31:ee:81:
                    e2:06:ce:b3:f8:be:9a:49:af:9b:7e:34:6e:8c:a6:
                    18:a3:93:90:b4:e0:03:e5:3e:f1:b5:1e:6c:fd:7c:
                    9e:1e:bc:e1:83:c5:75:66:01:18:54:c3:16:04:38:
                    64:cc:07:a7:d4:10:fb:8e:45:4d:c8:31:92:b4:cd:
                    e9:38:40:92:8c:5a:3e:dd:01:3e:43:44:49:77:d3:
                    49:ad:f9:48:1c:dc:9f:b7:68:b7:bd:ad:70:b4:3e:
                    c9:d5:8a:d1:08:fb:52:fb:e6:a6:df:ff:53:98:ea:
                    52:8e:1e:01:60:5e:09:0e:fe:f6:46:2d:f0:6a:5c:
                    74:2a:8a:30:89:46:c2:f9:68:98:b4:ed:c7:71:98:
                    66:25:d1:5f:ab:6f:a4:42:15:fd:e2:7d:ce:5b:48:
                    2b:2f:64:18:c1:20:f9:55:3a:05:d3:7b:34:de:7a:
                    87:d1
                Exponent: 65537 (0x10001)
        X509v3 extensions:
            Authority Information Access: 
                CA Issuers - URI:http://sub-ca.localhost/sub-ca.crt
                OCSP - URI:http://ocsp.sub-ca.localhost:9081

            X509v3 Authority Key Identifier: 
                keyid:20:4E:F0:B3:1E:BF:BC:1F:35:6A:C5:70:8E:A0:D8:70:D5:D1:57:44

            X509v3 Basic Constraints: critical
                CA:FALSE
            X509v3 CRL Distribution Points: 

                Full Name:
                  URI:http://sub-ca.localhost/sub-ca.crl

            X509v3 Extended Key Usage: 
                TLS Web Client Authentication
            X509v3 Key Usage: critical
                Digital Signature
            X509v3 Subject Key Identifier: 
                40:B8:DF:29:60:81:B0:F1:65:FA:E2:1D:20:83:8C:33:E1:AC:C2:92
    Signature Algorithm: sha256WithRSAEncryption
         1e:cc:02:6f:5d:4a:15:43:8a:82:bc:ea:db:71:d2:26:dd:27:
         78:43:12:10:4d:eb:cf:b6:ba:a8:e4:5c:bd:75:0d:d5:61:5c:
         08:08:ea:ba:3b:11:04:33:5b:3f:a8:55:cb:9f:3a:7c:d6:75:
         e0:a3:49:d1:39:eb:2f:8c:72:b4:78:1e:94:65:ef:52:e4:0c:
         38:db:72:73:60:e8:67:5e:ea:62:2a:e6:c0:fa:25:a7:53:ba:
         c7:74:26:77:0f:6d:32:8a:6a:1e:2d:8a:94:5b:b4:d0:d3:3b:
         a0:45:85:c3:4a:60:87:58:54:ed:1b:dd:5a:5b:8e:c5:ec:8a:
         69:1c:8e:67:0b:40:70:ec:58:e1:e9:db:6f:9f:db:97:8a:a9:
         4a:ec:62:9e:6f:ee:f0:43:66:14:b9:a8:f3:4a:3d:e7:c8:b9:
         fc:4a:38:ff:d9:21:2e:11:08:a9:b6:81:73:44:a9:c0:61:6b:
         36:08:5e:ac:08:83:d0:ce:49:20:20:13:ec:ef:d2:ad:91:3e:
         c6:fe:7a:d6:09:77:94:1a:fc:85:ec:0c:3e:52:1f:b9:c4:76:
         a7:7b:dc:6e:3d:3d:fe:57:11:2f:b9:38:00:5c:ac:06:ec:11:
         d5:29:24:2b:c2:d1:b7:07:f1:97:34:64:7c:03:d4:92:0f:60:
         14:03:23:10
-----BEGIN CERTIFICATE-----
MIIELDCCAxSgAwIBAgIRAJBMZhuWGLmZEerit5uYz8IwDQYJKoZIhvcNAQELBQAw
QjELMAkGA1UEBhMCVVMxIjAgBgNVBAoMGVBvcnRsYW5kIFN0YXRlIFVuaXZlcnNp
dHkxDzANBgNVBAMMBlN1YiBDQTAeFw0yMjA0MDUyMDM3MThaFw0yMzA0MDUyMDM3
MThaMEIxCzAJBgNVBAYTAlVTMSIwIAYDVQQKDBlQb3J0bGFuZCBTdGF0ZSBVbml2
ZXJzaXR5MQ8wDQYDVQQDDAZTdWIgQ0EwggEiMA0GCSqGSIb3DQEBAQUAA4IBDwAw
ggEKAoIBAQCmvTuxJWqi2JsG84wBv85KjBhR12F3zjA7kYzWJ9h3rJjYEcm6kbD0
8SdRyuWixZrxZB4jm8UrBzriVX+jb0EptUVrMdltZtyU776dz0dFukxyCr/PvzHu
geIGzrP4vppJr5t+NG6Mphijk5C04APlPvG1Hmz9fJ4evOGDxXVmARhUwxYEOGTM
B6fUEPuORU3IMZK0zek4QJKMWj7dAT5DREl300mt+Ugc3J+3aLe9rXC0PsnVitEI
+1L75qbf/1OY6lKOHgFgXgkO/vZGLfBqXHQqijCJRsL5aJi07cdxmGYl0V+rb6RC
Ff3ifc5bSCsvZBjBIPlVOgXTezTeeofRAgMBAAGjggEbMIIBFzBtBggrBgEFBQcB
AQRhMF8wLgYIKwYBBQUHMAKGImh0dHA6Ly9zdWItY2EubG9jYWxob3N0L3N1Yi1j
YS5jcnQwLQYIKwYBBQUHMAGGIWh0dHA6Ly9vY3NwLnN1Yi1jYS5sb2NhbGhvc3Q6
OTA4MTAfBgNVHSMEGDAWgBQgTvCzHr+8HzVqxXCOoNhw1dFXRDAMBgNVHRMBAf8E
AjAAMDMGA1UdHwQsMCowKKAmoCSGImh0dHA6Ly9zdWItY2EubG9jYWxob3N0L3N1
Yi1jYS5jcmwwEwYDVR0lBAwwCgYIKwYBBQUHAwIwDgYDVR0PAQH/BAQDAgeAMB0G
A1UdDgQWBBRAuN8pYIGw8WX64h0gg4wz4azCkjANBgkqhkiG9w0BAQsFAAOCAQEA
HswCb11KFUOKgrzq23HSJt0neEMSEE3rz7a6qORcvXUN1WFcCAjqujsRBDNbP6hV
y586fNZ14KNJ0TnrL4xytHgelGXvUuQMONtyc2DoZ17qYirmwPolp1O6x3Qmdw9t
MopqHi2KlFu00NM7oEWFw0pgh1hU7RvdWluOxeyKaRyOZwtAcOxY4enbb5/bl4qp
Suxinm/u8ENmFLmo80o958i5/Eo4/9khLhEIqbaBc0SpwGFrNgherAiD0M5JICAT
7O/SrZE+xv561gl3lBr8hewMPlIfucR2p3vcbj09/lcRL7k4AFysBuwR1SkkK8LR
twfxlzRkfAPUkg9gFAMjEA==
-----END CERTIFICATE-----
