Certificate:
    Data:
        Version: 3 (0x2)
        Serial Number:
            90:4c:66:1b:96:18:b9:99:11:ea:e2:b7:9b:98:cf:fb
        Signature Algorithm: sha256WithRSAEncryption
        Issuer: C=US, O=Portland State University, CN=Sub CA
        Validity
            Not Before: Apr  5 20:37:25 2022 GMT
            Not After : Apr  5 20:37:25 2023 GMT
        Subject: C=US, O=Portland State University, CN=Sub CA
        Subject Public Key Info:
            Public Key Algorithm: rsaEncryption
                RSA Public-Key: (2048 bit)
                Modulus:
                    00:a9:96:d7:59:84:b8:3e:44:10:34:ac:37:f7:74:
                    70:37:c0:06:18:9c:35:e5:8f:9f:ae:e3:15:f3:b0:
                    73:68:53:15:76:0c:d7:6f:7d:67:05:87:20:dd:a6:
                    8c:f4:bf:d3:53:1e:97:cf:8d:a5:ff:d9:1a:9f:52:
                    34:f3:f3:33:a2:4b:b4:18:5b:03:55:a0:61:ac:f0:
                    0a:3a:fc:9b:b1:94:4b:2d:c6:5e:73:c0:0e:db:76:
                    2b:ab:7f:15:19:d5:02:2c:db:dc:b2:fc:8b:25:2f:
                    1a:43:d9:bd:20:80:33:0e:4b:56:bd:7b:25:e3:17:
                    37:02:23:de:0a:97:9e:62:50:4c:c0:d8:b7:79:d0:
                    dc:ef:62:e5:ac:19:77:fa:bf:bd:54:09:a8:31:e0:
                    16:c0:6b:aa:25:8f:aa:28:45:4e:f7:78:71:dd:d1:
                    f7:ae:e1:ce:fa:64:c7:fe:53:60:8d:50:a9:2c:2e:
                    67:af:10:4b:27:69:3e:cc:39:e7:8d:26:ee:92:7f:
                    74:83:a4:ef:3f:67:53:ec:6f:61:e5:4e:7b:12:90:
                    eb:78:bd:68:8c:a9:78:d5:0a:99:2b:e7:5b:30:ae:
                    db:cc:ce:70:13:95:b1:77:da:58:72:b7:2e:67:d0:
                    67:43:8d:00:b7:82:95:3b:b8:a7:e5:a3:5f:ac:25:
                    97:d9
                Exponent: 65537 (0x10001)
        X509v3 extensions:
            Authority Information Access: 
                CA Issuers - URI:http://sub-ca.localhost/sub-ca.crt
                OCSP - URI:http://ocsp.sub-ca.localhost:9081

            X509v3 Authority Key Identifier: 
                keyid:20:4E:F0:B3:1E:BF:BC:1F:35:6A:C5:70:8E:A0:D8:70:D5:D1:57:44

            X509v3 Basic Constraints: critical
                CA:FALSE
            X509v3 CRL Distribution Points: 

                Full Name:
                  URI:http://sub-ca.localhost/sub-ca.crl

            X509v3 Extended Key Usage: 
                TLS Web Client Authentication
            X509v3 Key Usage: critical
                Digital Signature
            X509v3 Subject Key Identifier: 
                AD:D0:82:FB:92:4A:F1:3E:94:07:9E:2D:80:D4:AE:7A:4E:6D:4A:DD
    Signature Algorithm: sha256WithRSAEncryption
         26:dc:39:f5:c3:6f:6e:92:c5:3b:e8:05:77:82:79:3e:e9:f9:
         a1:73:f5:17:10:55:f1:37:15:17:82:32:ec:cd:29:21:0b:09:
         cd:8a:77:76:4b:4f:dd:9c:72:cb:dc:2b:2a:e9:d9:62:b1:c2:
         a5:2a:ed:d1:36:f9:af:84:fd:25:71:d0:97:88:09:68:e7:eb:
         3e:bd:07:f2:36:91:a2:bb:47:95:53:2b:aa:ab:91:a1:e9:9e:
         f5:8f:1f:6c:5a:10:0b:12:bd:0f:3c:a5:04:62:8f:1a:3a:97:
         15:4d:e0:4c:3a:23:54:d1:7c:fd:1e:05:16:77:a3:b4:3f:76:
         47:b2:e4:72:04:5b:ce:19:17:4b:c7:bc:09:28:c8:a2:86:c5:
         76:b5:e6:b3:04:db:b6:ae:92:7a:3b:25:36:03:fe:f2:10:d8:
         c4:9b:1e:38:3a:20:2e:6d:3e:6b:32:06:76:b3:aa:a1:7b:bd:
         c9:27:fb:b1:1c:8f:60:83:33:27:90:f8:c4:b3:02:02:ad:9d:
         22:84:5e:34:60:39:37:af:fb:a9:37:50:96:a6:1f:0c:6a:a4:
         79:ce:1a:3a:2a:12:f4:a8:8d:57:8e:49:65:5c:51:91:e5:9c:
         84:61:f7:6e:e5:76:cb:75:a4:6f:65:51:9f:9c:67:1d:ae:43:
         96:00:65:04
-----BEGIN CERTIFICATE-----
MIIELDCCAxSgAwIBAgIRAJBMZhuWGLmZEerit5uYz/swDQYJKoZIhvcNAQELBQAw
QjELMAkGA1UEBhMCVVMxIjAgBgNVBAoMGVBvcnRsYW5kIFN0YXRlIFVuaXZlcnNp
dHkxDzANBgNVBAMMBlN1YiBDQTAeFw0yMjA0MDUyMDM3MjVaFw0yMzA0MDUyMDM3
MjVaMEIxCzAJBgNVBAYTAlVTMSIwIAYDVQQKDBlQb3J0bGFuZCBTdGF0ZSBVbml2
ZXJzaXR5MQ8wDQYDVQQDDAZTdWIgQ0EwggEiMA0GCSqGSIb3DQEBAQUAA4IBDwAw
ggEKAoIBAQCpltdZhLg+RBA0rDf3dHA3wAYYnDXlj5+u4xXzsHNoUxV2DNdvfWcF
hyDdpoz0v9NTHpfPjaX/2RqfUjTz8zOiS7QYWwNVoGGs8Ao6/JuxlEstxl5zwA7b
diurfxUZ1QIs29yy/IslLxpD2b0ggDMOS1a9eyXjFzcCI94Kl55iUEzA2Ld50Nzv
YuWsGXf6v71UCagx4BbAa6olj6ooRU73eHHd0feu4c76ZMf+U2CNUKksLmevEEsn
aT7MOeeNJu6Sf3SDpO8/Z1Psb2HlTnsSkOt4vWiMqXjVCpkr51swrtvMznATlbF3
2lhyty5n0GdDjQC3gpU7uKflo1+sJZfZAgMBAAGjggEbMIIBFzBtBggrBgEFBQcB
AQRhMF8wLgYIKwYBBQUHMAKGImh0dHA6Ly9zdWItY2EubG9jYWxob3N0L3N1Yi1j
YS5jcnQwLQYIKwYBBQUHMAGGIWh0dHA6Ly9vY3NwLnN1Yi1jYS5sb2NhbGhvc3Q6
OTA4MTAfBgNVHSMEGDAWgBQgTvCzHr+8HzVqxXCOoNhw1dFXRDAMBgNVHRMBAf8E
AjAAMDMGA1UdHwQsMCowKKAmoCSGImh0dHA6Ly9zdWItY2EubG9jYWxob3N0L3N1
Yi1jYS5jcmwwEwYDVR0lBAwwCgYIKwYBBQUHAwIwDgYDVR0PAQH/BAQDAgeAMB0G
A1UdDgQWBBSt0IL7kkrxPpQHni2A1K56Tm1K3TANBgkqhkiG9w0BAQsFAAOCAQEA
Jtw59cNvbpLFO+gFd4J5Pun5oXP1FxBV8TcVF4Iy7M0pIQsJzYp3dktP3Zxyy9wr
KunZYrHCpSrt0Tb5r4T9JXHQl4gJaOfrPr0H8jaRortHlVMrqquRoeme9Y8fbFoQ
CxK9DzylBGKPGjqXFU3gTDojVNF8/R4FFnejtD92R7LkcgRbzhkXS8e8CSjIoobF
drXmswTbtq6SejslNgP+8hDYxJseODogLm0+azIGdrOqoXu9ySf7sRyPYIMzJ5D4
xLMCAq2dIoReNGA5N6/7qTdQlqYfDGqkec4aOioS9KiNV45JZVxRkeWchGH3buV2
y3Wkb2VRn5xnHa5DlgBlBA==
-----END CERTIFICATE-----
