Certificate:
    Data:
        Version: 3 (0x2)
        Serial Number:
            90:4c:66:1b:96:18:b9:99:11:ea:e2:b7:9b:98:cf:ce
        Signature Algorithm: sha256WithRSAEncryption
        Issuer: C=US, O=Portland State University, CN=Sub CA
        Validity
            Not Before: Apr  5 20:37:20 2022 GMT
            Not After : Apr  5 20:37:20 2023 GMT
        Subject: C=US, O=Portland State University, CN=Sub CA
        Subject Public Key Info:
            Public Key Algorithm: rsaEncryption
                RSA Public-Key: (2048 bit)
                Modulus:
                    00:cc:81:b3:cc:e1:80:e0:a1:29:d9:35:30:67:5c:
                    ee:3e:f0:53:83:fd:96:58:26:91:13:87:09:35:74:
                    52:66:36:a2:f5:cd:22:5c:98:33:15:0e:da:06:05:
                    24:a6:6a:36:a8:a1:9e:1c:70:ff:63:67:d5:1d:8f:
                    bf:86:c5:b1:60:33:30:0e:41:fc:70:39:69:d6:ab:
                    6e:23:c9:ff:f0:0d:35:b9:9f:ce:34:2c:45:5a:1f:
                    33:c0:b5:7a:39:dd:5d:62:b6:a4:3d:41:61:23:74:
                    55:42:df:a9:3d:7b:75:bc:ce:62:f5:23:75:29:9a:
                    87:3d:2f:28:f4:24:6d:22:bf:7e:24:37:4a:63:fb:
                    6b:d9:fb:cd:7d:90:d1:10:b7:f9:0c:40:a3:08:3a:
                    60:a0:a9:3e:1e:c0:d8:2f:49:dc:6b:6d:51:f2:b3:
                    70:75:fa:43:65:cd:c4:12:ec:d3:fa:dd:44:7d:11:
                    ae:09:c0:4e:0c:41:f3:3a:15:02:d4:7a:c4:72:c8:
                    d0:f9:7e:d2:64:ce:73:6a:f3:d9:62:2e:b1:91:e0:
                    5b:ae:15:b8:1c:1b:2e:14:74:09:39:91:1a:24:39:
                    dc:9a:20:89:43:48:af:80:ea:55:46:db:3a:91:27:
                    6c:e5:0d:7d:76:89:51:60:7e:c2:6f:2c:f1:c5:3e:
                    4d:e5
                Exponent: 65537 (0x10001)
        X509v3 extensions:
            Authority Information Access: 
                CA Issuers - URI:http://sub-ca.localhost/sub-ca.crt
                OCSP - URI:http://ocsp.sub-ca.localhost:9081

            X509v3 Authority Key Identifier: 
                keyid:20:4E:F0:B3:1E:BF:BC:1F:35:6A:C5:70:8E:A0:D8:70:D5:D1:57:44

            X509v3 Basic Constraints: critical
                CA:FALSE
            X509v3 CRL Distribution Points: 

                Full Name:
                  URI:http://sub-ca.localhost/sub-ca.crl

            X509v3 Extended Key Usage: 
                TLS Web Client Authentication
            X509v3 Key Usage: critical
                Digital Signature
            X509v3 Subject Key Identifier: 
                F8:12:27:EB:F2:F6:24:C0:E6:6C:2A:6B:ED:0C:99:A9:D5:0E:CE:B2
    Signature Algorithm: sha256WithRSAEncryption
         98:cd:96:13:8f:a5:11:50:2d:1e:bf:38:ff:33:a7:00:bc:35:
         ff:37:ba:54:74:c9:8a:a0:de:75:9c:1b:30:d6:df:65:d8:1c:
         68:84:ac:67:ba:9c:b0:d9:5b:63:17:56:6f:26:0d:97:80:7c:
         8c:02:e1:41:c4:c4:d8:15:ac:ce:38:df:cb:4e:90:62:83:f7:
         37:f6:fd:9d:fd:01:f5:a5:09:87:51:4a:7b:9e:b0:27:f2:4a:
         05:66:d8:3d:4b:33:ab:f8:a2:88:4b:de:d3:34:64:fa:bd:3f:
         97:ee:79:44:9d:a8:bf:18:99:37:98:3c:14:6d:1e:fd:6c:ec:
         a2:43:ba:a3:ec:bb:36:c9:6b:f4:57:ad:c6:30:83:22:ad:ff:
         98:db:d5:01:38:b9:bb:1a:0e:86:41:91:0a:a5:e2:12:8f:4d:
         72:20:52:d8:f8:89:7a:ce:8e:2e:d7:e9:79:33:de:86:42:f3:
         b0:57:5d:b4:d6:1d:cf:13:92:2a:ac:df:ed:29:09:4a:9a:40:
         65:f5:5f:73:b2:e8:af:61:08:cb:02:ff:92:14:f6:d5:ca:8b:
         b2:48:df:f9:e3:c0:ab:ae:6b:34:cd:b5:07:3d:98:79:53:24:
         92:e4:91:69:5f:3e:ba:78:17:cc:13:c4:af:4a:d9:ae:09:4e:
         b2:86:e6:eb
-----BEGIN CERTIFICATE-----
MIIELDCCAxSgAwIBAgIRAJBMZhuWGLmZEerit5uYz84wDQYJKoZIhvcNAQELBQAw
QjELMAkGA1UEBhMCVVMxIjAgBgNVBAoMGVBvcnRsYW5kIFN0YXRlIFVuaXZlcnNp
dHkxDzANBgNVBAMMBlN1YiBDQTAeFw0yMjA0MDUyMDM3MjBaFw0yMzA0MDUyMDM3
MjBaMEIxCzAJBgNVBAYTAlVTMSIwIAYDVQQKDBlQb3J0bGFuZCBTdGF0ZSBVbml2
ZXJzaXR5MQ8wDQYDVQQDDAZTdWIgQ0EwggEiMA0GCSqGSIb3DQEBAQUAA4IBDwAw
ggEKAoIBAQDMgbPM4YDgoSnZNTBnXO4+8FOD/ZZYJpEThwk1dFJmNqL1zSJcmDMV
DtoGBSSmajaooZ4ccP9jZ9Udj7+GxbFgMzAOQfxwOWnWq24jyf/wDTW5n840LEVa
HzPAtXo53V1itqQ9QWEjdFVC36k9e3W8zmL1I3Upmoc9Lyj0JG0iv34kN0pj+2vZ
+819kNEQt/kMQKMIOmCgqT4ewNgvSdxrbVHys3B1+kNlzcQS7NP63UR9Ea4JwE4M
QfM6FQLUesRyyND5ftJkznNq89liLrGR4FuuFbgcGy4UdAk5kRokOdyaIIlDSK+A
6lVG2zqRJ2zlDX12iVFgfsJvLPHFPk3lAgMBAAGjggEbMIIBFzBtBggrBgEFBQcB
AQRhMF8wLgYIKwYBBQUHMAKGImh0dHA6Ly9zdWItY2EubG9jYWxob3N0L3N1Yi1j
YS5jcnQwLQYIKwYBBQUHMAGGIWh0dHA6Ly9vY3NwLnN1Yi1jYS5sb2NhbGhvc3Q6
OTA4MTAfBgNVHSMEGDAWgBQgTvCzHr+8HzVqxXCOoNhw1dFXRDAMBgNVHRMBAf8E
AjAAMDMGA1UdHwQsMCowKKAmoCSGImh0dHA6Ly9zdWItY2EubG9jYWxob3N0L3N1
Yi1jYS5jcmwwEwYDVR0lBAwwCgYIKwYBBQUHAwIwDgYDVR0PAQH/BAQDAgeAMB0G
A1UdDgQWBBT4Eifr8vYkwOZsKmvtDJmp1Q7OsjANBgkqhkiG9w0BAQsFAAOCAQEA
mM2WE4+lEVAtHr84/zOnALw1/ze6VHTJiqDedZwbMNbfZdgcaISsZ7qcsNlbYxdW
byYNl4B8jALhQcTE2BWszjjfy06QYoP3N/b9nf0B9aUJh1FKe56wJ/JKBWbYPUsz
q/iiiEve0zRk+r0/l+55RJ2ovxiZN5g8FG0e/WzsokO6o+y7Nslr9FetxjCDIq3/
mNvVATi5uxoOhkGRCqXiEo9NciBS2PiJes6OLtfpeTPehkLzsFddtNYdzxOSKqzf
7SkJSppAZfVfc7Lor2EIywL/khT21cqLskjf+ePAq65rNM21Bz2YeVMkkuSRaV8+
ungXzBPEr0rZrglOsobm6w==
-----END CERTIFICATE-----
