Certificate:
    Data:
        Version: 3 (0x2)
        Serial Number:
            90:4c:66:1b:96:18:b9:99:11:ea:e2:b7:9b:98:cf:ee
        Signature Algorithm: sha256WithRSAEncryption
        Issuer: C=US, O=Portland State University, CN=Sub CA
        Validity
            Not Before: Apr  5 20:37:23 2022 GMT
            Not After : Apr  5 20:37:23 2023 GMT
        Subject: C=US, O=Portland State University, CN=Sub CA
        Subject Public Key Info:
            Public Key Algorithm: rsaEncryption
                RSA Public-Key: (2048 bit)
                Modulus:
                    00:b9:c6:a9:f4:a7:08:10:5c:23:a2:97:fa:f4:cc:
                    79:28:9b:8d:20:b4:27:81:13:f3:55:54:b8:a4:28:
                    ef:bc:6c:54:78:b3:c5:ea:c5:9b:d0:c3:9e:7c:79:
                    37:9d:66:fa:bb:fe:6c:bc:c8:86:6c:f2:79:de:7e:
                    5f:cf:fc:73:f8:85:b0:68:12:f4:bc:fa:1f:c2:66:
                    ab:c2:6a:59:4a:4c:de:c1:b1:70:53:0c:6e:65:45:
                    13:57:67:63:15:f5:2e:f1:84:14:ab:95:f4:1a:83:
                    88:9c:79:4e:2c:2b:1d:3a:82:e8:21:76:1f:b8:58:
                    11:03:53:46:ec:c7:eb:74:11:03:06:8d:a4:e4:61:
                    66:ea:10:b8:42:ab:26:fe:8e:48:52:06:21:04:81:
                    cc:9d:cc:72:16:ec:62:99:d9:ae:34:4a:58:fb:a0:
                    f2:0b:b8:55:39:9f:f6:b0:28:06:a1:4c:6f:98:c2:
                    60:e6:61:e8:34:d5:3f:e2:42:62:d9:f9:9b:ea:d1:
                    27:c2:40:b1:54:e4:24:e1:ee:32:75:c5:3b:fc:d3:
                    74:96:6b:be:26:c8:17:43:d7:3f:3d:a3:61:a8:6e:
                    12:f2:52:6f:56:f5:fa:8d:70:2f:84:3c:e1:ea:36:
                    2b:ab:2d:4f:e5:01:d1:64:17:7a:e3:f7:e5:87:85:
                    9d:53
                Exponent: 65537 (0x10001)
        X509v3 extensions:
            Authority Information Access: 
                CA Issuers - URI:http://sub-ca.localhost/sub-ca.crt
                OCSP - URI:http://ocsp.sub-ca.localhost:9081

            X509v3 Authority Key Identifier: 
                keyid:20:4E:F0:B3:1E:BF:BC:1F:35:6A:C5:70:8E:A0:D8:70:D5:D1:57:44

            X509v3 Basic Constraints: critical
                CA:FALSE
            X509v3 CRL Distribution Points: 

                Full Name:
                  URI:http://sub-ca.localhost/sub-ca.crl

            X509v3 Extended Key Usage: 
                TLS Web Client Authentication
            X509v3 Key Usage: critical
                Digital Signature
            X509v3 Subject Key Identifier: 
                CB:0C:60:3F:53:1F:94:2B:0B:A7:9F:7D:33:A0:40:4A:7C:B9:B6:91
    Signature Algorithm: sha256WithRSAEncryption
         13:96:41:0b:48:fb:17:72:1c:50:e1:e3:74:90:4c:88:b2:f0:
         1c:79:f8:96:45:86:71:46:8c:f2:d9:b7:06:b5:39:e1:a9:15:
         37:ed:54:26:ef:91:8d:a6:32:03:22:3d:e2:9d:19:03:4b:5c:
         dd:d4:69:37:95:68:23:30:ba:f9:45:14:b9:21:f6:bb:bb:44:
         ee:5d:da:79:b8:cc:20:ad:7f:e0:b6:e4:2b:36:34:29:7d:78:
         8d:bf:e3:59:8c:74:c0:0f:6e:55:3e:84:c4:8f:bc:e9:32:9b:
         d8:df:7a:3e:cd:03:56:40:60:82:b0:b3:d5:58:f6:02:cd:6c:
         77:b2:18:68:16:8d:b6:19:6a:6b:8d:a1:3a:4a:f9:17:f2:78:
         ba:93:dd:3d:0a:6a:e4:db:02:89:cf:78:7d:9f:d4:b9:f8:2f:
         79:45:72:0b:5c:e5:39:93:ad:8d:c4:48:23:01:56:b1:ca:f6:
         a0:ba:1d:3a:27:7c:08:70:f2:b0:39:ca:59:c3:3b:ca:ed:22:
         c0:d3:70:93:1b:c9:95:8f:b0:24:88:ce:11:1c:0e:b9:48:d9:
         b0:b7:8b:88:8a:90:38:8e:57:8e:f2:e1:c8:2b:66:d9:1d:ed:
         6f:04:5f:81:f1:1d:8e:cd:1f:c1:29:0d:7e:53:a3:e7:42:73:
         23:af:32:c7
-----BEGIN CERTIFICATE-----
MIIELDCCAxSgAwIBAgIRAJBMZhuWGLmZEerit5uYz+4wDQYJKoZIhvcNAQELBQAw
QjELMAkGA1UEBhMCVVMxIjAgBgNVBAoMGVBvcnRsYW5kIFN0YXRlIFVuaXZlcnNp
dHkxDzANBgNVBAMMBlN1YiBDQTAeFw0yMjA0MDUyMDM3MjNaFw0yMzA0MDUyMDM3
MjNaMEIxCzAJBgNVBAYTAlVTMSIwIAYDVQQKDBlQb3J0bGFuZCBTdGF0ZSBVbml2
ZXJzaXR5MQ8wDQYDVQQDDAZTdWIgQ0EwggEiMA0GCSqGSIb3DQEBAQUAA4IBDwAw
ggEKAoIBAQC5xqn0pwgQXCOil/r0zHkom40gtCeBE/NVVLikKO+8bFR4s8XqxZvQ
w558eTedZvq7/my8yIZs8nnefl/P/HP4hbBoEvS8+h/CZqvCallKTN7BsXBTDG5l
RRNXZ2MV9S7xhBSrlfQag4iceU4sKx06gughdh+4WBEDU0bsx+t0EQMGjaTkYWbq
ELhCqyb+jkhSBiEEgcydzHIW7GKZ2a40Slj7oPILuFU5n/awKAahTG+YwmDmYeg0
1T/iQmLZ+Zvq0SfCQLFU5CTh7jJ1xTv803SWa74myBdD1z89o2GobhLyUm9W9fqN
cC+EPOHqNiurLU/lAdFkF3rj9+WHhZ1TAgMBAAGjggEbMIIBFzBtBggrBgEFBQcB
AQRhMF8wLgYIKwYBBQUHMAKGImh0dHA6Ly9zdWItY2EubG9jYWxob3N0L3N1Yi1j
YS5jcnQwLQYIKwYBBQUHMAGGIWh0dHA6Ly9vY3NwLnN1Yi1jYS5sb2NhbGhvc3Q6
OTA4MTAfBgNVHSMEGDAWgBQgTvCzHr+8HzVqxXCOoNhw1dFXRDAMBgNVHRMBAf8E
AjAAMDMGA1UdHwQsMCowKKAmoCSGImh0dHA6Ly9zdWItY2EubG9jYWxob3N0L3N1
Yi1jYS5jcmwwEwYDVR0lBAwwCgYIKwYBBQUHAwIwDgYDVR0PAQH/BAQDAgeAMB0G
A1UdDgQWBBTLDGA/Ux+UKwunn30zoEBKfLm2kTANBgkqhkiG9w0BAQsFAAOCAQEA
E5ZBC0j7F3IcUOHjdJBMiLLwHHn4lkWGcUaM8tm3BrU54akVN+1UJu+RjaYyAyI9
4p0ZA0tc3dRpN5VoIzC6+UUUuSH2u7tE7l3aebjMIK1/4LbkKzY0KX14jb/jWYx0
wA9uVT6ExI+86TKb2N96Ps0DVkBggrCz1Vj2As1sd7IYaBaNthlqa42hOkr5F/J4
upPdPQpq5NsCic94fZ/UufgveUVyC1zlOZOtjcRIIwFWscr2oLodOid8CHDysDnK
WcM7yu0iwNNwkxvJlY+wJIjOERwOuUjZsLeLiIqQOI5XjvLhyCtm2R3tbwRfgfEd
js0fwSkNflOj50JzI68yxw==
-----END CERTIFICATE-----
