Certificate:
    Data:
        Version: 3 (0x2)
        Serial Number:
            90:4c:66:1b:96:18:b9:99:11:ea:e2:b7:9b:98:d0:01
        Signature Algorithm: sha256WithRSAEncryption
        Issuer: C=US, O=Portland State University, CN=Sub CA
        Validity
            Not Before: Apr  5 20:37:25 2022 GMT
            Not After : Apr  5 20:37:25 2023 GMT
        Subject: C=US, O=Portland State University, CN=Sub CA
        Subject Public Key Info:
            Public Key Algorithm: rsaEncryption
                RSA Public-Key: (2048 bit)
                Modulus:
                    00:d6:6f:e4:e1:4e:45:23:a2:7f:f0:2c:f6:1f:80:
                    64:5a:f3:10:11:0f:e2:af:20:19:8f:3a:c3:ff:5d:
                    3b:84:be:f9:c8:e3:b2:7d:05:d0:3e:b0:f3:c1:7c:
                    9d:0e:e7:41:a6:eb:a5:fe:12:8e:b7:10:c0:dd:2f:
                    aa:23:12:c3:9f:e7:2b:a4:bf:8c:f9:c1:fb:ff:ad:
                    07:8d:71:8e:5a:1b:09:05:29:09:61:56:07:e4:60:
                    2e:b8:ff:d5:54:69:4b:0f:b8:32:dc:86:1b:d1:86:
                    21:0f:e7:d5:6e:81:b6:9f:51:56:df:ba:6a:77:ef:
                    c3:cd:4a:d1:aa:43:55:9a:6c:92:5d:fc:1f:46:55:
                    47:f9:9e:a5:c0:4c:28:ec:dd:68:3e:87:15:f3:55:
                    fa:36:26:7b:84:c2:4c:5d:78:8a:98:e1:92:80:cd:
                    93:7e:42:35:1d:fc:8c:ab:b1:34:62:6e:10:3e:6a:
                    96:6f:dc:cf:fe:34:e4:77:11:12:3b:48:f6:33:e0:
                    ca:f1:d1:ef:96:8d:9b:76:d2:b1:f4:9a:39:f1:11:
                    79:35:65:04:9a:34:be:54:14:57:21:5e:3f:20:81:
                    e2:39:ff:f4:27:e0:aa:0a:14:90:a6:19:fd:ff:cd:
                    29:7c:05:99:0d:70:b7:d3:54:7c:80:3e:67:fa:5d:
                    47:3d
                Exponent: 65537 (0x10001)
        X509v3 extensions:
            Authority Information Access: 
                CA Issuers - URI:http://sub-ca.localhost/sub-ca.crt
                OCSP - URI:http://ocsp.sub-ca.localhost:9081

            X509v3 Authority Key Identifier: 
                keyid:20:4E:F0:B3:1E:BF:BC:1F:35:6A:C5:70:8E:A0:D8:70:D5:D1:57:44

            X509v3 Basic Constraints: critical
                CA:FALSE
            X509v3 CRL Distribution Points: 

                Full Name:
                  URI:http://sub-ca.localhost/sub-ca.crl

            X509v3 Extended Key Usage: 
                TLS Web Client Authentication
            X509v3 Key Usage: critical
                Digital Signature
            X509v3 Subject Key Identifier: 
                DA:7B:FC:E7:BF:0A:16:4E:79:5E:FE:3A:B0:D1:B8:D2:29:20:77:24
    Signature Algorithm: sha256WithRSAEncryption
         0c:17:88:33:c1:83:25:c4:21:12:76:d0:10:3f:be:ce:11:15:
         d4:3e:ae:d4:c2:99:ff:3d:82:b6:3b:b9:d9:bc:bf:99:f1:c1:
         cd:12:ca:17:ed:48:13:9e:1b:fa:73:aa:ff:e4:03:0e:6a:b0:
         db:9d:6b:fe:96:db:92:a9:e8:29:3f:ba:63:45:86:5a:c3:26:
         1e:c6:e7:23:2e:8b:da:4b:4e:ab:51:66:4b:82:b7:79:91:4a:
         64:f3:9f:de:ae:ab:02:e9:a1:ec:aa:5a:ae:68:67:99:30:78:
         d1:ae:01:71:b7:20:05:01:b8:a7:2e:ef:d3:11:c8:d2:e1:86:
         55:a0:cd:1b:2b:14:13:26:88:ca:5b:0f:ce:53:f1:d8:30:a4:
         33:c1:52:33:27:8f:fe:6c:11:ac:6b:b1:5e:50:f0:c4:8d:fb:
         90:ec:09:2e:c6:a7:ac:81:51:2e:a8:5e:92:8d:ae:93:b3:2f:
         6c:1f:a1:00:99:4a:37:99:b1:a5:fb:78:9a:2b:0d:3c:e0:92:
         94:6f:af:94:b8:40:7e:aa:6c:10:ee:5f:be:f1:94:6d:a3:a0:
         ff:9b:e8:54:0b:f2:45:39:da:3f:e4:af:17:71:ea:30:36:1f:
         18:23:c3:c0:f8:9b:53:ed:86:24:4d:58:7b:e2:49:3b:36:7a:
         b4:39:cf:1e
-----BEGIN CERTIFICATE-----
MIIELDCCAxSgAwIBAgIRAJBMZhuWGLmZEerit5uY0AEwDQYJKoZIhvcNAQELBQAw
QjELMAkGA1UEBhMCVVMxIjAgBgNVBAoMGVBvcnRsYW5kIFN0YXRlIFVuaXZlcnNp
dHkxDzANBgNVBAMMBlN1YiBDQTAeFw0yMjA0MDUyMDM3MjVaFw0yMzA0MDUyMDM3
MjVaMEIxCzAJBgNVBAYTAlVTMSIwIAYDVQQKDBlQb3J0bGFuZCBTdGF0ZSBVbml2
ZXJzaXR5MQ8wDQYDVQQDDAZTdWIgQ0EwggEiMA0GCSqGSIb3DQEBAQUAA4IBDwAw
ggEKAoIBAQDWb+ThTkUjon/wLPYfgGRa8xARD+KvIBmPOsP/XTuEvvnI47J9BdA+
sPPBfJ0O50Gm66X+Eo63EMDdL6ojEsOf5yukv4z5wfv/rQeNcY5aGwkFKQlhVgfk
YC64/9VUaUsPuDLchhvRhiEP59VugbafUVbfump378PNStGqQ1WabJJd/B9GVUf5
nqXATCjs3Wg+hxXzVfo2JnuEwkxdeIqY4ZKAzZN+QjUd/IyrsTRibhA+apZv3M/+
NOR3ERI7SPYz4Mrx0e+WjZt20rH0mjnxEXk1ZQSaNL5UFFchXj8ggeI5//Qn4KoK
FJCmGf3/zSl8BZkNcLfTVHyAPmf6XUc9AgMBAAGjggEbMIIBFzBtBggrBgEFBQcB
AQRhMF8wLgYIKwYBBQUHMAKGImh0dHA6Ly9zdWItY2EubG9jYWxob3N0L3N1Yi1j
YS5jcnQwLQYIKwYBBQUHMAGGIWh0dHA6Ly9vY3NwLnN1Yi1jYS5sb2NhbGhvc3Q6
OTA4MTAfBgNVHSMEGDAWgBQgTvCzHr+8HzVqxXCOoNhw1dFXRDAMBgNVHRMBAf8E
AjAAMDMGA1UdHwQsMCowKKAmoCSGImh0dHA6Ly9zdWItY2EubG9jYWxob3N0L3N1
Yi1jYS5jcmwwEwYDVR0lBAwwCgYIKwYBBQUHAwIwDgYDVR0PAQH/BAQDAgeAMB0G
A1UdDgQWBBTae/znvwoWTnle/jqw0bjSKSB3JDANBgkqhkiG9w0BAQsFAAOCAQEA
DBeIM8GDJcQhEnbQED++zhEV1D6u1MKZ/z2Ctju52by/mfHBzRLKF+1IE54b+nOq
/+QDDmqw251r/pbbkqnoKT+6Y0WGWsMmHsbnIy6L2ktOq1FmS4K3eZFKZPOf3q6r
Aumh7KparmhnmTB40a4BcbcgBQG4py7v0xHI0uGGVaDNGysUEyaIylsPzlPx2DCk
M8FSMyeP/mwRrGuxXlDwxI37kOwJLsanrIFRLqheko2uk7MvbB+hAJlKN5mxpft4
misNPOCSlG+vlLhAfqpsEO5fvvGUbaOg/5voVAvyRTnaP+SvF3HqMDYfGCPDwPib
U+2GJE1Ye+JJOzZ6tDnPHg==
-----END CERTIFICATE-----
