Certificate:
    Data:
        Version: 3 (0x2)
        Serial Number:
            90:4c:66:1b:96:18:b9:99:11:ea:e2:b7:9b:98:d0:00
        Signature Algorithm: sha256WithRSAEncryption
        Issuer: C=US, O=Portland State University, CN=Sub CA
        Validity
            Not Before: Apr  5 20:37:25 2022 GMT
            Not After : Apr  5 20:37:25 2023 GMT
        Subject: C=US, O=Portland State University, CN=Sub CA
        Subject Public Key Info:
            Public Key Algorithm: rsaEncryption
                RSA Public-Key: (2048 bit)
                Modulus:
                    00:d2:a4:f2:e4:6a:0e:48:4e:ed:e5:18:59:5c:a1:
                    d3:8a:31:e7:02:fe:8d:c6:5b:ab:0b:c7:52:84:73:
                    4a:62:7c:d4:25:88:f3:00:be:5b:00:a2:3e:79:49:
                    57:d6:63:f5:de:fa:a8:6c:13:1e:71:71:56:2a:de:
                    b5:7b:93:55:b6:04:56:cc:3b:a6:f6:6d:b7:b3:e4:
                    7a:d0:05:b1:b8:60:c1:17:93:10:ae:48:b7:99:7c:
                    78:c8:6b:2f:44:c7:88:b9:00:ba:80:15:7b:f1:b9:
                    6c:58:47:3e:07:72:a7:9f:89:70:38:10:13:b2:e2:
                    9a:49:28:1b:75:c5:85:d6:bd:c4:02:fc:f7:e6:30:
                    77:d3:aa:60:50:ef:be:8e:5b:bb:01:a6:50:74:03:
                    bf:fa:71:27:c4:0f:05:d4:36:e2:a9:9e:14:28:33:
                    95:9c:91:d6:c7:e3:4a:a8:5c:98:a3:88:ab:3a:f3:
                    ca:b4:96:0c:97:f0:bd:4a:05:11:8e:0d:36:b4:c3:
                    ea:ca:cc:fc:51:5a:e1:9f:27:34:e1:19:fb:9c:08:
                    aa:aa:d1:ae:5f:2e:37:69:10:e5:50:db:68:ca:58:
                    37:1e:bc:33:9f:08:ac:f7:b8:98:5d:42:51:22:ae:
                    c1:b4:aa:76:b4:ee:f8:48:dc:36:cf:e6:1e:88:a8:
                    a0:1b
                Exponent: 65537 (0x10001)
        X509v3 extensions:
            Authority Information Access: 
                CA Issuers - URI:http://sub-ca.localhost/sub-ca.crt
                OCSP - URI:http://ocsp.sub-ca.localhost:9081

            X509v3 Authority Key Identifier: 
                keyid:20:4E:F0:B3:1E:BF:BC:1F:35:6A:C5:70:8E:A0:D8:70:D5:D1:57:44

            X509v3 Basic Constraints: critical
                CA:FALSE
            X509v3 CRL Distribution Points: 

                Full Name:
                  URI:http://sub-ca.localhost/sub-ca.crl

            X509v3 Extended Key Usage: 
                TLS Web Client Authentication
            X509v3 Key Usage: critical
                Digital Signature
            X509v3 Subject Key Identifier: 
                CF:8D:06:73:3A:43:D5:49:1C:55:AE:C9:5B:01:C6:67:45:5D:40:9A
    Signature Algorithm: sha256WithRSAEncryption
         32:e7:70:21:74:26:b3:a2:7f:17:95:57:10:6a:ff:84:cb:de:
         63:06:97:cf:c4:98:55:82:23:11:4a:81:76:d2:2c:e8:c7:3a:
         52:78:30:a4:af:c6:1c:c6:37:1d:2e:04:bd:0a:6f:9b:76:63:
         90:3c:97:6b:ea:3f:e1:16:f4:4e:a7:7d:57:ea:7f:35:7d:62:
         79:1b:40:64:69:d1:d6:5e:16:e1:dc:8e:8f:63:37:8e:63:0a:
         5e:b9:4b:30:8f:af:09:7f:3e:ed:cc:10:24:ed:88:02:11:c0:
         7c:1f:9d:38:7f:26:83:18:56:8a:13:e9:bd:97:1c:04:52:71:
         e2:1b:5d:3a:ed:48:8c:9e:b9:b4:69:c4:a0:cf:f1:07:cc:54:
         f3:8e:56:85:c5:8b:93:2f:93:37:b4:fe:2b:d7:bf:94:67:0f:
         8c:9a:c3:80:34:1d:4d:bd:0d:10:fe:d6:26:6c:1f:1a:d7:38:
         46:70:15:a3:8b:9c:a4:64:d5:85:58:09:ec:7a:b7:28:a4:06:
         6e:16:a0:88:7b:81:4b:a8:22:52:9f:9b:2a:34:42:9a:2a:a3:
         5a:dd:d1:88:03:0d:d9:2a:8a:99:17:43:3d:00:89:84:ba:3e:
         40:48:ba:30:ee:b3:c6:83:97:f3:88:cf:8c:27:cf:d5:1c:dd:
         4a:f5:2e:b0
-----BEGIN CERTIFICATE-----
MIIELDCCAxSgAwIBAgIRAJBMZhuWGLmZEerit5uY0AAwDQYJKoZIhvcNAQELBQAw
QjELMAkGA1UEBhMCVVMxIjAgBgNVBAoMGVBvcnRsYW5kIFN0YXRlIFVuaXZlcnNp
dHkxDzANBgNVBAMMBlN1YiBDQTAeFw0yMjA0MDUyMDM3MjVaFw0yMzA0MDUyMDM3
MjVaMEIxCzAJBgNVBAYTAlVTMSIwIAYDVQQKDBlQb3J0bGFuZCBTdGF0ZSBVbml2
ZXJzaXR5MQ8wDQYDVQQDDAZTdWIgQ0EwggEiMA0GCSqGSIb3DQEBAQUAA4IBDwAw
ggEKAoIBAQDSpPLkag5ITu3lGFlcodOKMecC/o3GW6sLx1KEc0pifNQliPMAvlsA
oj55SVfWY/Xe+qhsEx5xcVYq3rV7k1W2BFbMO6b2bbez5HrQBbG4YMEXkxCuSLeZ
fHjIay9Ex4i5ALqAFXvxuWxYRz4HcqefiXA4EBOy4ppJKBt1xYXWvcQC/PfmMHfT
qmBQ776OW7sBplB0A7/6cSfEDwXUNuKpnhQoM5WckdbH40qoXJijiKs688q0lgyX
8L1KBRGODTa0w+rKzPxRWuGfJzThGfucCKqq0a5fLjdpEOVQ22jKWDcevDOfCKz3
uJhdQlEirsG0qna07vhI3DbP5h6IqKAbAgMBAAGjggEbMIIBFzBtBggrBgEFBQcB
AQRhMF8wLgYIKwYBBQUHMAKGImh0dHA6Ly9zdWItY2EubG9jYWxob3N0L3N1Yi1j
YS5jcnQwLQYIKwYBBQUHMAGGIWh0dHA6Ly9vY3NwLnN1Yi1jYS5sb2NhbGhvc3Q6
OTA4MTAfBgNVHSMEGDAWgBQgTvCzHr+8HzVqxXCOoNhw1dFXRDAMBgNVHRMBAf8E
AjAAMDMGA1UdHwQsMCowKKAmoCSGImh0dHA6Ly9zdWItY2EubG9jYWxob3N0L3N1
Yi1jYS5jcmwwEwYDVR0lBAwwCgYIKwYBBQUHAwIwDgYDVR0PAQH/BAQDAgeAMB0G
A1UdDgQWBBTPjQZzOkPVSRxVrslbAcZnRV1AmjANBgkqhkiG9w0BAQsFAAOCAQEA
MudwIXQms6J/F5VXEGr/hMveYwaXz8SYVYIjEUqBdtIs6Mc6UngwpK/GHMY3HS4E
vQpvm3ZjkDyXa+o/4Rb0Tqd9V+p/NX1ieRtAZGnR1l4W4dyOj2M3jmMKXrlLMI+v
CX8+7cwQJO2IAhHAfB+dOH8mgxhWihPpvZccBFJx4htdOu1IjJ65tGnEoM/xB8xU
845WhcWLky+TN7T+K9e/lGcPjJrDgDQdTb0NEP7WJmwfGtc4RnAVo4ucpGTVhVgJ
7Hq3KKQGbhagiHuBS6giUp+bKjRCmiqjWt3RiAMN2SqKmRdDPQCJhLo+QEi6MO6z
xoOX84jPjCfP1RzdSvUusA==
-----END CERTIFICATE-----
