Certificate:
    Data:
        Version: 3 (0x2)
        Serial Number:
            90:4c:66:1b:96:18:b9:99:11:ea:e2:b7:9b:98:d0:09
        Signature Algorithm: sha256WithRSAEncryption
        Issuer: C=US, O=Portland State University, CN=Sub CA
        Validity
            Not Before: Apr  5 20:37:26 2022 GMT
            Not After : Apr  5 20:37:26 2023 GMT
        Subject: C=US, O=Portland State University, CN=Sub CA
        Subject Public Key Info:
            Public Key Algorithm: rsaEncryption
                RSA Public-Key: (2048 bit)
                Modulus:
                    00:e6:12:9a:94:3d:f1:ac:75:8b:d4:8b:32:1c:ea:
                    9e:a5:20:65:9f:b2:81:53:7f:05:6e:86:1b:55:c4:
                    f3:16:75:d0:8a:b1:db:21:d5:89:24:98:89:d6:f2:
                    04:37:8f:68:92:b2:1d:d4:3e:cc:71:b9:4d:31:0e:
                    e7:8b:46:8f:a0:7e:45:13:9d:0f:9a:10:b6:dd:8c:
                    00:28:41:0d:b4:6e:15:80:f3:30:20:6c:b4:f2:cf:
                    11:bc:75:9f:f1:98:ce:60:93:7a:7a:82:c3:0f:b0:
                    25:5f:d2:fa:c8:d3:11:d6:d3:06:eb:8f:91:9e:6b:
                    8c:66:b2:7d:6a:f2:ef:ff:98:d6:6f:9f:57:03:12:
                    01:51:e6:ce:fa:7d:6b:ed:94:bd:a5:40:54:17:07:
                    34:ed:e8:2f:00:91:07:7a:fc:f7:2c:84:b7:51:43:
                    22:bd:b2:95:d6:50:ec:4f:1d:14:51:e5:bf:9e:f6:
                    ba:71:d5:5b:e7:ab:45:53:b7:8c:e5:c4:c9:02:07:
                    f1:0a:2a:54:8c:d4:7e:27:c8:43:00:f2:99:03:b6:
                    85:b8:aa:f4:c2:4c:3f:72:39:7d:c7:a4:d1:53:4d:
                    d5:57:6a:e8:2d:73:5a:22:8b:16:ec:60:74:06:25:
                    88:31:5d:4c:0b:7b:d4:ec:d0:2a:3b:d9:d7:85:64:
                    a2:09
                Exponent: 65537 (0x10001)
        X509v3 extensions:
            Authority Information Access: 
                CA Issuers - URI:http://sub-ca.localhost/sub-ca.crt
                OCSP - URI:http://ocsp.sub-ca.localhost:9081

            X509v3 Authority Key Identifier: 
                keyid:20:4E:F0:B3:1E:BF:BC:1F:35:6A:C5:70:8E:A0:D8:70:D5:D1:57:44

            X509v3 Basic Constraints: critical
                CA:FALSE
            X509v3 CRL Distribution Points: 

                Full Name:
                  URI:http://sub-ca.localhost/sub-ca.crl

            X509v3 Extended Key Usage: 
                TLS Web Client Authentication
            X509v3 Key Usage: critical
                Digital Signature
            X509v3 Subject Key Identifier: 
                9F:E9:8D:FC:39:FC:26:EF:34:89:85:09:94:EF:2C:E8:3E:71:63:63
    Signature Algorithm: sha256WithRSAEncryption
         2e:77:37:a6:8d:9c:2b:82:b4:1d:e2:81:9b:f1:b5:5e:a9:ab:
         ce:3d:73:6f:ff:44:f3:bf:20:50:e1:50:16:96:fa:08:52:7a:
         93:12:19:3f:c3:61:17:73:69:92:9d:87:ce:f9:23:c0:ea:4f:
         ff:df:ad:fd:80:de:42:44:18:5d:da:9f:e9:9c:04:73:e9:4c:
         5f:08:b7:aa:eb:5c:c6:13:d0:32:13:68:b5:28:df:f5:6f:8b:
         5a:e3:55:3b:5a:bb:0f:ac:d9:05:bf:13:4e:26:4e:59:e7:a4:
         6b:1e:83:23:97:31:09:cc:e7:8b:10:d3:00:b0:56:3a:06:94:
         7d:4d:8e:55:1f:aa:a8:fc:08:40:1c:d6:a3:12:c4:73:f5:0a:
         59:f1:82:ad:08:e4:7a:4e:a6:ad:7b:ff:12:61:72:d0:c9:1b:
         ba:b8:ec:2c:fb:e2:3f:7e:a3:0f:14:26:ec:e9:62:8a:7b:25:
         57:92:ce:a0:8d:c2:d3:5e:48:17:8d:32:ee:ce:74:a8:13:56:
         6d:f0:26:b6:8b:a4:1e:85:8e:67:fe:99:c3:e1:04:69:b5:49:
         21:25:fc:f1:f6:96:f5:35:5c:46:56:b0:76:26:c0:e3:aa:d7:
         23:c7:a4:c7:b1:e4:20:3d:11:55:5b:d2:37:3d:7e:b1:ee:fc:
         24:15:13:46
-----BEGIN CERTIFICATE-----
MIIELDCCAxSgAwIBAgIRAJBMZhuWGLmZEerit5uY0AkwDQYJKoZIhvcNAQELBQAw
QjELMAkGA1UEBhMCVVMxIjAgBgNVBAoMGVBvcnRsYW5kIFN0YXRlIFVuaXZlcnNp
dHkxDzANBgNVBAMMBlN1YiBDQTAeFw0yMjA0MDUyMDM3MjZaFw0yMzA0MDUyMDM3
MjZaMEIxCzAJBgNVBAYTAlVTMSIwIAYDVQQKDBlQb3J0bGFuZCBTdGF0ZSBVbml2
ZXJzaXR5MQ8wDQYDVQQDDAZTdWIgQ0EwggEiMA0GCSqGSIb3DQEBAQUAA4IBDwAw
ggEKAoIBAQDmEpqUPfGsdYvUizIc6p6lIGWfsoFTfwVuhhtVxPMWddCKsdsh1Ykk
mInW8gQ3j2iSsh3UPsxxuU0xDueLRo+gfkUTnQ+aELbdjAAoQQ20bhWA8zAgbLTy
zxG8dZ/xmM5gk3p6gsMPsCVf0vrI0xHW0wbrj5Gea4xmsn1q8u//mNZvn1cDEgFR
5s76fWvtlL2lQFQXBzTt6C8AkQd6/PcshLdRQyK9spXWUOxPHRRR5b+e9rpx1Vvn
q0VTt4zlxMkCB/EKKlSM1H4nyEMA8pkDtoW4qvTCTD9yOX3HpNFTTdVXaugtc1oi
ixbsYHQGJYgxXUwLe9Ts0Co72deFZKIJAgMBAAGjggEbMIIBFzBtBggrBgEFBQcB
AQRhMF8wLgYIKwYBBQUHMAKGImh0dHA6Ly9zdWItY2EubG9jYWxob3N0L3N1Yi1j
YS5jcnQwLQYIKwYBBQUHMAGGIWh0dHA6Ly9vY3NwLnN1Yi1jYS5sb2NhbGhvc3Q6
OTA4MTAfBgNVHSMEGDAWgBQgTvCzHr+8HzVqxXCOoNhw1dFXRDAMBgNVHRMBAf8E
AjAAMDMGA1UdHwQsMCowKKAmoCSGImh0dHA6Ly9zdWItY2EubG9jYWxob3N0L3N1
Yi1jYS5jcmwwEwYDVR0lBAwwCgYIKwYBBQUHAwIwDgYDVR0PAQH/BAQDAgeAMB0G
A1UdDgQWBBSf6Y38Ofwm7zSJhQmU7yzoPnFjYzANBgkqhkiG9w0BAQsFAAOCAQEA
Lnc3po2cK4K0HeKBm/G1Xqmrzj1zb/9E878gUOFQFpb6CFJ6kxIZP8NhF3Npkp2H
zvkjwOpP/9+t/YDeQkQYXdqf6ZwEc+lMXwi3qutcxhPQMhNotSjf9W+LWuNVO1q7
D6zZBb8TTiZOWeekax6DI5cxCcznixDTALBWOgaUfU2OVR+qqPwIQBzWoxLEc/UK
WfGCrQjkek6mrXv/EmFy0MkburjsLPviP36jDxQm7OliinslV5LOoI3C015IF40y
7s50qBNWbfAmtoukHoWOZ/6Zw+EEabVJISX88faW9TVcRlawdibA46rXI8ekx7Hk
ID0RVVvSNz1+se78JBUTRg==
-----END CERTIFICATE-----
