Certificate:
    Data:
        Version: 3 (0x2)
        Serial Number:
            90:4c:66:1b:96:18:b9:99:11:ea:e2:b7:9b:98:cf:de
        Signature Algorithm: sha256WithRSAEncryption
        Issuer: C=US, O=Portland State University, CN=Sub CA
        Validity
            Not Before: Apr  5 20:37:21 2022 GMT
            Not After : Apr  5 20:37:21 2023 GMT
        Subject: C=US, O=Portland State University, CN=Sub CA
        Subject Public Key Info:
            Public Key Algorithm: rsaEncryption
                RSA Public-Key: (2048 bit)
                Modulus:
                    00:c7:cc:c4:47:a7:1a:d0:65:69:83:a2:2c:3b:9a:
                    df:d5:5c:f8:89:25:07:ef:0a:d9:3c:8f:7c:52:36:
                    8e:bd:e7:94:12:9b:1c:95:26:cf:40:d2:b1:d0:09:
                    b8:c4:6d:44:13:5c:c0:df:f5:ed:e1:3b:4b:4b:63:
                    9d:59:97:b5:e5:75:96:48:5e:76:3a:5a:d1:98:87:
                    57:29:8f:f3:0c:9e:e4:8f:d9:d3:6c:aa:8e:99:94:
                    c1:a9:32:62:53:84:00:69:62:24:c9:e2:cd:41:4d:
                    bb:98:2d:ea:e7:cf:66:bd:1c:47:89:17:0e:9c:65:
                    d4:b6:11:de:31:75:55:03:f6:c2:ba:a1:2c:41:0e:
                    a7:94:f7:e2:c6:c2:27:e1:55:06:1d:b8:bb:b3:a9:
                    42:b3:09:83:b4:3b:69:e9:2a:35:ab:57:e5:63:88:
                    b9:59:48:ac:a9:5c:4c:bd:23:51:6b:d7:b8:23:4d:
                    bf:4f:7f:ec:4d:f7:0e:b3:5c:56:cf:03:4d:3f:e1:
                    ec:60:71:f3:44:f7:53:f7:18:a5:c4:2f:ca:6c:db:
                    30:e8:36:10:b4:cb:b4:88:a2:1b:92:15:a8:c7:6e:
                    53:8e:ee:e5:50:95:3b:87:14:a4:c4:93:97:b9:7a:
                    6f:d0:18:29:28:b7:12:18:af:51:64:c1:08:9f:63:
                    bd:b1
                Exponent: 65537 (0x10001)
        X509v3 extensions:
            Authority Information Access: 
                CA Issuers - URI:http://sub-ca.localhost/sub-ca.crt
                OCSP - URI:http://ocsp.sub-ca.localhost:9081

            X509v3 Authority Key Identifier: 
                keyid:20:4E:F0:B3:1E:BF:BC:1F:35:6A:C5:70:8E:A0:D8:70:D5:D1:57:44

            X509v3 Basic Constraints: critical
                CA:FALSE
            X509v3 CRL Distribution Points: 

                Full Name:
                  URI:http://sub-ca.localhost/sub-ca.crl

            X509v3 Extended Key Usage: 
                TLS Web Client Authentication
            X509v3 Key Usage: critical
                Digital Signature
            X509v3 Subject Key Identifier: 
                54:BA:40:0B:EE:FE:C3:DB:1E:74:C7:35:92:6C:FD:B0:B4:6D:8C:D7
    Signature Algorithm: sha256WithRSAEncryption
         ab:ca:fe:10:7a:38:49:a8:17:33:84:6e:60:48:b9:89:91:55:
         15:9a:52:de:b5:0f:36:2f:d0:2e:e6:ce:a8:72:bc:08:35:7a:
         3f:5c:d6:ec:d2:34:14:68:47:1e:c4:ef:68:76:ff:2f:16:5e:
         cd:76:ba:ee:f4:67:45:b2:2b:db:ac:32:96:f8:7b:ad:2c:64:
         d5:29:c4:f6:a1:58:a5:7e:86:dc:8a:8c:3a:ed:9f:79:8a:f1:
         97:06:f6:0f:74:35:7c:80:f5:12:72:b2:ed:e3:74:09:9d:19:
         40:3e:ae:7e:c3:12:a2:61:24:9d:7f:fe:b6:21:35:e8:7e:4d:
         fa:31:64:a1:93:45:1b:b7:05:e3:c2:23:ba:21:28:76:fd:a7:
         67:a8:fb:55:b3:c5:ab:0c:17:eb:12:a4:e5:0b:27:48:70:ee:
         75:9e:da:f8:2f:e1:74:fc:b2:01:ef:06:59:ff:96:0d:c6:02:
         72:fc:d0:59:e0:4f:95:db:32:e7:db:a4:a5:35:64:f1:ef:1e:
         f9:7c:a9:39:86:ef:f1:9e:99:8d:30:a1:56:4a:4f:37:11:97:
         56:80:99:96:07:e7:3a:a8:d2:97:eb:66:1a:b5:8c:a9:02:db:
         69:cb:6c:6d:af:e0:4c:d8:e5:09:60:31:40:a7:a4:80:14:89:
         02:6c:46:20
-----BEGIN CERTIFICATE-----
MIIELDCCAxSgAwIBAgIRAJBMZhuWGLmZEerit5uYz94wDQYJKoZIhvcNAQELBQAw
QjELMAkGA1UEBhMCVVMxIjAgBgNVBAoMGVBvcnRsYW5kIFN0YXRlIFVuaXZlcnNp
dHkxDzANBgNVBAMMBlN1YiBDQTAeFw0yMjA0MDUyMDM3MjFaFw0yMzA0MDUyMDM3
MjFaMEIxCzAJBgNVBAYTAlVTMSIwIAYDVQQKDBlQb3J0bGFuZCBTdGF0ZSBVbml2
ZXJzaXR5MQ8wDQYDVQQDDAZTdWIgQ0EwggEiMA0GCSqGSIb3DQEBAQUAA4IBDwAw
ggEKAoIBAQDHzMRHpxrQZWmDoiw7mt/VXPiJJQfvCtk8j3xSNo6955QSmxyVJs9A
0rHQCbjEbUQTXMDf9e3hO0tLY51Zl7XldZZIXnY6WtGYh1cpj/MMnuSP2dNsqo6Z
lMGpMmJThABpYiTJ4s1BTbuYLernz2a9HEeJFw6cZdS2Ed4xdVUD9sK6oSxBDqeU
9+LGwifhVQYduLuzqUKzCYO0O2npKjWrV+VjiLlZSKypXEy9I1Fr17gjTb9Pf+xN
9w6zXFbPA00/4exgcfNE91P3GKXEL8ps2zDoNhC0y7SIohuSFajHblOO7uVQlTuH
FKTEk5e5em/QGCkotxIYr1FkwQifY72xAgMBAAGjggEbMIIBFzBtBggrBgEFBQcB
AQRhMF8wLgYIKwYBBQUHMAKGImh0dHA6Ly9zdWItY2EubG9jYWxob3N0L3N1Yi1j
YS5jcnQwLQYIKwYBBQUHMAGGIWh0dHA6Ly9vY3NwLnN1Yi1jYS5sb2NhbGhvc3Q6
OTA4MTAfBgNVHSMEGDAWgBQgTvCzHr+8HzVqxXCOoNhw1dFXRDAMBgNVHRMBAf8E
AjAAMDMGA1UdHwQsMCowKKAmoCSGImh0dHA6Ly9zdWItY2EubG9jYWxob3N0L3N1
Yi1jYS5jcmwwEwYDVR0lBAwwCgYIKwYBBQUHAwIwDgYDVR0PAQH/BAQDAgeAMB0G
A1UdDgQWBBRUukAL7v7D2x50xzWSbP2wtG2M1zANBgkqhkiG9w0BAQsFAAOCAQEA
q8r+EHo4SagXM4RuYEi5iZFVFZpS3rUPNi/QLubOqHK8CDV6P1zW7NI0FGhHHsTv
aHb/LxZezXa67vRnRbIr26wylvh7rSxk1SnE9qFYpX6G3IqMOu2feYrxlwb2D3Q1
fID1EnKy7eN0CZ0ZQD6ufsMSomEknX/+tiE16H5N+jFkoZNFG7cF48IjuiEodv2n
Z6j7VbPFqwwX6xKk5QsnSHDudZ7a+C/hdPyyAe8GWf+WDcYCcvzQWeBPldsy59uk
pTVk8e8e+XypOYbv8Z6ZjTChVkpPNxGXVoCZlgfnOqjSl+tmGrWMqQLbactsba/g
TNjlCWAxQKekgBSJAmxGIA==
-----END CERTIFICATE-----
