Certificate:
    Data:
        Version: 3 (0x2)
        Serial Number:
            90:4c:66:1b:96:18:b9:99:11:ea:e2:b7:9b:98:cf:fc
        Signature Algorithm: sha256WithRSAEncryption
        Issuer: C=US, O=Portland State University, CN=Sub CA
        Validity
            Not Before: Apr  5 20:37:25 2022 GMT
            Not After : Apr  5 20:37:25 2023 GMT
        Subject: C=US, O=Portland State University, CN=Sub CA
        Subject Public Key Info:
            Public Key Algorithm: rsaEncryption
                RSA Public-Key: (2048 bit)
                Modulus:
                    00:cb:d8:b4:86:b4:9c:14:12:09:47:30:63:e7:70:
                    e3:bd:90:6f:77:9d:95:8f:83:e1:70:a6:ba:eb:fd:
                    fd:f8:9f:40:c4:4e:0f:b5:6e:d5:2d:cf:cd:0d:ac:
                    5d:f7:9b:0a:e5:ff:fc:a3:94:ad:48:8a:ff:5f:78:
                    fa:79:41:1f:9e:f7:74:81:c9:54:4c:e6:46:6e:50:
                    29:e5:85:af:9f:5b:ea:dd:80:e2:11:fa:a8:20:aa:
                    8b:ed:aa:e8:f2:38:ae:b0:00:dd:00:65:01:31:4a:
                    d8:8b:6b:7b:a1:b1:20:22:89:9a:a4:54:bb:3e:a7:
                    84:89:76:d1:3f:a2:64:73:75:46:73:45:5f:dc:5e:
                    2b:8d:fc:4c:16:5b:9d:12:8b:e0:fe:b4:4f:45:df:
                    ef:85:4c:1d:23:c0:3d:03:fa:bf:4b:73:da:ec:25:
                    d9:ea:42:30:59:5b:4b:69:be:cb:18:16:7c:d1:83:
                    c9:4f:a0:aa:e0:54:0a:d5:18:4c:c6:04:b6:d0:9b:
                    e9:28:a7:1b:ab:ed:b0:60:29:e5:08:26:f3:21:28:
                    1e:d9:e8:d3:f2:5a:03:25:02:90:34:99:cc:32:23:
                    56:35:80:d5:a9:80:4b:9e:ad:ba:e0:d0:4e:fd:69:
                    e8:d8:25:1f:5e:ab:2a:17:c8:ee:6d:68:2f:f7:84:
                    fd:83
                Exponent: 65537 (0x10001)
        X509v3 extensions:
            Authority Information Access: 
                CA Issuers - URI:http://sub-ca.localhost/sub-ca.crt
                OCSP - URI:http://ocsp.sub-ca.localhost:9081

            X509v3 Authority Key Identifier: 
                keyid:20:4E:F0:B3:1E:BF:BC:1F:35:6A:C5:70:8E:A0:D8:70:D5:D1:57:44

            X509v3 Basic Constraints: critical
                CA:FALSE
            X509v3 CRL Distribution Points: 

                Full Name:
                  URI:http://sub-ca.localhost/sub-ca.crl

            X509v3 Extended Key Usage: 
                TLS Web Client Authentication
            X509v3 Key Usage: critical
                Digital Signature
            X509v3 Subject Key Identifier: 
                B4:65:08:59:18:29:BB:AE:75:D0:F7:D7:9D:7D:5E:1E:3E:74:C4:A6
    Signature Algorithm: sha256WithRSAEncryption
         1d:a3:86:4e:ff:fd:6c:7e:c3:39:37:b2:91:fa:5e:42:f3:ec:
         6f:09:bf:32:d3:c4:a6:7b:f5:12:ed:b0:2c:dd:43:39:f6:79:
         62:71:b3:10:0a:51:7b:23:a5:a9:5f:1d:b7:09:bf:5d:e6:ab:
         20:0c:d3:4c:42:cf:9a:c3:c3:c7:6f:76:09:5e:d8:7e:65:d5:
         28:48:bf:1d:80:3f:d7:a6:f6:d1:0b:c3:f0:f1:65:82:f3:fd:
         dc:ed:82:d1:27:a4:35:d7:38:6b:ba:5a:e0:60:6b:6a:f7:60:
         82:c4:43:74:c6:55:e9:50:bd:8b:2b:e3:99:be:ba:72:9a:2c:
         cb:b2:20:31:1f:89:f4:1d:bc:35:44:e5:f0:36:a4:c3:84:50:
         6c:e8:eb:97:22:48:0d:d4:4f:5b:75:39:3b:67:8d:4d:7e:3d:
         3e:04:e5:00:d3:a8:b5:9a:e5:65:61:8b:20:1b:f4:d7:75:1b:
         80:fa:47:3c:45:89:85:c0:38:95:55:73:95:8f:78:06:82:1f:
         e7:43:a9:42:a4:c4:1f:36:6f:76:bc:c9:cb:6e:dd:8d:88:5a:
         a1:27:a1:2b:b7:75:b0:8c:bd:2c:c5:06:2d:5b:40:1c:f1:14:
         36:bd:7b:a1:40:e4:87:38:fa:c9:97:5c:55:e6:7a:f4:03:1c:
         de:c8:cf:81
-----BEGIN CERTIFICATE-----
MIIELDCCAxSgAwIBAgIRAJBMZhuWGLmZEerit5uYz/wwDQYJKoZIhvcNAQELBQAw
QjELMAkGA1UEBhMCVVMxIjAgBgNVBAoMGVBvcnRsYW5kIFN0YXRlIFVuaXZlcnNp
dHkxDzANBgNVBAMMBlN1YiBDQTAeFw0yMjA0MDUyMDM3MjVaFw0yMzA0MDUyMDM3
MjVaMEIxCzAJBgNVBAYTAlVTMSIwIAYDVQQKDBlQb3J0bGFuZCBTdGF0ZSBVbml2
ZXJzaXR5MQ8wDQYDVQQDDAZTdWIgQ0EwggEiMA0GCSqGSIb3DQEBAQUAA4IBDwAw
ggEKAoIBAQDL2LSGtJwUEglHMGPncOO9kG93nZWPg+Fwprrr/f34n0DETg+1btUt
z80NrF33mwrl//yjlK1Iiv9fePp5QR+e93SByVRM5kZuUCnlha+fW+rdgOIR+qgg
qovtqujyOK6wAN0AZQExStiLa3uhsSAiiZqkVLs+p4SJdtE/omRzdUZzRV/cXiuN
/EwWW50Si+D+tE9F3++FTB0jwD0D+r9Lc9rsJdnqQjBZW0tpvssYFnzRg8lPoKrg
VArVGEzGBLbQm+kopxur7bBgKeUIJvMhKB7Z6NPyWgMlApA0mcwyI1Y1gNWpgEue
rbrg0E79aejYJR9eqyoXyO5taC/3hP2DAgMBAAGjggEbMIIBFzBtBggrBgEFBQcB
AQRhMF8wLgYIKwYBBQUHMAKGImh0dHA6Ly9zdWItY2EubG9jYWxob3N0L3N1Yi1j
YS5jcnQwLQYIKwYBBQUHMAGGIWh0dHA6Ly9vY3NwLnN1Yi1jYS5sb2NhbGhvc3Q6
OTA4MTAfBgNVHSMEGDAWgBQgTvCzHr+8HzVqxXCOoNhw1dFXRDAMBgNVHRMBAf8E
AjAAMDMGA1UdHwQsMCowKKAmoCSGImh0dHA6Ly9zdWItY2EubG9jYWxob3N0L3N1
Yi1jYS5jcmwwEwYDVR0lBAwwCgYIKwYBBQUHAwIwDgYDVR0PAQH/BAQDAgeAMB0G
A1UdDgQWBBS0ZQhZGCm7rnXQ99edfV4ePnTEpjANBgkqhkiG9w0BAQsFAAOCAQEA
HaOGTv/9bH7DOTeykfpeQvPsbwm/MtPEpnv1Eu2wLN1DOfZ5YnGzEApReyOlqV8d
twm/XearIAzTTELPmsPDx292CV7YfmXVKEi/HYA/16b20QvD8PFlgvP93O2C0Sek
Ndc4a7pa4GBravdggsRDdMZV6VC9iyvjmb66cposy7IgMR+J9B28NUTl8Dakw4RQ
bOjrlyJIDdRPW3U5O2eNTX49PgTlANOotZrlZWGLIBv013UbgPpHPEWJhcA4lVVz
lY94BoIf50OpQqTEHzZvdrzJy27djYhaoSehK7d1sIy9LMUGLVtAHPEUNr17oUDk
hzj6yZdcVeZ69AMc3sjPgQ==
-----END CERTIFICATE-----
