Certificate:
    Data:
        Version: 3 (0x2)
        Serial Number:
            90:4c:66:1b:96:18:b9:99:11:ea:e2:b7:9b:98:d0:0a
        Signature Algorithm: sha256WithRSAEncryption
        Issuer: C=US, O=Portland State University, CN=Sub CA
        Validity
            Not Before: Apr  5 20:37:26 2022 GMT
            Not After : Apr  5 20:37:26 2023 GMT
        Subject: C=US, O=Portland State University, CN=Sub CA
        Subject Public Key Info:
            Public Key Algorithm: rsaEncryption
                RSA Public-Key: (2048 bit)
                Modulus:
                    00:c3:36:fc:96:f5:46:e5:5f:f4:af:ce:39:9c:5d:
                    31:1e:a4:42:66:7b:c3:81:11:c1:69:21:c1:69:cf:
                    ea:b6:35:fb:b2:25:85:6f:01:a2:28:2d:82:08:d3:
                    7c:ec:fb:4b:f1:a4:84:85:1f:f0:57:35:6a:03:46:
                    b3:d5:42:c8:e5:82:2f:97:45:09:a9:d9:a8:09:4d:
                    f0:b7:38:f3:f9:aa:a7:d6:60:b5:4f:dd:93:03:49:
                    05:16:cc:5d:8a:79:95:80:38:fd:7a:f4:ee:b2:b7:
                    1f:76:b0:99:11:e7:89:4f:db:6d:f8:19:58:7f:4b:
                    d7:a7:9e:7d:f4:56:0e:d2:17:72:f5:e4:23:b7:f3:
                    cd:54:df:c5:d1:a7:a3:09:9b:37:79:80:3c:d6:96:
                    35:13:48:d3:be:45:a0:40:5a:f8:ec:cb:90:3b:ab:
                    af:ee:e7:bf:d1:a5:a2:03:59:b5:d5:09:f9:64:ec:
                    39:f1:3f:f3:fd:c1:c9:b4:a2:4f:2e:88:30:b2:37:
                    b7:96:a4:1a:d9:82:4a:d4:c8:ba:af:6e:17:97:42:
                    92:af:be:17:77:7f:1c:ed:c8:83:90:e0:11:56:e8:
                    b0:15:9a:c0:6d:28:e7:50:c3:8a:e7:aa:ec:36:7c:
                    dc:8c:9b:d7:a9:bc:0b:16:77:7f:cd:e5:84:93:d7:
                    17:7b
                Exponent: 65537 (0x10001)
        X509v3 extensions:
            Authority Information Access: 
                CA Issuers - URI:http://sub-ca.localhost/sub-ca.crt
                OCSP - URI:http://ocsp.sub-ca.localhost:9081

            X509v3 Authority Key Identifier: 
                keyid:20:4E:F0:B3:1E:BF:BC:1F:35:6A:C5:70:8E:A0:D8:70:D5:D1:57:44

            X509v3 Basic Constraints: critical
                CA:FALSE
            X509v3 CRL Distribution Points: 

                Full Name:
                  URI:http://sub-ca.localhost/sub-ca.crl

            X509v3 Extended Key Usage: 
                TLS Web Client Authentication
            X509v3 Key Usage: critical
                Digital Signature
            X509v3 Subject Key Identifier: 
                AC:FA:B5:DD:C3:EA:C4:92:22:E2:2D:40:90:82:C9:B1:69:1C:B4:BB
    Signature Algorithm: sha256WithRSAEncryption
         35:03:97:eb:18:c3:10:2f:4c:ad:fb:03:b4:71:3a:d2:08:6b:
         8a:1f:97:a6:15:11:e9:23:84:74:ad:c1:33:46:fb:7c:ea:ed:
         0c:5c:7c:7b:1c:f1:d0:23:3a:5d:57:5c:67:95:db:2c:ed:70:
         1a:59:ea:47:28:21:76:ed:c2:ab:83:0b:95:01:91:77:94:4d:
         57:a4:97:80:6f:07:a8:88:13:16:bc:35:61:0a:37:55:21:da:
         30:a5:f7:c5:db:6f:33:dc:6a:d4:37:49:9d:67:82:33:58:b5:
         ce:8f:7a:c0:77:58:c8:a8:11:83:60:91:9f:dc:c5:c8:a3:64:
         d1:25:9b:2d:dd:50:b9:6e:8d:ff:ab:eb:92:94:38:d3:bc:7f:
         d6:ef:79:63:dd:3c:81:e2:48:03:36:2f:eb:63:02:0c:35:66:
         fe:47:a0:e9:cc:66:17:67:07:fb:34:88:19:7d:a7:dd:5a:96:
         c4:d0:94:f9:15:04:20:d3:3c:27:28:09:59:e3:c9:15:b2:eb:
         53:36:c6:c6:03:b0:83:9a:45:94:92:57:18:11:c7:f7:80:12:
         18:04:88:1a:d3:b6:d7:56:50:b3:fc:c6:4a:68:de:b3:03:59:
         ee:1b:b6:89:d2:4c:54:bd:f1:0a:5e:13:31:76:b2:48:64:77:
         de:b5:93:ba
-----BEGIN CERTIFICATE-----
MIIELDCCAxSgAwIBAgIRAJBMZhuWGLmZEerit5uY0AowDQYJKoZIhvcNAQELBQAw
QjELMAkGA1UEBhMCVVMxIjAgBgNVBAoMGVBvcnRsYW5kIFN0YXRlIFVuaXZlcnNp
dHkxDzANBgNVBAMMBlN1YiBDQTAeFw0yMjA0MDUyMDM3MjZaFw0yMzA0MDUyMDM3
MjZaMEIxCzAJBgNVBAYTAlVTMSIwIAYDVQQKDBlQb3J0bGFuZCBTdGF0ZSBVbml2
ZXJzaXR5MQ8wDQYDVQQDDAZTdWIgQ0EwggEiMA0GCSqGSIb3DQEBAQUAA4IBDwAw
ggEKAoIBAQDDNvyW9UblX/SvzjmcXTEepEJme8OBEcFpIcFpz+q2NfuyJYVvAaIo
LYII03zs+0vxpISFH/BXNWoDRrPVQsjlgi+XRQmp2agJTfC3OPP5qqfWYLVP3ZMD
SQUWzF2KeZWAOP169O6ytx92sJkR54lP2234GVh/S9ennn30Vg7SF3L15CO3881U
38XRp6MJmzd5gDzWljUTSNO+RaBAWvjsy5A7q6/u57/RpaIDWbXVCflk7DnxP/P9
wcm0ok8uiDCyN7eWpBrZgkrUyLqvbheXQpKvvhd3fxztyIOQ4BFW6LAVmsBtKOdQ
w4rnquw2fNyMm9epvAsWd3/N5YST1xd7AgMBAAGjggEbMIIBFzBtBggrBgEFBQcB
AQRhMF8wLgYIKwYBBQUHMAKGImh0dHA6Ly9zdWItY2EubG9jYWxob3N0L3N1Yi1j
YS5jcnQwLQYIKwYBBQUHMAGGIWh0dHA6Ly9vY3NwLnN1Yi1jYS5sb2NhbGhvc3Q6
OTA4MTAfBgNVHSMEGDAWgBQgTvCzHr+8HzVqxXCOoNhw1dFXRDAMBgNVHRMBAf8E
AjAAMDMGA1UdHwQsMCowKKAmoCSGImh0dHA6Ly9zdWItY2EubG9jYWxob3N0L3N1
Yi1jYS5jcmwwEwYDVR0lBAwwCgYIKwYBBQUHAwIwDgYDVR0PAQH/BAQDAgeAMB0G
A1UdDgQWBBSs+rXdw+rEkiLiLUCQgsmxaRy0uzANBgkqhkiG9w0BAQsFAAOCAQEA
NQOX6xjDEC9MrfsDtHE60ghrih+XphUR6SOEdK3BM0b7fOrtDFx8exzx0CM6XVdc
Z5XbLO1wGlnqRyghdu3Cq4MLlQGRd5RNV6SXgG8HqIgTFrw1YQo3VSHaMKX3xdtv
M9xq1DdJnWeCM1i1zo96wHdYyKgRg2CRn9zFyKNk0SWbLd1QuW6N/6vrkpQ407x/
1u95Y908geJIAzYv62MCDDVm/keg6cxmF2cH+zSIGX2n3VqWxNCU+RUEINM8JygJ
WePJFbLrUzbGxgOwg5pFlJJXGBHH94ASGASIGtO211ZQs/zGSmjeswNZ7hu2idJM
VL3xCl4TMXaySGR33rWTug==
-----END CERTIFICATE-----
