Certificate:
    Data:
        Version: 3 (0x2)
        Serial Number:
            90:4c:66:1b:96:18:b9:99:11:ea:e2:b7:9b:98:cf:e2
        Signature Algorithm: sha256WithRSAEncryption
        Issuer: C=US, O=Portland State University, CN=Sub CA
        Validity
            Not Before: Apr  5 20:37:22 2022 GMT
            Not After : Apr  5 20:37:22 2023 GMT
        Subject: C=US, O=Portland State University, CN=Sub CA
        Subject Public Key Info:
            Public Key Algorithm: rsaEncryption
                RSA Public-Key: (2048 bit)
                Modulus:
                    00:c5:f8:a9:d0:a5:29:61:90:9f:e9:bd:40:cb:f9:
                    16:98:6e:d4:c4:94:6e:a6:95:5c:7a:00:84:f5:26:
                    17:51:20:c6:77:6e:56:6d:68:96:56:b4:68:4f:19:
                    0e:32:6d:7a:87:1a:0a:f7:85:28:e5:11:8f:8a:9c:
                    e9:ea:ae:dc:7b:55:03:fc:1a:de:18:9d:d5:b3:3f:
                    f1:bd:8d:de:e8:d7:a1:30:96:d7:cb:fa:33:a7:cd:
                    27:ba:b4:0e:9d:fe:9b:9c:9b:c8:b0:24:5e:ab:2b:
                    fa:46:8d:0b:ed:10:7c:02:f1:8e:7a:e6:5e:71:27:
                    4c:ed:36:4e:67:c1:86:cf:9a:18:16:ff:83:14:8b:
                    6e:d1:a4:51:33:1e:4d:9f:89:ba:89:0c:6b:33:eb:
                    4e:e7:90:8b:c5:66:3e:70:8c:00:13:0a:df:8a:c4:
                    a3:e1:ce:97:50:50:cf:8f:69:32:0c:b7:d2:67:8a:
                    bd:96:a2:0c:33:32:b3:8a:2b:c6:e4:22:4c:d7:6a:
                    77:50:c0:27:73:02:cb:e6:b4:18:16:3f:18:b0:11:
                    ce:81:b6:10:ff:9e:dd:74:05:54:55:db:89:7e:c6:
                    96:dc:c0:49:83:82:f3:70:f4:b9:8b:63:8b:b0:53:
                    74:87:d7:24:0a:30:b8:ca:64:c1:6b:9e:10:ac:6a:
                    52:dd
                Exponent: 65537 (0x10001)
        X509v3 extensions:
            Authority Information Access: 
                CA Issuers - URI:http://sub-ca.localhost/sub-ca.crt
                OCSP - URI:http://ocsp.sub-ca.localhost:9081

            X509v3 Authority Key Identifier: 
                keyid:20:4E:F0:B3:1E:BF:BC:1F:35:6A:C5:70:8E:A0:D8:70:D5:D1:57:44

            X509v3 Basic Constraints: critical
                CA:FALSE
            X509v3 CRL Distribution Points: 

                Full Name:
                  URI:http://sub-ca.localhost/sub-ca.crl

            X509v3 Extended Key Usage: 
                TLS Web Client Authentication
            X509v3 Key Usage: critical
                Digital Signature
            X509v3 Subject Key Identifier: 
                C2:83:26:E1:E1:66:12:6E:B8:D3:00:8C:0F:E8:8B:06:49:2A:D2:BC
    Signature Algorithm: sha256WithRSAEncryption
         9d:fc:20:19:08:2c:01:63:6e:55:6c:85:5c:0c:2c:0d:0c:f2:
         73:5f:53:7c:00:e0:e4:20:3c:64:98:76:10:61:9e:c2:29:ae:
         8f:34:b7:ca:ee:3b:f6:eb:f6:26:65:fc:92:ea:54:07:80:b6:
         32:54:32:dd:da:ae:26:d1:0c:fe:39:cc:62:ab:68:cb:02:61:
         08:85:77:b4:cc:90:0a:54:a7:f8:16:19:90:72:bd:47:26:ee:
         2f:b2:8e:f0:04:05:73:d3:fd:3b:9d:7c:72:59:5f:5d:f2:d3:
         2d:da:d0:3c:0c:ad:67:3e:88:2a:38:33:46:27:e0:bb:2a:58:
         6e:2a:5b:83:11:9a:a9:fc:bf:4a:94:2c:8b:9f:ce:c1:2f:15:
         44:92:e8:62:d3:53:ac:36:17:1c:25:4d:ad:13:c3:da:c5:a1:
         48:0b:2d:41:eb:94:fb:9a:2f:6c:45:62:40:6e:d2:89:cf:dc:
         38:b9:76:d6:d5:14:a6:4e:34:59:d5:de:22:be:16:59:80:42:
         a3:72:2e:53:72:f7:3e:86:ca:0e:36:49:63:6a:55:7c:98:08:
         a1:db:61:07:82:9e:b9:42:46:b4:dd:60:0d:6c:4f:00:15:bf:
         be:12:c4:af:d6:33:5a:87:8a:b5:62:db:2e:5d:39:e5:8b:39:
         c2:c1:29:3c
-----BEGIN CERTIFICATE-----
MIIELDCCAxSgAwIBAgIRAJBMZhuWGLmZEerit5uYz+IwDQYJKoZIhvcNAQELBQAw
QjELMAkGA1UEBhMCVVMxIjAgBgNVBAoMGVBvcnRsYW5kIFN0YXRlIFVuaXZlcnNp
dHkxDzANBgNVBAMMBlN1YiBDQTAeFw0yMjA0MDUyMDM3MjJaFw0yMzA0MDUyMDM3
MjJaMEIxCzAJBgNVBAYTAlVTMSIwIAYDVQQKDBlQb3J0bGFuZCBTdGF0ZSBVbml2
ZXJzaXR5MQ8wDQYDVQQDDAZTdWIgQ0EwggEiMA0GCSqGSIb3DQEBAQUAA4IBDwAw
ggEKAoIBAQDF+KnQpSlhkJ/pvUDL+RaYbtTElG6mlVx6AIT1JhdRIMZ3blZtaJZW
tGhPGQ4ybXqHGgr3hSjlEY+KnOnqrtx7VQP8Gt4YndWzP/G9jd7o16EwltfL+jOn
zSe6tA6d/pucm8iwJF6rK/pGjQvtEHwC8Y565l5xJ0ztNk5nwYbPmhgW/4MUi27R
pFEzHk2fibqJDGsz607nkIvFZj5wjAATCt+KxKPhzpdQUM+PaTIMt9Jnir2Wogwz
MrOKK8bkIkzXandQwCdzAsvmtBgWPxiwEc6BthD/nt10BVRV24l+xpbcwEmDgvNw
9LmLY4uwU3SH1yQKMLjKZMFrnhCsalLdAgMBAAGjggEbMIIBFzBtBggrBgEFBQcB
AQRhMF8wLgYIKwYBBQUHMAKGImh0dHA6Ly9zdWItY2EubG9jYWxob3N0L3N1Yi1j
YS5jcnQwLQYIKwYBBQUHMAGGIWh0dHA6Ly9vY3NwLnN1Yi1jYS5sb2NhbGhvc3Q6
OTA4MTAfBgNVHSMEGDAWgBQgTvCzHr+8HzVqxXCOoNhw1dFXRDAMBgNVHRMBAf8E
AjAAMDMGA1UdHwQsMCowKKAmoCSGImh0dHA6Ly9zdWItY2EubG9jYWxob3N0L3N1
Yi1jYS5jcmwwEwYDVR0lBAwwCgYIKwYBBQUHAwIwDgYDVR0PAQH/BAQDAgeAMB0G
A1UdDgQWBBTCgybh4WYSbrjTAIwP6IsGSSrSvDANBgkqhkiG9w0BAQsFAAOCAQEA
nfwgGQgsAWNuVWyFXAwsDQzyc19TfADg5CA8ZJh2EGGewimujzS3yu479uv2JmX8
kupUB4C2MlQy3dquJtEM/jnMYqtoywJhCIV3tMyQClSn+BYZkHK9RybuL7KO8AQF
c9P9O518cllfXfLTLdrQPAytZz6IKjgzRifguypYbipbgxGaqfy/SpQsi5/OwS8V
RJLoYtNTrDYXHCVNrRPD2sWhSAstQeuU+5ovbEViQG7Sic/cOLl21tUUpk40WdXe
Ir4WWYBCo3IuU3L3PobKDjZJY2pVfJgIodthB4KeuUJGtN1gDWxPABW/vhLEr9Yz
WoeKtWLbLl055Ys5wsEpPA==
-----END CERTIFICATE-----
