Certificate:
    Data:
        Version: 3 (0x2)
        Serial Number:
            90:4c:66:1b:96:18:b9:99:11:ea:e2:b7:9b:98:cf:eb
        Signature Algorithm: sha256WithRSAEncryption
        Issuer: C=US, O=Portland State University, CN=Sub CA
        Validity
            Not Before: Apr  5 20:37:23 2022 GMT
            Not After : Apr  5 20:37:23 2023 GMT
        Subject: C=US, O=Portland State University, CN=Sub CA
        Subject Public Key Info:
            Public Key Algorithm: rsaEncryption
                RSA Public-Key: (2048 bit)
                Modulus:
                    00:a1:02:b0:4c:39:69:56:53:dc:b6:a5:e3:80:86:
                    64:52:29:a9:4a:89:9b:54:44:79:aa:58:1d:6c:3a:
                    db:03:7e:91:34:b2:22:0d:0e:d5:7f:97:9d:6b:41:
                    e2:c4:d0:5a:51:66:21:6b:57:ac:9d:9f:63:44:27:
                    03:fc:8a:64:1d:52:50:fc:45:10:7d:7f:7f:fa:cb:
                    8a:bc:72:fd:2a:77:7d:4c:1b:c8:03:b7:b5:a6:57:
                    f2:d4:ec:f5:46:1e:9b:2b:dd:79:2c:9c:0f:c2:1b:
                    74:3a:80:7a:57:d0:96:2a:78:d3:5c:44:16:c0:02:
                    5e:b8:09:8d:43:be:7a:e6:13:84:fd:23:3b:bb:2a:
                    e5:1d:4b:cd:ab:2c:42:5b:e5:86:b5:e4:42:bc:e7:
                    80:53:37:6c:bf:4a:7e:91:11:2c:0a:89:f1:21:a5:
                    f9:67:f0:63:7a:1c:b2:17:8d:96:8e:69:59:f0:96:
                    91:74:ff:d2:dd:7b:0c:a3:a0:92:20:98:72:d5:f5:
                    1d:43:6d:a9:35:32:b4:77:77:a0:dc:3b:2c:7a:c9:
                    20:85:e0:de:73:70:5f:d4:a6:b1:3b:db:8e:81:ee:
                    26:e9:c2:58:44:e1:75:22:83:13:9e:94:56:1a:6f:
                    10:23:bc:f4:96:85:73:37:02:b3:9e:6c:9b:e8:81:
                    97:69
                Exponent: 65537 (0x10001)
        X509v3 extensions:
            Authority Information Access: 
                CA Issuers - URI:http://sub-ca.localhost/sub-ca.crt
                OCSP - URI:http://ocsp.sub-ca.localhost:9081

            X509v3 Authority Key Identifier: 
                keyid:20:4E:F0:B3:1E:BF:BC:1F:35:6A:C5:70:8E:A0:D8:70:D5:D1:57:44

            X509v3 Basic Constraints: critical
                CA:FALSE
            X509v3 CRL Distribution Points: 

                Full Name:
                  URI:http://sub-ca.localhost/sub-ca.crl

            X509v3 Extended Key Usage: 
                TLS Web Client Authentication
            X509v3 Key Usage: critical
                Digital Signature
            X509v3 Subject Key Identifier: 
                D9:D4:F2:5F:B4:FE:E0:7A:C2:C7:BB:CE:B6:E1:66:2E:FD:2A:51:84
    Signature Algorithm: sha256WithRSAEncryption
         a2:d3:57:dd:fa:be:39:38:3d:4c:bc:70:7a:7c:b0:bd:40:ce:
         f4:d4:6f:ac:d1:25:88:9d:42:f2:20:f7:2e:fd:f5:e7:a9:dd:
         27:ff:7d:a6:53:cd:fa:c3:c5:7b:08:9a:c9:af:7a:05:ee:83:
         4b:c6:ed:b4:49:29:00:ba:81:39:d0:f3:c1:b9:59:88:69:4b:
         6d:ec:4c:ef:2d:fa:5e:f1:9a:3a:42:2c:5b:92:1d:3b:75:13:
         83:77:d3:d7:11:56:d9:db:f6:64:2e:eb:78:26:fc:60:34:8a:
         bb:ed:83:3a:fd:eb:58:ff:fc:f5:d3:b7:55:ac:36:54:ce:13:
         a9:69:2b:f6:11:68:f8:0d:14:10:c3:80:75:00:98:8b:59:b0:
         37:97:b0:48:56:16:54:05:10:ea:17:66:d0:1a:9d:4b:be:bd:
         1b:08:90:8d:c5:b1:a5:a3:e8:9e:7f:69:c8:be:80:94:fe:95:
         3c:fb:7c:6c:cc:50:69:fd:59:7d:f8:6a:36:07:9d:70:39:6b:
         b1:06:c2:fa:71:52:39:48:7d:4a:08:57:b0:46:db:98:f5:f5:
         ef:17:30:15:1f:a2:31:15:29:fe:53:d8:66:d0:60:be:eb:82:
         e1:a6:b3:69:6f:7e:86:40:19:a8:5d:7f:e2:26:a9:58:4e:06:
         55:d3:64:ad
-----BEGIN CERTIFICATE-----
MIIELDCCAxSgAwIBAgIRAJBMZhuWGLmZEerit5uYz+swDQYJKoZIhvcNAQELBQAw
QjELMAkGA1UEBhMCVVMxIjAgBgNVBAoMGVBvcnRsYW5kIFN0YXRlIFVuaXZlcnNp
dHkxDzANBgNVBAMMBlN1YiBDQTAeFw0yMjA0MDUyMDM3MjNaFw0yMzA0MDUyMDM3
MjNaMEIxCzAJBgNVBAYTAlVTMSIwIAYDVQQKDBlQb3J0bGFuZCBTdGF0ZSBVbml2
ZXJzaXR5MQ8wDQYDVQQDDAZTdWIgQ0EwggEiMA0GCSqGSIb3DQEBAQUAA4IBDwAw
ggEKAoIBAQChArBMOWlWU9y2peOAhmRSKalKiZtURHmqWB1sOtsDfpE0siINDtV/
l51rQeLE0FpRZiFrV6ydn2NEJwP8imQdUlD8RRB9f3/6y4q8cv0qd31MG8gDt7Wm
V/LU7PVGHpsr3XksnA/CG3Q6gHpX0JYqeNNcRBbAAl64CY1DvnrmE4T9Izu7KuUd
S82rLEJb5Ya15EK854BTN2y/Sn6RESwKifEhpfln8GN6HLIXjZaOaVnwlpF0/9Ld
ewyjoJIgmHLV9R1Dbak1MrR3d6DcOyx6ySCF4N5zcF/UprE7246B7ibpwlhE4XUi
gxOelFYabxAjvPSWhXM3ArOebJvogZdpAgMBAAGjggEbMIIBFzBtBggrBgEFBQcB
AQRhMF8wLgYIKwYBBQUHMAKGImh0dHA6Ly9zdWItY2EubG9jYWxob3N0L3N1Yi1j
YS5jcnQwLQYIKwYBBQUHMAGGIWh0dHA6Ly9vY3NwLnN1Yi1jYS5sb2NhbGhvc3Q6
OTA4MTAfBgNVHSMEGDAWgBQgTvCzHr+8HzVqxXCOoNhw1dFXRDAMBgNVHRMBAf8E
AjAAMDMGA1UdHwQsMCowKKAmoCSGImh0dHA6Ly9zdWItY2EubG9jYWxob3N0L3N1
Yi1jYS5jcmwwEwYDVR0lBAwwCgYIKwYBBQUHAwIwDgYDVR0PAQH/BAQDAgeAMB0G
A1UdDgQWBBTZ1PJftP7gesLHu8624WYu/SpRhDANBgkqhkiG9w0BAQsFAAOCAQEA
otNX3fq+OTg9TLxwenywvUDO9NRvrNEliJ1C8iD3Lv3156ndJ/99plPN+sPFewia
ya96Be6DS8bttEkpALqBOdDzwblZiGlLbexM7y36XvGaOkIsW5IdO3UTg3fT1xFW
2dv2ZC7reCb8YDSKu+2DOv3rWP/89dO3Vaw2VM4TqWkr9hFo+A0UEMOAdQCYi1mw
N5ewSFYWVAUQ6hdm0BqdS769GwiQjcWxpaPonn9pyL6AlP6VPPt8bMxQaf1Zffhq
NgedcDlrsQbC+nFSOUh9SghXsEbbmPX17xcwFR+iMRUp/lPYZtBgvuuC4aazaW9+
hkAZqF1/4iapWE4GVdNkrQ==
-----END CERTIFICATE-----
