Certificate:
    Data:
        Version: 3 (0x2)
        Serial Number:
            90:4c:66:1b:96:18:b9:99:11:ea:e2:b7:9b:98:cf:d5
        Signature Algorithm: sha256WithRSAEncryption
        Issuer: C=US, O=Portland State University, CN=Sub CA
        Validity
            Not Before: Apr  5 20:37:20 2022 GMT
            Not After : Apr  5 20:37:20 2023 GMT
        Subject: C=US, O=Portland State University, CN=Sub CA
        Subject Public Key Info:
            Public Key Algorithm: rsaEncryption
                RSA Public-Key: (2048 bit)
                Modulus:
                    00:a7:f5:2c:48:a3:51:b3:f2:1a:d1:2a:10:b8:c9:
                    05:87:61:25:59:ff:a5:9a:aa:30:b5:56:6e:e0:ff:
                    22:66:05:e5:e9:9d:e8:ae:7d:cf:87:b7:18:16:29:
                    6d:cc:f5:2c:f6:08:67:c4:8a:24:7f:96:8d:10:a4:
                    39:80:c3:16:a3:e3:93:66:fe:d9:c2:b0:9b:cb:de:
                    37:a6:13:91:b7:f5:99:e4:08:a9:6b:36:d0:d8:01:
                    73:df:a9:90:40:42:77:c4:0a:e8:cf:d8:69:3c:17:
                    c5:c3:11:53:91:71:e6:8e:f2:b6:4f:9c:f1:bd:86:
                    49:7c:b8:61:ce:9f:49:25:ee:44:fb:20:45:42:f9:
                    fc:2b:62:a3:4b:d0:fd:46:57:2c:df:dc:ac:b9:5a:
                    cf:79:0f:a9:45:00:98:ed:80:99:4d:c3:28:17:15:
                    c4:9e:d0:bc:bd:a9:46:4c:7f:37:57:59:c6:44:dc:
                    15:e2:5b:c2:93:94:33:af:e1:97:76:c6:bb:b9:4b:
                    92:16:7c:99:44:32:78:ac:85:69:09:57:e6:be:61:
                    11:86:d3:ef:16:f9:8c:c4:1a:8e:3a:aa:f3:88:d7:
                    9c:e5:19:a7:75:47:0f:39:df:96:a5:aa:92:b8:40:
                    cd:b1:ea:3f:3c:28:5b:4c:e4:24:6f:eb:aa:bb:ef:
                    d9:5d
                Exponent: 65537 (0x10001)
        X509v3 extensions:
            Authority Information Access: 
                CA Issuers - URI:http://sub-ca.localhost/sub-ca.crt
                OCSP - URI:http://ocsp.sub-ca.localhost:9081

            X509v3 Authority Key Identifier: 
                keyid:20:4E:F0:B3:1E:BF:BC:1F:35:6A:C5:70:8E:A0:D8:70:D5:D1:57:44

            X509v3 Basic Constraints: critical
                CA:FALSE
            X509v3 CRL Distribution Points: 

                Full Name:
                  URI:http://sub-ca.localhost/sub-ca.crl

            X509v3 Extended Key Usage: 
                TLS Web Client Authentication
            X509v3 Key Usage: critical
                Digital Signature
            X509v3 Subject Key Identifier: 
                8F:55:04:6A:16:7B:29:CD:80:26:65:10:7B:36:59:8D:56:D5:0F:C9
    Signature Algorithm: sha256WithRSAEncryption
         9f:d7:e9:93:4b:fe:8c:c0:c0:60:cf:62:e6:f9:08:92:9a:25:
         d6:00:e5:c9:93:8c:76:0b:11:e4:ef:20:03:8c:18:75:fe:56:
         1c:d5:7a:56:69:09:ae:22:e5:68:4c:c9:ef:3e:9a:c8:12:1b:
         db:7f:23:cc:48:ce:51:b3:a5:0b:4a:d4:f1:1a:87:5b:5c:f7:
         82:a7:02:5f:b6:89:87:34:eb:67:6e:fb:d3:a7:fe:fe:3f:f5:
         67:6e:5f:80:cb:70:e7:59:2f:57:f1:56:4a:ef:d3:28:54:61:
         78:e4:76:13:a7:d3:6b:99:7a:91:5a:84:31:b8:d3:80:42:47:
         7b:83:cd:7c:9e:c4:55:3f:9a:be:35:d9:e6:87:c8:8d:fe:4c:
         6b:00:60:ab:89:2c:20:06:ed:c8:79:08:9d:23:ac:74:37:04:
         1c:5a:21:42:09:60:95:d0:ce:5d:39:ac:7f:fb:6a:cf:af:55:
         f2:a9:52:2b:fa:a6:61:df:77:8f:f0:46:0b:ec:b5:8c:d8:78:
         11:86:ff:04:79:9e:45:cf:92:8c:07:8b:52:da:79:67:57:dc:
         db:d7:ea:65:80:a9:d6:25:14:3f:d0:56:17:7c:e5:35:b1:16:
         79:fa:b7:6f:cc:77:e0:bc:33:01:a9:f5:7a:19:50:71:d3:f6:
         1c:15:11:ae
-----BEGIN CERTIFICATE-----
MIIELDCCAxSgAwIBAgIRAJBMZhuWGLmZEerit5uYz9UwDQYJKoZIhvcNAQELBQAw
QjELMAkGA1UEBhMCVVMxIjAgBgNVBAoMGVBvcnRsYW5kIFN0YXRlIFVuaXZlcnNp
dHkxDzANBgNVBAMMBlN1YiBDQTAeFw0yMjA0MDUyMDM3MjBaFw0yMzA0MDUyMDM3
MjBaMEIxCzAJBgNVBAYTAlVTMSIwIAYDVQQKDBlQb3J0bGFuZCBTdGF0ZSBVbml2
ZXJzaXR5MQ8wDQYDVQQDDAZTdWIgQ0EwggEiMA0GCSqGSIb3DQEBAQUAA4IBDwAw
ggEKAoIBAQCn9SxIo1Gz8hrRKhC4yQWHYSVZ/6WaqjC1Vm7g/yJmBeXpneiufc+H
txgWKW3M9Sz2CGfEiiR/lo0QpDmAwxaj45Nm/tnCsJvL3jemE5G39ZnkCKlrNtDY
AXPfqZBAQnfECujP2Gk8F8XDEVORceaO8rZPnPG9hkl8uGHOn0kl7kT7IEVC+fwr
YqNL0P1GVyzf3Ky5Ws95D6lFAJjtgJlNwygXFcSe0Ly9qUZMfzdXWcZE3BXiW8KT
lDOv4Zd2xru5S5IWfJlEMnishWkJV+a+YRGG0+8W+YzEGo46qvOI15zlGad1Rw85
35alqpK4QM2x6j88KFtM5CRv66q779ldAgMBAAGjggEbMIIBFzBtBggrBgEFBQcB
AQRhMF8wLgYIKwYBBQUHMAKGImh0dHA6Ly9zdWItY2EubG9jYWxob3N0L3N1Yi1j
YS5jcnQwLQYIKwYBBQUHMAGGIWh0dHA6Ly9vY3NwLnN1Yi1jYS5sb2NhbGhvc3Q6
OTA4MTAfBgNVHSMEGDAWgBQgTvCzHr+8HzVqxXCOoNhw1dFXRDAMBgNVHRMBAf8E
AjAAMDMGA1UdHwQsMCowKKAmoCSGImh0dHA6Ly9zdWItY2EubG9jYWxob3N0L3N1
Yi1jYS5jcmwwEwYDVR0lBAwwCgYIKwYBBQUHAwIwDgYDVR0PAQH/BAQDAgeAMB0G
A1UdDgQWBBSPVQRqFnspzYAmZRB7NlmNVtUPyTANBgkqhkiG9w0BAQsFAAOCAQEA
n9fpk0v+jMDAYM9i5vkIkpol1gDlyZOMdgsR5O8gA4wYdf5WHNV6VmkJriLlaEzJ
7z6ayBIb238jzEjOUbOlC0rU8RqHW1z3gqcCX7aJhzTrZ27706f+/j/1Z25fgMtw
51kvV/FWSu/TKFRheOR2E6fTa5l6kVqEMbjTgEJHe4PNfJ7EVT+avjXZ5ofIjf5M
awBgq4ksIAbtyHkInSOsdDcEHFohQglgldDOXTmsf/tqz69V8qlSK/qmYd93j/BG
C+y1jNh4EYb/BHmeRc+SjAeLUtp5Z1fc29fqZYCp1iUUP9BWF3zlNbEWefq3b8x3
4LwzAan1ehlQcdP2HBURrg==
-----END CERTIFICATE-----
