Certificate:
    Data:
        Version: 3 (0x2)
        Serial Number:
            90:4c:66:1b:96:18:b9:99:11:ea:e2:b7:9b:98:cf:e4
        Signature Algorithm: sha256WithRSAEncryption
        Issuer: C=US, O=Portland State University, CN=Sub CA
        Validity
            Not Before: Apr  5 20:37:22 2022 GMT
            Not After : Apr  5 20:37:22 2023 GMT
        Subject: C=US, O=Portland State University, CN=Sub CA
        Subject Public Key Info:
            Public Key Algorithm: rsaEncryption
                RSA Public-Key: (2048 bit)
                Modulus:
                    00:a5:0b:f9:31:f0:37:6d:fc:36:91:fb:c2:63:37:
                    e6:72:8f:29:a8:27:48:eb:04:6d:1a:15:85:fa:af:
                    f6:bb:52:95:00:bf:b3:f9:2e:69:5e:f1:d0:86:8d:
                    80:27:e9:fe:d0:87:63:30:1e:a0:90:89:d0:2c:20:
                    75:77:e4:f5:63:66:9f:31:c2:69:44:80:c5:5a:18:
                    dc:5f:80:a9:da:65:aa:3d:04:81:a6:82:a0:56:30:
                    8b:24:d5:a7:74:5e:dd:21:50:f2:af:41:ed:d4:e2:
                    de:cb:52:b0:23:10:78:55:4f:0a:5a:0f:36:0b:53:
                    fb:58:2d:18:c0:02:9d:af:d7:99:6e:3e:89:74:f4:
                    c2:ce:1b:3d:6e:bb:d1:48:01:22:56:40:b4:e4:c5:
                    13:48:2a:45:94:d2:04:5c:33:ad:03:f4:d0:f4:24:
                    11:9d:46:80:f0:2c:11:25:e6:4c:e6:cc:b1:58:aa:
                    49:a3:5a:1a:e3:1d:ba:08:8e:e6:7c:ae:a8:63:25:
                    78:01:04:92:f5:cf:5f:e5:ca:48:3e:be:87:22:4f:
                    dd:50:89:dd:8e:e6:3d:bc:71:24:af:4e:aa:c3:21:
                    e4:46:ec:40:8b:cf:19:34:68:a0:57:a1:3c:34:54:
                    4a:ff:a6:dd:29:c9:00:e2:d1:c2:02:60:7d:a1:13:
                    e9:87
                Exponent: 65537 (0x10001)
        X509v3 extensions:
            Authority Information Access: 
                CA Issuers - URI:http://sub-ca.localhost/sub-ca.crt
                OCSP - URI:http://ocsp.sub-ca.localhost:9081

            X509v3 Authority Key Identifier: 
                keyid:20:4E:F0:B3:1E:BF:BC:1F:35:6A:C5:70:8E:A0:D8:70:D5:D1:57:44

            X509v3 Basic Constraints: critical
                CA:FALSE
            X509v3 CRL Distribution Points: 

                Full Name:
                  URI:http://sub-ca.localhost/sub-ca.crl

            X509v3 Extended Key Usage: 
                TLS Web Client Authentication
            X509v3 Key Usage: critical
                Digital Signature
            X509v3 Subject Key Identifier: 
                6C:6F:4D:1B:85:AD:7D:9A:9D:50:C4:56:1A:76:6E:99:44:F5:9D:80
    Signature Algorithm: sha256WithRSAEncryption
         a3:7d:3d:38:47:ea:e0:74:e4:1b:57:6a:ef:d1:d9:35:e9:ba:
         c9:6b:86:a6:1d:af:cf:9a:46:c0:56:e7:eb:05:e5:80:94:95:
         5e:58:9d:04:63:ed:5e:f7:35:83:dd:d1:61:07:e9:74:60:fa:
         fe:07:ad:7e:50:85:39:50:35:ee:67:c4:3e:2f:02:46:40:ca:
         01:8b:be:09:9e:4a:ba:6d:a0:39:af:0e:e2:e9:8d:7f:19:d2:
         73:3d:89:22:0f:a5:b9:d5:09:59:17:b2:a5:16:fc:01:95:95:
         f0:32:9f:00:42:7f:43:6a:21:86:6b:da:1a:b6:b8:18:6f:01:
         8f:7e:47:d5:36:6a:1f:d0:63:ca:86:04:c1:53:f3:f9:0b:ce:
         cb:15:10:52:15:56:55:2b:a0:a6:be:8b:9f:82:5a:c7:fb:91:
         a6:51:9a:85:a7:e3:7c:8b:90:7a:21:96:08:c1:a9:c3:82:94:
         d9:60:11:a1:35:9f:34:6c:50:f2:b2:58:75:b6:af:15:c2:34:
         51:c8:c5:9f:12:a8:53:a9:ea:f5:6e:31:8f:7b:f9:a6:92:a2:
         67:b0:e1:e0:f6:fa:b3:62:e5:6c:9b:4c:68:a5:6f:72:46:a0:
         3f:cf:47:e4:db:db:77:7d:a5:74:bc:34:e2:25:47:42:f7:f8:
         ae:6d:a3:69
-----BEGIN CERTIFICATE-----
MIIELDCCAxSgAwIBAgIRAJBMZhuWGLmZEerit5uYz+QwDQYJKoZIhvcNAQELBQAw
QjELMAkGA1UEBhMCVVMxIjAgBgNVBAoMGVBvcnRsYW5kIFN0YXRlIFVuaXZlcnNp
dHkxDzANBgNVBAMMBlN1YiBDQTAeFw0yMjA0MDUyMDM3MjJaFw0yMzA0MDUyMDM3
MjJaMEIxCzAJBgNVBAYTAlVTMSIwIAYDVQQKDBlQb3J0bGFuZCBTdGF0ZSBVbml2
ZXJzaXR5MQ8wDQYDVQQDDAZTdWIgQ0EwggEiMA0GCSqGSIb3DQEBAQUAA4IBDwAw
ggEKAoIBAQClC/kx8Ddt/DaR+8JjN+ZyjymoJ0jrBG0aFYX6r/a7UpUAv7P5Lmle
8dCGjYAn6f7Qh2MwHqCQidAsIHV35PVjZp8xwmlEgMVaGNxfgKnaZao9BIGmgqBW
MIsk1ad0Xt0hUPKvQe3U4t7LUrAjEHhVTwpaDzYLU/tYLRjAAp2v15luPol09MLO
Gz1uu9FIASJWQLTkxRNIKkWU0gRcM60D9ND0JBGdRoDwLBEl5kzmzLFYqkmjWhrj
HboIjuZ8rqhjJXgBBJL1z1/lykg+vociT91Qid2O5j28cSSvTqrDIeRG7ECLzxk0
aKBXoTw0VEr/pt0pyQDi0cICYH2hE+mHAgMBAAGjggEbMIIBFzBtBggrBgEFBQcB
AQRhMF8wLgYIKwYBBQUHMAKGImh0dHA6Ly9zdWItY2EubG9jYWxob3N0L3N1Yi1j
YS5jcnQwLQYIKwYBBQUHMAGGIWh0dHA6Ly9vY3NwLnN1Yi1jYS5sb2NhbGhvc3Q6
OTA4MTAfBgNVHSMEGDAWgBQgTvCzHr+8HzVqxXCOoNhw1dFXRDAMBgNVHRMBAf8E
AjAAMDMGA1UdHwQsMCowKKAmoCSGImh0dHA6Ly9zdWItY2EubG9jYWxob3N0L3N1
Yi1jYS5jcmwwEwYDVR0lBAwwCgYIKwYBBQUHAwIwDgYDVR0PAQH/BAQDAgeAMB0G
A1UdDgQWBBRsb00bha19mp1QxFYadm6ZRPWdgDANBgkqhkiG9w0BAQsFAAOCAQEA
o309OEfq4HTkG1dq79HZNem6yWuGph2vz5pGwFbn6wXlgJSVXlidBGPtXvc1g93R
YQfpdGD6/getflCFOVA17mfEPi8CRkDKAYu+CZ5Kum2gOa8O4umNfxnScz2JIg+l
udUJWReypRb8AZWV8DKfAEJ/Q2ohhmvaGra4GG8Bj35H1TZqH9BjyoYEwVPz+QvO
yxUQUhVWVSugpr6Ln4Jax/uRplGahafjfIuQeiGWCMGpw4KU2WARoTWfNGxQ8rJY
dbavFcI0UcjFnxKoU6nq9W4xj3v5ppKiZ7Dh4Pb6s2LlbJtMaKVvckagP89H5Nvb
d32ldLw04iVHQvf4rm2jaQ==
-----END CERTIFICATE-----
