Certificate:
    Data:
        Version: 3 (0x2)
        Serial Number:
            90:4c:66:1b:96:18:b9:99:11:ea:e2:b7:9b:98:cf:ea
        Signature Algorithm: sha256WithRSAEncryption
        Issuer: C=US, O=Portland State University, CN=Sub CA
        Validity
            Not Before: Apr  5 20:37:23 2022 GMT
            Not After : Apr  5 20:37:23 2023 GMT
        Subject: C=US, O=Portland State University, CN=Sub CA
        Subject Public Key Info:
            Public Key Algorithm: rsaEncryption
                RSA Public-Key: (2048 bit)
                Modulus:
                    00:d7:cb:b9:9c:38:b1:75:11:52:56:d8:c4:4f:d5:
                    7c:83:af:b1:73:d3:e6:c8:5b:c3:57:90:29:c0:6d:
                    b0:21:21:45:8d:51:f4:cc:a4:d7:9e:53:f9:3c:71:
                    51:75:90:ed:bc:16:03:08:c0:a3:5b:99:cf:66:64:
                    96:66:92:00:ac:a9:60:40:99:a2:a0:cd:ef:b9:d8:
                    d4:d2:00:a5:10:66:2a:63:c7:8d:20:22:ac:63:45:
                    dd:56:98:20:3b:09:e9:24:02:b0:9f:8d:43:d0:98:
                    a7:e1:1e:2a:4a:47:e4:51:38:f1:e6:49:74:6c:99:
                    c4:09:56:29:44:48:fb:2d:f7:47:5c:84:2b:9a:8e:
                    2c:b7:41:45:31:3d:40:27:6f:b0:2b:f6:b7:5a:82:
                    f8:fe:6b:02:36:4e:83:ce:2f:87:24:9b:d8:71:73:
                    9d:4c:14:5e:e2:05:e3:f4:9c:2f:9e:0c:05:27:89:
                    96:73:62:03:94:d7:ba:4c:37:90:05:fa:66:8e:07:
                    70:62:44:24:48:06:34:58:d9:d8:78:0e:34:50:2f:
                    8d:45:bc:f3:cd:00:1c:48:b4:08:58:97:e9:fb:7c:
                    ef:4a:33:1a:9a:7b:07:cd:c3:1b:32:31:c0:9b:42:
                    92:ae:39:e1:87:e1:98:e2:61:b8:2c:d1:a7:f5:c1:
                    9d:75
                Exponent: 65537 (0x10001)
        X509v3 extensions:
            Authority Information Access: 
                CA Issuers - URI:http://sub-ca.localhost/sub-ca.crt
                OCSP - URI:http://ocsp.sub-ca.localhost:9081

            X509v3 Authority Key Identifier: 
                keyid:20:4E:F0:B3:1E:BF:BC:1F:35:6A:C5:70:8E:A0:D8:70:D5:D1:57:44

            X509v3 Basic Constraints: critical
                CA:FALSE
            X509v3 CRL Distribution Points: 

                Full Name:
                  URI:http://sub-ca.localhost/sub-ca.crl

            X509v3 Extended Key Usage: 
                TLS Web Client Authentication
            X509v3 Key Usage: critical
                Digital Signature
            X509v3 Subject Key Identifier: 
                08:69:FA:2A:D5:92:6A:6D:93:00:7B:91:17:E1:05:3B:4E:B4:DF:33
    Signature Algorithm: sha256WithRSAEncryption
         30:93:79:ee:7d:ee:44:de:d0:cf:17:1c:4c:54:80:c0:c3:5f:
         bd:07:66:0a:ac:57:e0:60:61:5c:a6:d4:fc:9e:34:8f:b2:e3:
         e9:72:48:02:e1:e5:c7:69:ed:72:fa:b2:a8:cb:9d:fe:14:3e:
         10:06:8f:ad:56:06:e8:a8:21:21:9b:8f:c4:ce:fa:94:58:eb:
         40:73:03:6a:7d:4d:74:b9:92:f9:6a:36:80:26:2a:92:7a:43:
         bb:1e:5a:db:34:f4:4c:29:70:38:7e:97:eb:ab:2f:67:1d:fe:
         46:31:ff:9e:73:2c:80:6c:0b:64:13:5f:03:4c:a0:ad:ef:92:
         64:45:31:48:47:31:15:5e:fb:fe:9b:30:8f:6f:70:50:62:bf:
         b9:4c:26:62:98:b7:9e:8d:bb:88:dd:45:0a:80:a8:a8:86:75:
         37:11:0d:a9:0a:5b:c9:a6:34:d2:a0:76:5e:77:7c:6f:ea:b8:
         3d:f9:fc:73:dd:ef:71:6f:7d:96:37:1f:6b:fa:0d:92:4d:6f:
         a4:4b:d7:fa:da:90:68:4e:fc:4f:21:b4:2e:b4:7e:0c:9b:19:
         8d:06:71:96:64:da:92:d3:46:1d:2a:56:8a:5e:23:31:7b:33:
         9a:d1:58:e2:7f:78:2e:6c:2a:4a:61:74:65:90:b8:4d:5a:c9:
         a4:05:71:13
-----BEGIN CERTIFICATE-----
MIIELDCCAxSgAwIBAgIRAJBMZhuWGLmZEerit5uYz+owDQYJKoZIhvcNAQELBQAw
QjELMAkGA1UEBhMCVVMxIjAgBgNVBAoMGVBvcnRsYW5kIFN0YXRlIFVuaXZlcnNp
dHkxDzANBgNVBAMMBlN1YiBDQTAeFw0yMjA0MDUyMDM3MjNaFw0yMzA0MDUyMDM3
MjNaMEIxCzAJBgNVBAYTAlVTMSIwIAYDVQQKDBlQb3J0bGFuZCBTdGF0ZSBVbml2
ZXJzaXR5MQ8wDQYDVQQDDAZTdWIgQ0EwggEiMA0GCSqGSIb3DQEBAQUAA4IBDwAw
ggEKAoIBAQDXy7mcOLF1EVJW2MRP1XyDr7Fz0+bIW8NXkCnAbbAhIUWNUfTMpNee
U/k8cVF1kO28FgMIwKNbmc9mZJZmkgCsqWBAmaKgze+52NTSAKUQZipjx40gIqxj
Rd1WmCA7CekkArCfjUPQmKfhHipKR+RROPHmSXRsmcQJVilESPst90dchCuajiy3
QUUxPUAnb7Ar9rdagvj+awI2ToPOL4ckm9hxc51MFF7iBeP0nC+eDAUniZZzYgOU
17pMN5AF+maOB3BiRCRIBjRY2dh4DjRQL41FvPPNABxItAhYl+n7fO9KMxqaewfN
wxsyMcCbQpKuOeGH4ZjiYbgs0af1wZ11AgMBAAGjggEbMIIBFzBtBggrBgEFBQcB
AQRhMF8wLgYIKwYBBQUHMAKGImh0dHA6Ly9zdWItY2EubG9jYWxob3N0L3N1Yi1j
YS5jcnQwLQYIKwYBBQUHMAGGIWh0dHA6Ly9vY3NwLnN1Yi1jYS5sb2NhbGhvc3Q6
OTA4MTAfBgNVHSMEGDAWgBQgTvCzHr+8HzVqxXCOoNhw1dFXRDAMBgNVHRMBAf8E
AjAAMDMGA1UdHwQsMCowKKAmoCSGImh0dHA6Ly9zdWItY2EubG9jYWxob3N0L3N1
Yi1jYS5jcmwwEwYDVR0lBAwwCgYIKwYBBQUHAwIwDgYDVR0PAQH/BAQDAgeAMB0G
A1UdDgQWBBQIafoq1ZJqbZMAe5EX4QU7TrTfMzANBgkqhkiG9w0BAQsFAAOCAQEA
MJN57n3uRN7QzxccTFSAwMNfvQdmCqxX4GBhXKbU/J40j7Lj6XJIAuHlx2ntcvqy
qMud/hQ+EAaPrVYG6KghIZuPxM76lFjrQHMDan1NdLmS+Wo2gCYqknpDux5a2zT0
TClwOH6X66svZx3+RjH/nnMsgGwLZBNfA0ygre+SZEUxSEcxFV77/pswj29wUGK/
uUwmYpi3no27iN1FCoCoqIZ1NxENqQpbyaY00qB2Xnd8b+q4Pfn8c93vcW99ljcf
a/oNkk1vpEvX+tqQaE78TyG0LrR+DJsZjQZxlmTaktNGHSpWil4jMXszmtFY4n94
LmwqSmF0ZZC4TVrJpAVxEw==
-----END CERTIFICATE-----
