Certificate:
    Data:
        Version: 3 (0x2)
        Serial Number:
            90:4c:66:1b:96:18:b9:99:11:ea:e2:b7:9b:98:d0:05
        Signature Algorithm: sha256WithRSAEncryption
        Issuer: C=US, O=Portland State University, CN=Sub CA
        Validity
            Not Before: Apr  5 20:37:26 2022 GMT
            Not After : Apr  5 20:37:26 2023 GMT
        Subject: C=US, O=Portland State University, CN=Sub CA
        Subject Public Key Info:
            Public Key Algorithm: rsaEncryption
                RSA Public-Key: (2048 bit)
                Modulus:
                    00:b9:84:66:a2:fc:a3:76:c9:53:89:dc:02:cd:66:
                    2c:e8:36:f1:93:5d:f9:b8:98:8a:d2:51:b6:9f:eb:
                    f2:0c:36:25:ea:ad:88:fc:0e:32:9c:2a:bb:e4:c9:
                    31:55:46:5d:a6:4b:f2:14:4d:fe:f8:48:5c:2d:49:
                    1f:eb:8e:69:c2:3c:a1:5d:b9:21:40:70:8d:47:c4:
                    15:c8:3e:cf:e7:5f:47:2c:53:cd:ab:83:07:fb:4f:
                    29:fd:a1:bf:e0:e2:b8:ef:f2:2a:b5:2c:7f:7b:08:
                    b9:15:5e:87:34:a3:bd:d9:6b:22:33:91:5a:46:b7:
                    c9:cd:20:6e:8e:8a:22:1a:40:b6:68:65:4c:44:58:
                    b1:2b:0d:0c:2f:7b:6a:c8:75:08:85:9e:de:94:2f:
                    87:29:aa:be:10:cd:d2:84:f2:36:2e:d7:b6:86:40:
                    e1:d6:5e:39:f1:ff:86:16:68:72:d8:26:98:2a:c7:
                    3b:f1:1c:04:88:a7:d3:3d:be:8c:7b:96:4d:77:fe:
                    54:39:91:e9:0c:1e:0a:58:b4:cd:e8:b4:75:fe:8a:
                    3d:52:ce:a0:05:c8:88:e5:88:0c:1e:96:06:28:68:
                    db:21:25:7a:51:57:a4:52:b8:18:01:f6:12:10:c1:
                    c3:1a:78:2f:33:85:be:f0:ae:8f:29:84:93:63:e5:
                    7c:d5
                Exponent: 65537 (0x10001)
        X509v3 extensions:
            Authority Information Access: 
                CA Issuers - URI:http://sub-ca.localhost/sub-ca.crt
                OCSP - URI:http://ocsp.sub-ca.localhost:9081

            X509v3 Authority Key Identifier: 
                keyid:20:4E:F0:B3:1E:BF:BC:1F:35:6A:C5:70:8E:A0:D8:70:D5:D1:57:44

            X509v3 Basic Constraints: critical
                CA:FALSE
            X509v3 CRL Distribution Points: 

                Full Name:
                  URI:http://sub-ca.localhost/sub-ca.crl

            X509v3 Extended Key Usage: 
                TLS Web Client Authentication
            X509v3 Key Usage: critical
                Digital Signature
            X509v3 Subject Key Identifier: 
                99:3E:BE:41:3B:DA:B5:72:A2:3A:A3:11:31:28:FC:2D:6A:0B:AD:2F
    Signature Algorithm: sha256WithRSAEncryption
         60:3e:99:d6:97:d9:ac:44:85:9e:c3:2b:55:a9:93:6d:16:11:
         59:ca:4a:b8:b0:6c:68:e0:2b:74:1b:99:7f:8a:90:4b:b6:c5:
         f1:ac:1f:78:af:2e:9f:c3:2a:4f:85:05:c5:23:0e:e2:fa:8e:
         1a:55:9e:58:bf:90:f0:e0:c6:19:07:ce:00:3f:f6:01:82:6e:
         5b:29:d7:58:cc:54:eb:5f:62:8b:ef:09:d3:f1:4b:6d:28:10:
         a1:12:07:d2:e4:62:8b:87:aa:2c:e0:70:d0:ea:a1:a3:2c:47:
         12:0e:51:4a:88:0a:f0:dc:13:e4:4e:f4:b9:15:f3:2a:3e:4c:
         d0:af:82:f5:26:dc:6e:a8:2e:cd:b9:e2:71:37:d8:89:7b:74:
         4e:b0:6c:e8:9d:56:22:d6:5f:31:97:50:fb:70:5f:85:fb:9c:
         4d:c4:91:e6:fa:8a:14:09:50:32:22:cc:e3:0f:5d:d0:20:ed:
         82:90:0c:fa:55:fc:ba:33:61:a3:12:a6:78:16:87:7c:af:0d:
         f6:53:73:c7:95:c3:b5:44:c3:1b:1b:6f:84:83:5f:64:66:70:
         d9:cc:63:e5:f0:05:b9:c5:dc:80:14:ff:e4:7e:03:15:f6:b0:
         b2:41:6b:b2:32:fb:1b:92:9f:06:c7:7d:a4:8f:bb:54:07:67:
         00:a2:96:14
-----BEGIN CERTIFICATE-----
MIIELDCCAxSgAwIBAgIRAJBMZhuWGLmZEerit5uY0AUwDQYJKoZIhvcNAQELBQAw
QjELMAkGA1UEBhMCVVMxIjAgBgNVBAoMGVBvcnRsYW5kIFN0YXRlIFVuaXZlcnNp
dHkxDzANBgNVBAMMBlN1YiBDQTAeFw0yMjA0MDUyMDM3MjZaFw0yMzA0MDUyMDM3
MjZaMEIxCzAJBgNVBAYTAlVTMSIwIAYDVQQKDBlQb3J0bGFuZCBTdGF0ZSBVbml2
ZXJzaXR5MQ8wDQYDVQQDDAZTdWIgQ0EwggEiMA0GCSqGSIb3DQEBAQUAA4IBDwAw
ggEKAoIBAQC5hGai/KN2yVOJ3ALNZizoNvGTXfm4mIrSUbaf6/IMNiXqrYj8DjKc
KrvkyTFVRl2mS/IUTf74SFwtSR/rjmnCPKFduSFAcI1HxBXIPs/nX0csU82rgwf7
Tyn9ob/g4rjv8iq1LH97CLkVXoc0o73ZayIzkVpGt8nNIG6OiiIaQLZoZUxEWLEr
DQwve2rIdQiFnt6UL4cpqr4QzdKE8jYu17aGQOHWXjnx/4YWaHLYJpgqxzvxHASI
p9M9vox7lk13/lQ5kekMHgpYtM3otHX+ij1SzqAFyIjliAwelgYoaNshJXpRV6RS
uBgB9hIQwcMaeC8zhb7wro8phJNj5XzVAgMBAAGjggEbMIIBFzBtBggrBgEFBQcB
AQRhMF8wLgYIKwYBBQUHMAKGImh0dHA6Ly9zdWItY2EubG9jYWxob3N0L3N1Yi1j
YS5jcnQwLQYIKwYBBQUHMAGGIWh0dHA6Ly9vY3NwLnN1Yi1jYS5sb2NhbGhvc3Q6
OTA4MTAfBgNVHSMEGDAWgBQgTvCzHr+8HzVqxXCOoNhw1dFXRDAMBgNVHRMBAf8E
AjAAMDMGA1UdHwQsMCowKKAmoCSGImh0dHA6Ly9zdWItY2EubG9jYWxob3N0L3N1
Yi1jYS5jcmwwEwYDVR0lBAwwCgYIKwYBBQUHAwIwDgYDVR0PAQH/BAQDAgeAMB0G
A1UdDgQWBBSZPr5BO9q1cqI6oxExKPwtagutLzANBgkqhkiG9w0BAQsFAAOCAQEA
YD6Z1pfZrESFnsMrVamTbRYRWcpKuLBsaOArdBuZf4qQS7bF8awfeK8un8MqT4UF
xSMO4vqOGlWeWL+Q8ODGGQfOAD/2AYJuWynXWMxU619ii+8J0/FLbSgQoRIH0uRi
i4eqLOBw0OqhoyxHEg5RSogK8NwT5E70uRXzKj5M0K+C9SbcbqguzbnicTfYiXt0
TrBs6J1WItZfMZdQ+3BfhfucTcSR5vqKFAlQMiLM4w9d0CDtgpAM+lX8ujNhoxKm
eBaHfK8N9lNzx5XDtUTDGxtvhINfZGZw2cxj5fAFucXcgBT/5H4DFfawskFrsjL7
G5KfBsd9pI+7VAdnAKKWFA==
-----END CERTIFICATE-----
