Certificate:
    Data:
        Version: 3 (0x2)
        Serial Number:
            90:4c:66:1b:96:18:b9:99:11:ea:e2:b7:9b:98:cf:d8
        Signature Algorithm: sha256WithRSAEncryption
        Issuer: C=US, O=Portland State University, CN=Sub CA
        Validity
            Not Before: Apr  5 20:37:20 2022 GMT
            Not After : Apr  5 20:37:20 2023 GMT
        Subject: C=US, O=Portland State University, CN=Sub CA
        Subject Public Key Info:
            Public Key Algorithm: rsaEncryption
                RSA Public-Key: (2048 bit)
                Modulus:
                    00:b8:b8:50:f5:d2:a1:e3:76:c3:c1:7f:32:9c:ae:
                    d2:63:51:93:09:9f:d8:d8:c7:fd:20:d9:70:f6:7f:
                    2c:3b:9a:77:1a:4e:c2:82:a5:12:12:90:fe:7a:68:
                    f4:63:ff:eb:ce:bd:cc:7f:85:c9:2e:e1:49:b4:5d:
                    48:9e:7f:77:04:19:7f:16:c3:51:0b:15:c0:ce:ed:
                    1e:e3:8e:89:0d:22:41:30:64:d9:63:7a:7f:75:64:
                    be:2a:5a:79:00:68:fc:de:9b:d9:4b:9a:be:a8:36:
                    c0:d2:e7:2c:ed:39:2b:ae:c3:08:22:36:a8:be:e4:
                    bd:b8:c0:f5:d7:be:5e:94:b6:ec:31:88:38:b1:45:
                    8e:62:b4:61:e1:5e:44:55:7d:71:3b:b3:e3:b0:08:
                    ff:3e:a0:52:15:16:09:53:8f:96:d3:14:49:59:65:
                    da:7d:f8:5d:42:91:3d:84:53:43:e4:14:cc:84:b3:
                    1c:71:5d:3f:8e:26:51:52:c7:9d:7c:c3:c6:10:c9:
                    da:9d:f5:2e:00:9c:18:de:44:d6:07:cf:46:d0:ca:
                    61:d6:c9:b5:92:04:33:05:73:a1:94:38:0f:67:b1:
                    64:67:b1:83:1e:99:37:11:0a:51:ac:88:33:37:d0:
                    5a:d1:5e:fa:4a:1b:53:a2:f8:b4:3a:f9:cc:c2:c5:
                    8b:7f
                Exponent: 65537 (0x10001)
        X509v3 extensions:
            Authority Information Access: 
                CA Issuers - URI:http://sub-ca.localhost/sub-ca.crt
                OCSP - URI:http://ocsp.sub-ca.localhost:9081

            X509v3 Authority Key Identifier: 
                keyid:20:4E:F0:B3:1E:BF:BC:1F:35:6A:C5:70:8E:A0:D8:70:D5:D1:57:44

            X509v3 Basic Constraints: critical
                CA:FALSE
            X509v3 CRL Distribution Points: 

                Full Name:
                  URI:http://sub-ca.localhost/sub-ca.crl

            X509v3 Extended Key Usage: 
                TLS Web Client Authentication
            X509v3 Key Usage: critical
                Digital Signature
            X509v3 Subject Key Identifier: 
                C2:D7:99:3E:35:CE:CB:B0:5C:8B:06:9D:29:15:48:EF:BE:7B:53:9A
    Signature Algorithm: sha256WithRSAEncryption
         5f:f5:6c:2c:86:05:1f:0e:f4:67:9f:71:41:da:e5:68:de:c9:
         4e:55:ed:83:ad:63:1c:16:af:28:fa:76:30:05:c8:3b:d7:c2:
         9c:44:11:89:d6:80:85:03:71:05:b2:97:1b:34:05:dc:b4:3e:
         f1:d0:d2:a7:3d:db:e5:20:55:e2:92:3b:26:8f:45:fc:59:dd:
         76:95:96:aa:ca:fd:a3:6d:e2:d5:10:e3:86:c3:74:f5:67:40:
         31:54:eb:c6:9a:fe:09:b1:30:65:45:8a:b2:cb:b1:3e:70:2e:
         89:0d:14:30:53:93:1f:e6:c2:07:cf:ba:1c:6c:d6:91:e3:6a:
         40:8f:a6:5f:81:00:31:a6:70:6f:cf:7f:99:87:1e:5e:db:30:
         4e:c9:ea:8e:11:f7:32:b8:66:3c:00:8f:98:0c:43:40:1f:53:
         2b:cd:0a:4d:59:a1:58:c7:98:8b:0d:42:14:c9:17:9c:91:e0:
         2e:88:30:e5:04:89:80:d4:f1:a2:3b:80:06:3e:25:58:16:bd:
         bb:9a:9a:ef:c3:f2:ab:50:37:d0:88:73:3c:72:ba:90:3d:5c:
         ec:d1:d5:d0:98:df:1f:58:4e:37:ad:30:53:59:b3:b9:31:7b:
         71:e6:77:e8:74:81:07:23:90:e3:31:93:87:ec:4c:4c:b0:9e:
         66:b4:1a:4a
-----BEGIN CERTIFICATE-----
MIIELDCCAxSgAwIBAgIRAJBMZhuWGLmZEerit5uYz9gwDQYJKoZIhvcNAQELBQAw
QjELMAkGA1UEBhMCVVMxIjAgBgNVBAoMGVBvcnRsYW5kIFN0YXRlIFVuaXZlcnNp
dHkxDzANBgNVBAMMBlN1YiBDQTAeFw0yMjA0MDUyMDM3MjBaFw0yMzA0MDUyMDM3
MjBaMEIxCzAJBgNVBAYTAlVTMSIwIAYDVQQKDBlQb3J0bGFuZCBTdGF0ZSBVbml2
ZXJzaXR5MQ8wDQYDVQQDDAZTdWIgQ0EwggEiMA0GCSqGSIb3DQEBAQUAA4IBDwAw
ggEKAoIBAQC4uFD10qHjdsPBfzKcrtJjUZMJn9jYx/0g2XD2fyw7mncaTsKCpRIS
kP56aPRj/+vOvcx/hcku4Um0XUief3cEGX8Ww1ELFcDO7R7jjokNIkEwZNljen91
ZL4qWnkAaPzem9lLmr6oNsDS5yztOSuuwwgiNqi+5L24wPXXvl6UtuwxiDixRY5i
tGHhXkRVfXE7s+OwCP8+oFIVFglTj5bTFElZZdp9+F1CkT2EU0PkFMyEsxxxXT+O
JlFSx518w8YQydqd9S4AnBjeRNYHz0bQymHWybWSBDMFc6GUOA9nsWRnsYMemTcR
ClGsiDM30FrRXvpKG1Oi+LQ6+czCxYt/AgMBAAGjggEbMIIBFzBtBggrBgEFBQcB
AQRhMF8wLgYIKwYBBQUHMAKGImh0dHA6Ly9zdWItY2EubG9jYWxob3N0L3N1Yi1j
YS5jcnQwLQYIKwYBBQUHMAGGIWh0dHA6Ly9vY3NwLnN1Yi1jYS5sb2NhbGhvc3Q6
OTA4MTAfBgNVHSMEGDAWgBQgTvCzHr+8HzVqxXCOoNhw1dFXRDAMBgNVHRMBAf8E
AjAAMDMGA1UdHwQsMCowKKAmoCSGImh0dHA6Ly9zdWItY2EubG9jYWxob3N0L3N1
Yi1jYS5jcmwwEwYDVR0lBAwwCgYIKwYBBQUHAwIwDgYDVR0PAQH/BAQDAgeAMB0G
A1UdDgQWBBTC15k+Nc7LsFyLBp0pFUjvvntTmjANBgkqhkiG9w0BAQsFAAOCAQEA
X/VsLIYFHw70Z59xQdrlaN7JTlXtg61jHBavKPp2MAXIO9fCnEQRidaAhQNxBbKX
GzQF3LQ+8dDSpz3b5SBV4pI7Jo9F/FnddpWWqsr9o23i1RDjhsN09WdAMVTrxpr+
CbEwZUWKssuxPnAuiQ0UMFOTH+bCB8+6HGzWkeNqQI+mX4EAMaZwb89/mYceXtsw
TsnqjhH3MrhmPACPmAxDQB9TK80KTVmhWMeYiw1CFMkXnJHgLogw5QSJgNTxojuA
Bj4lWBa9u5qa78Pyq1A30IhzPHK6kD1c7NHV0JjfH1hON60wU1mzuTF7ceZ36HSB
ByOQ4zGTh+xMTLCeZrQaSg==
-----END CERTIFICATE-----
