Certificate:
    Data:
        Version: 3 (0x2)
        Serial Number:
            90:4c:66:1b:96:18:b9:99:11:ea:e2:b7:9b:98:cf:c4
        Signature Algorithm: sha256WithRSAEncryption
        Issuer: C=US, O=Portland State University, CN=Sub CA
        Validity
            Not Before: Apr  5 20:37:19 2022 GMT
            Not After : Apr  5 20:37:19 2023 GMT
        Subject: C=US, O=Portland State University, CN=Sub CA
        Subject Public Key Info:
            Public Key Algorithm: rsaEncryption
                RSA Public-Key: (2048 bit)
                Modulus:
                    00:b4:bc:96:29:2c:a8:b5:c2:da:58:d5:4c:6e:19:
                    32:6e:0f:36:09:11:de:53:9c:92:09:27:86:c7:56:
                    61:24:b6:45:26:68:cc:2e:9d:4c:a7:7e:ec:f6:aa:
                    a2:c5:29:cb:7a:d5:e8:60:cd:e8:b7:dc:d8:b1:e9:
                    92:68:16:7d:83:09:99:67:bc:25:2e:42:3e:92:c3:
                    6a:0e:9e:6b:e4:bf:92:6e:d7:aa:c3:f7:3a:82:c0:
                    50:bd:b3:73:3a:79:6b:4e:3e:c3:fa:46:a2:a3:b9:
                    d2:73:d1:bc:6c:53:b0:c5:a0:c6:a7:8f:f2:d3:b9:
                    ad:ea:5c:6a:fa:c6:b6:83:ae:b4:c9:a9:16:66:ab:
                    38:76:92:6c:e5:42:40:1d:4d:45:87:ea:66:3f:4d:
                    60:31:58:6f:2f:60:6d:ac:53:1f:0f:c7:59:2c:e6:
                    85:46:76:c8:c5:43:f3:fa:61:ec:58:05:23:f9:9f:
                    d3:85:12:80:4b:21:82:35:3a:48:9d:7d:e4:52:f5:
                    77:ee:20:51:7a:bb:10:1c:b6:15:40:a8:c5:c7:dd:
                    62:37:f7:85:01:20:84:93:5e:9a:91:5a:41:e6:9b:
                    26:d0:b7:48:68:ba:b1:24:d3:dc:18:1d:db:28:bb:
                    ff:f4:91:6e:2b:a2:ad:33:00:f7:68:90:17:df:3c:
                    48:8b
                Exponent: 65537 (0x10001)
        X509v3 extensions:
            Authority Information Access: 
                CA Issuers - URI:http://sub-ca.localhost/sub-ca.crt
                OCSP - URI:http://ocsp.sub-ca.localhost:9081

            X509v3 Authority Key Identifier: 
                keyid:20:4E:F0:B3:1E:BF:BC:1F:35:6A:C5:70:8E:A0:D8:70:D5:D1:57:44

            X509v3 Basic Constraints: critical
                CA:FALSE
            X509v3 CRL Distribution Points: 

                Full Name:
                  URI:http://sub-ca.localhost/sub-ca.crl

            X509v3 Extended Key Usage: 
                TLS Web Client Authentication
            X509v3 Key Usage: critical
                Digital Signature
            X509v3 Subject Key Identifier: 
                59:17:1B:A9:09:07:5A:70:42:A4:76:DB:B1:DB:33:8F:78:AE:9D:EB
    Signature Algorithm: sha256WithRSAEncryption
         7a:52:0b:02:78:4a:49:1b:12:3e:e0:0c:94:de:55:7a:65:59:
         86:e5:6d:ef:ef:57:c9:a9:5e:0e:54:1e:fc:e3:da:a9:cb:cb:
         87:cc:08:e9:05:1f:96:34:b0:0c:e6:6a:00:67:f6:01:55:33:
         28:fe:30:1c:b7:01:90:2e:ac:91:03:15:fc:58:c7:e0:5f:c9:
         66:a6:d2:c8:ee:d2:2b:e0:e9:27:34:c7:4e:55:fa:7e:ca:74:
         66:f6:2c:95:14:3a:19:1d:cf:95:f5:76:88:18:ee:a0:d4:7c:
         27:15:f4:4d:50:fe:97:97:94:55:82:f0:db:91:85:14:89:13:
         f5:32:d3:24:6a:50:cf:fd:95:a2:70:e4:1b:89:b1:cb:60:10:
         1a:a6:22:ef:8a:4a:2c:4b:db:d4:09:bb:ee:61:b6:53:3b:55:
         af:c8:58:bf:a7:4a:46:21:bb:45:b4:f4:80:b4:55:48:4c:57:
         de:76:ff:1c:40:1b:f2:3a:30:fe:da:56:f2:ba:9a:f6:5d:76:
         4d:4a:30:44:cb:ee:ae:af:61:99:c6:7b:de:54:22:26:ab:c1:
         4d:1b:cd:e6:90:20:d4:ea:df:05:b4:32:fe:7b:ea:1a:9b:5d:
         c4:9f:2b:b2:05:b6:f1:69:ce:82:56:be:7b:5f:b7:bb:10:94:
         56:73:ae:61
-----BEGIN CERTIFICATE-----
MIIELDCCAxSgAwIBAgIRAJBMZhuWGLmZEerit5uYz8QwDQYJKoZIhvcNAQELBQAw
QjELMAkGA1UEBhMCVVMxIjAgBgNVBAoMGVBvcnRsYW5kIFN0YXRlIFVuaXZlcnNp
dHkxDzANBgNVBAMMBlN1YiBDQTAeFw0yMjA0MDUyMDM3MTlaFw0yMzA0MDUyMDM3
MTlaMEIxCzAJBgNVBAYTAlVTMSIwIAYDVQQKDBlQb3J0bGFuZCBTdGF0ZSBVbml2
ZXJzaXR5MQ8wDQYDVQQDDAZTdWIgQ0EwggEiMA0GCSqGSIb3DQEBAQUAA4IBDwAw
ggEKAoIBAQC0vJYpLKi1wtpY1UxuGTJuDzYJEd5TnJIJJ4bHVmEktkUmaMwunUyn
fuz2qqLFKct61ehgzei33Nix6ZJoFn2DCZlnvCUuQj6Sw2oOnmvkv5Ju16rD9zqC
wFC9s3M6eWtOPsP6RqKjudJz0bxsU7DFoManj/LTua3qXGr6xraDrrTJqRZmqzh2
kmzlQkAdTUWH6mY/TWAxWG8vYG2sUx8Px1ks5oVGdsjFQ/P6YexYBSP5n9OFEoBL
IYI1OkidfeRS9XfuIFF6uxActhVAqMXH3WI394UBIISTXpqRWkHmmybQt0hourEk
09wYHdsou//0kW4roq0zAPdokBffPEiLAgMBAAGjggEbMIIBFzBtBggrBgEFBQcB
AQRhMF8wLgYIKwYBBQUHMAKGImh0dHA6Ly9zdWItY2EubG9jYWxob3N0L3N1Yi1j
YS5jcnQwLQYIKwYBBQUHMAGGIWh0dHA6Ly9vY3NwLnN1Yi1jYS5sb2NhbGhvc3Q6
OTA4MTAfBgNVHSMEGDAWgBQgTvCzHr+8HzVqxXCOoNhw1dFXRDAMBgNVHRMBAf8E
AjAAMDMGA1UdHwQsMCowKKAmoCSGImh0dHA6Ly9zdWItY2EubG9jYWxob3N0L3N1
Yi1jYS5jcmwwEwYDVR0lBAwwCgYIKwYBBQUHAwIwDgYDVR0PAQH/BAQDAgeAMB0G
A1UdDgQWBBRZFxupCQdacEKkdtux2zOPeK6d6zANBgkqhkiG9w0BAQsFAAOCAQEA
elILAnhKSRsSPuAMlN5VemVZhuVt7+9XyaleDlQe/OPaqcvLh8wI6QUfljSwDOZq
AGf2AVUzKP4wHLcBkC6skQMV/FjH4F/JZqbSyO7SK+DpJzTHTlX6fsp0ZvYslRQ6
GR3PlfV2iBjuoNR8JxX0TVD+l5eUVYLw25GFFIkT9TLTJGpQz/2VonDkG4mxy2AQ
GqYi74pKLEvb1Am77mG2UztVr8hYv6dKRiG7RbT0gLRVSExX3nb/HEAb8jow/tpW
8rqa9l12TUowRMvurq9hmcZ73lQiJqvBTRvN5pAg1OrfBbQy/nvqGptdxJ8rsgW2
8WnOgla+e1+3uxCUVnOuYQ==
-----END CERTIFICATE-----
