Certificate:
    Data:
        Version: 3 (0x2)
        Serial Number:
            90:4c:66:1b:96:18:b9:99:11:ea:e2:b7:9b:98:d0:0e
        Signature Algorithm: sha256WithRSAEncryption
        Issuer: C=US, O=Portland State University, CN=Sub CA
        Validity
            Not Before: Apr  5 20:37:26 2022 GMT
            Not After : Apr  5 20:37:26 2023 GMT
        Subject: C=US, O=Portland State University, CN=Sub CA
        Subject Public Key Info:
            Public Key Algorithm: rsaEncryption
                RSA Public-Key: (2048 bit)
                Modulus:
                    00:a3:c2:cf:a0:dd:eb:39:95:74:05:a5:68:68:86:
                    d3:0b:ef:e2:d1:da:06:7e:94:25:83:3a:a2:e2:51:
                    88:99:86:8e:9d:97:e2:fc:34:5a:5f:9e:06:b5:c9:
                    1d:ca:8f:36:04:d2:1f:8f:c2:b0:b5:8a:47:3f:e9:
                    c6:1f:4c:18:17:46:7b:25:0a:3b:d9:5f:f9:3f:75:
                    64:6f:12:1f:90:9e:21:6d:ae:b2:f7:73:5c:6b:d1:
                    00:ec:25:89:1d:43:7b:fc:55:ad:06:ca:b5:7c:a7:
                    34:7f:3c:f4:3b:70:c0:5e:83:9c:82:00:cb:fe:cb:
                    77:00:01:a6:5f:4d:4c:27:0b:cf:fb:bd:bf:dc:fe:
                    be:62:bc:83:48:e8:8c:f2:5a:99:5e:82:16:93:b3:
                    29:9c:b1:d6:99:2c:fb:0f:54:61:d4:ff:d8:1a:0b:
                    c1:13:9b:9b:47:9a:7e:e5:a9:8b:01:3b:c2:74:e4:
                    1c:7e:d2:7b:1a:65:bd:5a:71:1e:57:a9:b0:95:ae:
                    6f:f5:5d:a2:c5:b7:60:d6:7f:b4:d0:82:b3:4d:16:
                    37:1e:bc:7f:8d:63:5c:e1:eb:61:a6:71:5a:1b:df:
                    55:42:9b:34:8e:1a:9d:ad:eb:a6:cc:ac:c8:a3:99:
                    d6:f9:2f:81:e9:20:73:e0:56:39:b3:ae:f5:aa:38:
                    7b:79
                Exponent: 65537 (0x10001)
        X509v3 extensions:
            Authority Information Access: 
                CA Issuers - URI:http://sub-ca.localhost/sub-ca.crt
                OCSP - URI:http://ocsp.sub-ca.localhost:9081

            X509v3 Authority Key Identifier: 
                keyid:20:4E:F0:B3:1E:BF:BC:1F:35:6A:C5:70:8E:A0:D8:70:D5:D1:57:44

            X509v3 Basic Constraints: critical
                CA:FALSE
            X509v3 CRL Distribution Points: 

                Full Name:
                  URI:http://sub-ca.localhost/sub-ca.crl

            X509v3 Extended Key Usage: 
                TLS Web Client Authentication
            X509v3 Key Usage: critical
                Digital Signature
            X509v3 Subject Key Identifier: 
                91:7D:DA:BB:88:A1:BB:C3:C0:BF:FF:47:42:48:4A:A9:E2:31:3B:9B
    Signature Algorithm: sha256WithRSAEncryption
         2f:92:e6:d2:c4:e6:3f:cd:d7:40:52:66:f5:5a:94:71:9e:0d:
         4c:ea:5a:1b:f0:de:91:70:c8:51:3f:45:d4:12:2c:4b:4a:21:
         80:3f:93:71:8c:f0:6e:e1:1e:d4:40:6b:7f:6b:1b:99:36:38:
         ac:c6:33:e9:d5:f9:c7:8e:6f:ed:42:e8:c7:56:53:83:a5:04:
         72:ab:30:a7:cf:bb:8e:2b:71:90:aa:8a:92:b1:1f:c1:31:fe:
         d5:90:54:30:17:f3:a7:3f:65:e7:83:49:96:4c:99:38:5b:3a:
         ca:62:26:09:b0:45:9e:f8:c3:a6:56:ba:8b:83:bb:71:a9:21:
         34:bd:65:14:5c:92:9a:52:5d:c5:0b:c0:e8:28:53:81:c9:95:
         fd:28:c0:17:22:48:91:01:6e:d0:2d:22:e5:0e:e6:0a:64:24:
         e0:f4:cd:5b:15:3a:a4:43:f6:b5:ff:60:cc:04:d0:7d:96:4a:
         31:b3:41:08:d8:46:6a:3f:d7:2d:aa:e0:e8:4a:5f:cc:4a:1d:
         5a:81:72:44:59:da:35:bf:51:72:2a:e8:0b:0d:16:c7:90:c3:
         cb:da:9e:fd:1d:de:ac:a2:3a:e7:cd:e5:72:a4:63:cf:ae:5f:
         28:16:18:80:de:52:68:92:b6:ec:2c:1c:6f:f7:c6:54:ff:a6:
         b0:bd:16:d5
-----BEGIN CERTIFICATE-----
MIIELDCCAxSgAwIBAgIRAJBMZhuWGLmZEerit5uY0A4wDQYJKoZIhvcNAQELBQAw
QjELMAkGA1UEBhMCVVMxIjAgBgNVBAoMGVBvcnRsYW5kIFN0YXRlIFVuaXZlcnNp
dHkxDzANBgNVBAMMBlN1YiBDQTAeFw0yMjA0MDUyMDM3MjZaFw0yMzA0MDUyMDM3
MjZaMEIxCzAJBgNVBAYTAlVTMSIwIAYDVQQKDBlQb3J0bGFuZCBTdGF0ZSBVbml2
ZXJzaXR5MQ8wDQYDVQQDDAZTdWIgQ0EwggEiMA0GCSqGSIb3DQEBAQUAA4IBDwAw
ggEKAoIBAQCjws+g3es5lXQFpWhohtML7+LR2gZ+lCWDOqLiUYiZho6dl+L8NFpf
nga1yR3KjzYE0h+PwrC1ikc/6cYfTBgXRnslCjvZX/k/dWRvEh+QniFtrrL3c1xr
0QDsJYkdQ3v8Va0GyrV8pzR/PPQ7cMBeg5yCAMv+y3cAAaZfTUwnC8/7vb/c/r5i
vINI6IzyWpleghaTsymcsdaZLPsPVGHU/9gaC8ETm5tHmn7lqYsBO8J05Bx+0nsa
Zb1acR5XqbCVrm/1XaLFt2DWf7TQgrNNFjcevH+NY1zh62GmcVob31VCmzSOGp2t
66bMrMijmdb5L4HpIHPgVjmzrvWqOHt5AgMBAAGjggEbMIIBFzBtBggrBgEFBQcB
AQRhMF8wLgYIKwYBBQUHMAKGImh0dHA6Ly9zdWItY2EubG9jYWxob3N0L3N1Yi1j
YS5jcnQwLQYIKwYBBQUHMAGGIWh0dHA6Ly9vY3NwLnN1Yi1jYS5sb2NhbGhvc3Q6
OTA4MTAfBgNVHSMEGDAWgBQgTvCzHr+8HzVqxXCOoNhw1dFXRDAMBgNVHRMBAf8E
AjAAMDMGA1UdHwQsMCowKKAmoCSGImh0dHA6Ly9zdWItY2EubG9jYWxob3N0L3N1
Yi1jYS5jcmwwEwYDVR0lBAwwCgYIKwYBBQUHAwIwDgYDVR0PAQH/BAQDAgeAMB0G
A1UdDgQWBBSRfdq7iKG7w8C//0dCSEqp4jE7mzANBgkqhkiG9w0BAQsFAAOCAQEA
L5Lm0sTmP83XQFJm9VqUcZ4NTOpaG/DekXDIUT9F1BIsS0ohgD+TcYzwbuEe1EBr
f2sbmTY4rMYz6dX5x45v7ULox1ZTg6UEcqswp8+7jitxkKqKkrEfwTH+1ZBUMBfz
pz9l54NJlkyZOFs6ymImCbBFnvjDpla6i4O7cakhNL1lFFySmlJdxQvA6ChTgcmV
/SjAFyJIkQFu0C0i5Q7mCmQk4PTNWxU6pEP2tf9gzATQfZZKMbNBCNhGaj/XLarg
6EpfzEodWoFyRFnaNb9RciroCw0Wx5DDy9qe/R3erKI6583lcqRjz65fKBYYgN5S
aJK27Cwcb/fGVP+msL0W1Q==
-----END CERTIFICATE-----
