Certificate:
    Data:
        Version: 3 (0x2)
        Serial Number:
            90:4c:66:1b:96:18:b9:99:11:ea:e2:b7:9b:98:cf:bd
        Signature Algorithm: sha256WithRSAEncryption
        Issuer: C=US, O=Portland State University, CN=Sub CA
        Validity
            Not Before: Apr  5 20:37:18 2022 GMT
            Not After : Apr  5 20:37:18 2023 GMT
        Subject: C=US, O=Portland State University, CN=Sub CA
        Subject Public Key Info:
            Public Key Algorithm: rsaEncryption
                RSA Public-Key: (2048 bit)
                Modulus:
                    00:df:1d:62:a5:2c:16:31:3c:41:cb:7b:23:1d:2a:
                    b8:9b:92:2e:c1:3b:eb:ae:3a:47:17:f2:76:f4:48:
                    dc:7e:3d:2c:06:2b:40:62:f7:3b:3a:3b:d6:40:53:
                    f7:dc:eb:2f:86:71:83:9f:6b:e1:ae:94:f1:ad:6b:
                    60:b7:9b:47:b6:a9:1a:c9:c1:7d:49:6e:34:d0:f5:
                    71:19:53:c8:b2:dc:e5:3f:06:04:ab:4d:46:e6:c4:
                    9a:83:bb:63:f4:46:3e:b3:40:75:29:f5:a1:3e:25:
                    2d:e2:d9:54:d4:df:4a:e0:fd:87:1d:ad:da:d6:d4:
                    73:47:43:95:0a:0a:8f:fb:90:16:37:3d:85:78:db:
                    cf:9a:f8:32:8b:7d:83:5e:c7:93:98:3b:77:2d:2a:
                    a2:51:e1:b4:b4:01:4d:01:a2:cb:bd:2a:77:c1:a9:
                    ff:e9:4f:5b:9c:77:43:c3:9d:a8:d4:27:08:f4:70:
                    ed:0f:eb:9f:b7:5f:b0:af:88:ac:46:1a:a4:27:f3:
                    8f:0e:26:75:48:67:68:de:d4:c9:39:bd:92:6a:43:
                    cc:f0:bf:98:67:59:f3:5b:32:db:a0:33:26:6d:4e:
                    73:e2:dc:7e:3d:fd:6f:f7:f1:63:e2:d8:f3:d4:4f:
                    32:54:07:e0:ec:06:93:6e:3d:bc:51:df:77:e3:90:
                    63:a9
                Exponent: 65537 (0x10001)
        X509v3 extensions:
            Authority Information Access: 
                CA Issuers - URI:http://sub-ca.localhost/sub-ca.crt
                OCSP - URI:http://ocsp.sub-ca.localhost:9081

            X509v3 Authority Key Identifier: 
                keyid:20:4E:F0:B3:1E:BF:BC:1F:35:6A:C5:70:8E:A0:D8:70:D5:D1:57:44

            X509v3 Basic Constraints: critical
                CA:FALSE
            X509v3 CRL Distribution Points: 

                Full Name:
                  URI:http://sub-ca.localhost/sub-ca.crl

            X509v3 Extended Key Usage: 
                TLS Web Client Authentication
            X509v3 Key Usage: critical
                Digital Signature
            X509v3 Subject Key Identifier: 
                1A:08:A8:C9:8B:D5:65:AA:0D:5D:62:6D:46:47:E2:8C:47:81:ED:EB
    Signature Algorithm: sha256WithRSAEncryption
         9b:dd:55:6f:6a:e0:8e:f8:24:5d:d4:87:f3:3a:cc:9d:41:f0:
         dd:d0:0e:1d:ee:38:c5:6f:a7:c4:a1:ee:e0:da:2c:5b:fc:9b:
         37:ec:46:c5:87:84:66:e2:44:36:dc:19:a3:2b:f8:ed:d1:18:
         ea:ab:50:02:58:9d:23:0d:c4:04:08:1a:e6:55:0c:5c:ca:16:
         49:b8:56:6a:35:2b:1b:08:a7:71:7c:84:c8:99:23:4c:12:d0:
         34:a1:b4:89:aa:32:58:72:e9:c0:78:06:83:01:d4:58:f7:e5:
         66:3e:e0:09:27:9e:d4:8a:3f:2a:a1:14:10:ba:19:0d:87:06:
         f2:83:ec:34:98:3a:1b:b3:1a:b1:1c:ed:e9:0c:70:13:22:28:
         5a:3a:25:99:7f:4d:b6:8e:6a:ef:f0:37:09:ef:d4:1f:95:c0:
         c8:99:34:a5:93:94:1c:95:83:b0:28:b9:ba:67:02:af:6d:e1:
         76:7d:6c:74:55:23:7b:34:ca:01:e1:0b:1d:ea:c9:0e:58:c4:
         bd:ea:22:1a:f7:03:08:4c:ee:31:6f:24:bf:e4:24:b4:24:78:
         7d:86:b3:5c:89:9e:89:9e:9c:b1:d1:05:9f:1b:12:e6:73:4d:
         2d:9d:cc:2a:be:99:9c:54:79:db:42:b5:3c:7c:f0:68:8d:93:
         86:f6:d9:5b
-----BEGIN CERTIFICATE-----
MIIELDCCAxSgAwIBAgIRAJBMZhuWGLmZEerit5uYz70wDQYJKoZIhvcNAQELBQAw
QjELMAkGA1UEBhMCVVMxIjAgBgNVBAoMGVBvcnRsYW5kIFN0YXRlIFVuaXZlcnNp
dHkxDzANBgNVBAMMBlN1YiBDQTAeFw0yMjA0MDUyMDM3MThaFw0yMzA0MDUyMDM3
MThaMEIxCzAJBgNVBAYTAlVTMSIwIAYDVQQKDBlQb3J0bGFuZCBTdGF0ZSBVbml2
ZXJzaXR5MQ8wDQYDVQQDDAZTdWIgQ0EwggEiMA0GCSqGSIb3DQEBAQUAA4IBDwAw
ggEKAoIBAQDfHWKlLBYxPEHLeyMdKribki7BO+uuOkcX8nb0SNx+PSwGK0Bi9zs6
O9ZAU/fc6y+GcYOfa+GulPGta2C3m0e2qRrJwX1JbjTQ9XEZU8iy3OU/BgSrTUbm
xJqDu2P0Rj6zQHUp9aE+JS3i2VTU30rg/YcdrdrW1HNHQ5UKCo/7kBY3PYV428+a
+DKLfYNex5OYO3ctKqJR4bS0AU0Bosu9KnfBqf/pT1ucd0PDnajUJwj0cO0P65+3
X7CviKxGGqQn848OJnVIZ2je1Mk5vZJqQ8zwv5hnWfNbMtugMyZtTnPi3H49/W/3
8WPi2PPUTzJUB+DsBpNuPbxR33fjkGOpAgMBAAGjggEbMIIBFzBtBggrBgEFBQcB
AQRhMF8wLgYIKwYBBQUHMAKGImh0dHA6Ly9zdWItY2EubG9jYWxob3N0L3N1Yi1j
YS5jcnQwLQYIKwYBBQUHMAGGIWh0dHA6Ly9vY3NwLnN1Yi1jYS5sb2NhbGhvc3Q6
OTA4MTAfBgNVHSMEGDAWgBQgTvCzHr+8HzVqxXCOoNhw1dFXRDAMBgNVHRMBAf8E
AjAAMDMGA1UdHwQsMCowKKAmoCSGImh0dHA6Ly9zdWItY2EubG9jYWxob3N0L3N1
Yi1jYS5jcmwwEwYDVR0lBAwwCgYIKwYBBQUHAwIwDgYDVR0PAQH/BAQDAgeAMB0G
A1UdDgQWBBQaCKjJi9Vlqg1dYm1GR+KMR4Ht6zANBgkqhkiG9w0BAQsFAAOCAQEA
m91Vb2rgjvgkXdSH8zrMnUHw3dAOHe44xW+nxKHu4NosW/ybN+xGxYeEZuJENtwZ
oyv47dEY6qtQAlidIw3EBAga5lUMXMoWSbhWajUrGwincXyEyJkjTBLQNKG0iaoy
WHLpwHgGgwHUWPflZj7gCSee1Io/KqEUELoZDYcG8oPsNJg6G7MasRzt6QxwEyIo
WjolmX9Nto5q7/A3Ce/UH5XAyJk0pZOUHJWDsCi5umcCr23hdn1sdFUjezTKAeEL
HerJDljEveoiGvcDCEzuMW8kv+QktCR4fYazXImeiZ6csdEFnxsS5nNNLZ3MKr6Z
nFR520K1PHzwaI2ThvbZWw==
-----END CERTIFICATE-----
