Certificate:
    Data:
        Version: 3 (0x2)
        Serial Number:
            90:4c:66:1b:96:18:b9:99:11:ea:e2:b7:9b:98:cf:f0
        Signature Algorithm: sha256WithRSAEncryption
        Issuer: C=US, O=Portland State University, CN=Sub CA
        Validity
            Not Before: Apr  5 20:37:24 2022 GMT
            Not After : Apr  5 20:37:24 2023 GMT
        Subject: C=US, O=Portland State University, CN=Sub CA
        Subject Public Key Info:
            Public Key Algorithm: rsaEncryption
                RSA Public-Key: (2048 bit)
                Modulus:
                    00:f8:f3:bb:a5:b0:bf:b7:b7:1f:8c:bf:db:77:f6:
                    67:3a:40:5b:3d:08:5d:36:46:86:88:9a:48:8a:6e:
                    54:fd:59:e4:c9:71:1e:5e:6f:b1:8b:3c:ce:ea:ee:
                    a2:32:5f:e2:d4:92:b9:d4:f1:df:5e:f9:8f:31:33:
                    14:bb:3e:04:21:e2:83:3d:82:28:fb:6e:f3:e2:59:
                    0a:cf:00:67:41:eb:73:cc:95:0f:ef:31:54:50:e4:
                    c0:2c:99:46:2b:01:2f:b7:cb:6c:2e:74:68:ba:a9:
                    a0:2b:3f:28:ce:6b:ad:92:f9:12:8b:e2:07:81:e5:
                    08:dd:0b:c1:06:b1:65:63:46:ab:c6:65:34:fc:22:
                    19:0a:13:52:d7:53:99:6a:fe:fc:c5:0d:6e:9a:a3:
                    01:53:6b:f2:a9:fe:1a:55:e6:12:ec:a8:4b:31:54:
                    8e:c9:92:9b:c1:26:52:04:78:41:b7:43:8a:d0:16:
                    ef:14:5f:27:c3:86:72:ea:cd:32:33:23:c5:f4:87:
                    20:b7:c5:b3:52:2e:cf:4a:ff:1c:c5:82:08:27:fb:
                    ed:40:6e:03:32:a0:03:15:97:88:ad:fa:94:c8:53:
                    ee:35:3e:25:69:75:21:34:28:85:5b:8b:89:c6:85:
                    f4:7b:ef:4d:94:bb:2f:69:69:79:f6:af:90:fd:52:
                    9e:ed
                Exponent: 65537 (0x10001)
        X509v3 extensions:
            Authority Information Access: 
                CA Issuers - URI:http://sub-ca.localhost/sub-ca.crt
                OCSP - URI:http://ocsp.sub-ca.localhost:9081

            X509v3 Authority Key Identifier: 
                keyid:20:4E:F0:B3:1E:BF:BC:1F:35:6A:C5:70:8E:A0:D8:70:D5:D1:57:44

            X509v3 Basic Constraints: critical
                CA:FALSE
            X509v3 CRL Distribution Points: 

                Full Name:
                  URI:http://sub-ca.localhost/sub-ca.crl

            X509v3 Extended Key Usage: 
                TLS Web Client Authentication
            X509v3 Key Usage: critical
                Digital Signature
            X509v3 Subject Key Identifier: 
                A4:7E:E9:6C:B8:4B:3C:32:AE:41:C9:74:4B:4E:9C:B3:D2:F6:1F:32
    Signature Algorithm: sha256WithRSAEncryption
         3e:4f:13:b8:dd:0b:40:c5:72:3c:70:bd:ab:38:21:94:ce:4f:
         e2:73:46:f4:22:51:d2:f2:99:1e:31:d9:d5:f0:24:b1:83:2e:
         fa:f1:6d:fa:4b:d6:50:95:bd:36:e3:41:11:fc:a7:42:63:08:
         53:83:54:9f:d2:a1:ed:b8:ec:13:89:ec:b5:e7:3e:1f:da:d5:
         92:3b:1a:77:c2:91:51:f0:bf:86:dc:d9:20:82:5c:2d:4f:62:
         9f:77:3b:b7:be:a6:ab:58:65:8d:c0:35:32:f2:1b:04:3a:32:
         78:35:8a:eb:e8:05:2f:fe:a8:10:09:58:1e:fa:17:0b:30:60:
         bf:fe:7d:c6:e0:8e:4c:5f:e3:1d:6f:1b:c4:e3:e1:26:61:36:
         e2:1b:5d:89:b7:97:a1:7f:19:d6:8f:a8:7f:db:39:ed:4c:b3:
         ac:2d:f0:4f:f9:93:1c:9c:c9:d2:ae:4e:5b:0a:2c:8c:5a:ab:
         46:c3:d0:9d:ad:67:f0:39:38:40:98:ac:63:97:d9:ae:01:aa:
         86:32:09:06:49:90:d8:c4:81:0f:39:0b:1e:f5:a6:fb:a6:9f:
         14:3c:29:27:ef:24:fb:f4:f8:dd:54:22:ce:7f:ad:ec:a6:1b:
         b8:01:eb:02:f2:a6:73:a7:ad:c1:60:b6:30:35:70:58:1c:d8:
         88:c6:85:85
-----BEGIN CERTIFICATE-----
MIIELDCCAxSgAwIBAgIRAJBMZhuWGLmZEerit5uYz/AwDQYJKoZIhvcNAQELBQAw
QjELMAkGA1UEBhMCVVMxIjAgBgNVBAoMGVBvcnRsYW5kIFN0YXRlIFVuaXZlcnNp
dHkxDzANBgNVBAMMBlN1YiBDQTAeFw0yMjA0MDUyMDM3MjRaFw0yMzA0MDUyMDM3
MjRaMEIxCzAJBgNVBAYTAlVTMSIwIAYDVQQKDBlQb3J0bGFuZCBTdGF0ZSBVbml2
ZXJzaXR5MQ8wDQYDVQQDDAZTdWIgQ0EwggEiMA0GCSqGSIb3DQEBAQUAA4IBDwAw
ggEKAoIBAQD487ulsL+3tx+Mv9t39mc6QFs9CF02RoaImkiKblT9WeTJcR5eb7GL
PM7q7qIyX+LUkrnU8d9e+Y8xMxS7PgQh4oM9gij7bvPiWQrPAGdB63PMlQ/vMVRQ
5MAsmUYrAS+3y2wudGi6qaArPyjOa62S+RKL4geB5QjdC8EGsWVjRqvGZTT8IhkK
E1LXU5lq/vzFDW6aowFTa/Kp/hpV5hLsqEsxVI7JkpvBJlIEeEG3Q4rQFu8UXyfD
hnLqzTIzI8X0hyC3xbNSLs9K/xzFgggn++1AbgMyoAMVl4it+pTIU+41PiVpdSE0
KIVbi4nGhfR7702Uuy9paXn2r5D9Up7tAgMBAAGjggEbMIIBFzBtBggrBgEFBQcB
AQRhMF8wLgYIKwYBBQUHMAKGImh0dHA6Ly9zdWItY2EubG9jYWxob3N0L3N1Yi1j
YS5jcnQwLQYIKwYBBQUHMAGGIWh0dHA6Ly9vY3NwLnN1Yi1jYS5sb2NhbGhvc3Q6
OTA4MTAfBgNVHSMEGDAWgBQgTvCzHr+8HzVqxXCOoNhw1dFXRDAMBgNVHRMBAf8E
AjAAMDMGA1UdHwQsMCowKKAmoCSGImh0dHA6Ly9zdWItY2EubG9jYWxob3N0L3N1
Yi1jYS5jcmwwEwYDVR0lBAwwCgYIKwYBBQUHAwIwDgYDVR0PAQH/BAQDAgeAMB0G
A1UdDgQWBBSkfulsuEs8Mq5ByXRLTpyz0vYfMjANBgkqhkiG9w0BAQsFAAOCAQEA
Pk8TuN0LQMVyPHC9qzghlM5P4nNG9CJR0vKZHjHZ1fAksYMu+vFt+kvWUJW9NuNB
EfynQmMIU4NUn9Kh7bjsE4nstec+H9rVkjsad8KRUfC/htzZIIJcLU9in3c7t76m
q1hljcA1MvIbBDoyeDWK6+gFL/6oEAlYHvoXCzBgv/59xuCOTF/jHW8bxOPhJmE2
4htdibeXoX8Z1o+of9s57UyzrC3wT/mTHJzJ0q5OWwosjFqrRsPQna1n8Dk4QJis
Y5fZrgGqhjIJBkmQ2MSBDzkLHvWm+6afFDwpJ+8k+/T43VQizn+t7KYbuAHrAvKm
c6etwWC2MDVwWBzYiMaFhQ==
-----END CERTIFICATE-----
