Certificate:
    Data:
        Version: 3 (0x2)
        Serial Number:
            c8:b0:ee:f0:24:01:d7:8a:1d:14:40:3b:90:ff:46:eb
        Signature Algorithm: sha256WithRSAEncryption
        Issuer: C=US, O=Portland State University, CN=Sub CA
        Validity
            Not Before: Jun 19 16:06:04 2023 GMT
            Not After : Jun 16 16:06:04 2033 GMT
        Subject: C=US, O=Portland State University, CN=Sub CA
        Subject Public Key Info:
            Public Key Algorithm: rsaEncryption
                Public-Key: (2048 bit)
                Modulus:
                    00:b7:29:6c:40:de:ef:e2:46:1d:88:6a:de:c4:16:
                    5a:dc:c1:9a:de:61:c2:6a:2d:b7:9a:62:c7:7f:3f:
                    81:df:92:a5:e5:86:a9:51:a3:a3:1a:c4:4b:0e:36:
                    e3:69:04:4c:e5:6a:d8:0c:8c:1f:5e:c4:c3:9b:d4:
                    c0:59:8e:67:46:6d:3f:48:89:63:65:ea:8c:c8:24:
                    e8:ee:c2:39:df:d7:37:52:a5:18:61:79:f6:3d:64:
                    a0:a9:66:4d:2e:71:af:4b:35:d9:9b:a9:d2:17:7c:
                    eb:c5:2e:df:5a:40:0b:ed:4e:d5:08:d2:96:87:91:
                    02:9f:e5:4d:ea:40:f2:5f:40:85:4e:43:bd:a5:c9:
                    19:35:ab:d3:0d:46:99:6e:f1:7e:aa:11:3d:bc:b4:
                    3c:fa:da:98:ab:ea:b4:4f:ec:de:0b:2b:25:97:3a:
                    c0:6f:57:82:dc:80:26:27:37:d7:8e:c7:23:fb:a5:
                    3d:79:11:81:9f:a9:07:4b:28:0a:7d:72:c7:d8:b0:
                    90:dc:75:83:8e:46:2f:fb:42:9e:78:24:bb:4a:ec:
                    96:a3:d9:0e:8c:f7:a0:10:f9:72:c6:11:bf:88:8a:
                    1f:9c:06:e0:0f:70:e9:71:30:ee:b4:4c:9c:e5:56:
                    a5:89:87:8f:49:08:4c:31:42:ad:cf:95:99:d5:ce:
                    9e:37
                Exponent: 65537 (0x10001)
        X509v3 extensions:
            Authority Information Access: 
                CA Issuers - URI:http://sub-ca.localhost/sub-ca.crt
                OCSP - URI:http://ocsp.sub-ca.localhost:9081
            X509v3 Authority Key Identifier: 
                4D:A1:8D:85:C1:C1:ED:E8:9A:39:B5:05:2D:3B:72:88:8F:77:D0:82
            X509v3 Basic Constraints: critical
                CA:FALSE
            X509v3 CRL Distribution Points: 
                Full Name:
                  URI:http://sub-ca.localhost/sub-ca.crl
            X509v3 Extended Key Usage: 
                TLS Web Client Authentication
            X509v3 Key Usage: critical
                Digital Signature
            X509v3 Subject Key Identifier: 
                BD:AA:14:73:4A:82:04:11:E3:1A:9E:85:61:9A:5E:5A:72:64:F2:1C
    Signature Algorithm: sha256WithRSAEncryption
    Signature Value:
        9e:d0:ce:3e:14:24:39:85:01:0f:01:2e:1a:ec:ce:9c:fa:a1:
        80:3f:97:ac:25:87:5f:4b:45:13:ac:18:54:e0:21:39:51:aa:
        4e:40:42:dc:d3:af:55:d5:ae:81:28:93:18:2d:e7:16:13:84:
        5b:a0:e0:ff:92:86:56:09:4d:14:63:d3:43:59:19:c5:6f:0c:
        08:6d:96:da:36:b6:5e:8b:83:a1:d9:cb:f5:9e:32:20:17:15:
        9c:24:f1:ca:ff:e3:2d:cf:f8:d4:70:ba:f8:68:ae:fa:86:36:
        e4:bf:95:3b:13:fb:d5:eb:93:01:70:d9:ba:30:6a:26:66:99:
        4c:34:9e:3c:ea:38:72:18:a1:84:37:de:c2:4f:b8:16:24:db:
        7f:ad:93:49:c9:a6:66:aa:ba:ea:22:d4:6c:10:f0:7c:bd:13:
        e2:ff:12:92:0b:26:9a:2b:5a:38:94:5f:d2:77:59:3f:a8:ff:
        7b:12:90:42:d8:b3:5c:49:5d:bc:81:15:12:37:eb:1a:2b:c3:
        98:41:b4:a3:c1:e9:c0:cb:b1:ad:af:79:76:f8:e2:f0:2f:59:
        b0:8a:92:ca:b1:8c:a1:f8:fd:fd:f2:d0:0f:2a:1e:1c:95:61:
        31:8d:6e:65:0e:c6:59:b6:96:3a:84:cd:db:49:b7:5c:76:4f:
        55:a3:a5:ab
-----BEGIN CERTIFICATE-----
MIIELDCCAxSgAwIBAgIRAMiw7vAkAdeKHRRAO5D/RuswDQYJKoZIhvcNAQELBQAw
QjELMAkGA1UEBhMCVVMxIjAgBgNVBAoMGVBvcnRsYW5kIFN0YXRlIFVuaXZlcnNp
dHkxDzANBgNVBAMMBlN1YiBDQTAeFw0yMzA2MTkxNjA2MDRaFw0zMzA2MTYxNjA2
MDRaMEIxCzAJBgNVBAYTAlVTMSIwIAYDVQQKDBlQb3J0bGFuZCBTdGF0ZSBVbml2
ZXJzaXR5MQ8wDQYDVQQDDAZTdWIgQ0EwggEiMA0GCSqGSIb3DQEBAQUAA4IBDwAw
ggEKAoIBAQC3KWxA3u/iRh2Iat7EFlrcwZreYcJqLbeaYsd/P4HfkqXlhqlRo6Ma
xEsONuNpBEzlatgMjB9exMOb1MBZjmdGbT9IiWNl6ozIJOjuwjnf1zdSpRhhefY9
ZKCpZk0uca9LNdmbqdIXfOvFLt9aQAvtTtUI0paHkQKf5U3qQPJfQIVOQ72lyRk1
q9MNRplu8X6qET28tDz62pir6rRP7N4LKyWXOsBvV4LcgCYnN9eOxyP7pT15EYGf
qQdLKAp9csfYsJDcdYOORi/7Qp54JLtK7Jaj2Q6M96AQ+XLGEb+Iih+cBuAPcOlx
MO60TJzlVqWJh49JCEwxQq3PlZnVzp43AgMBAAGjggEbMIIBFzBtBggrBgEFBQcB
AQRhMF8wLgYIKwYBBQUHMAKGImh0dHA6Ly9zdWItY2EubG9jYWxob3N0L3N1Yi1j
YS5jcnQwLQYIKwYBBQUHMAGGIWh0dHA6Ly9vY3NwLnN1Yi1jYS5sb2NhbGhvc3Q6
OTA4MTAfBgNVHSMEGDAWgBRNoY2FwcHt6Jo5tQUtO3KIj3fQgjAMBgNVHRMBAf8E
AjAAMDMGA1UdHwQsMCowKKAmoCSGImh0dHA6Ly9zdWItY2EubG9jYWxob3N0L3N1
Yi1jYS5jcmwwEwYDVR0lBAwwCgYIKwYBBQUHAwIwDgYDVR0PAQH/BAQDAgeAMB0G
A1UdDgQWBBS9qhRzSoIEEeManoVhml5acmTyHDANBgkqhkiG9w0BAQsFAAOCAQEA
ntDOPhQkOYUBDwEuGuzOnPqhgD+XrCWHX0tFE6wYVOAhOVGqTkBC3NOvVdWugSiT
GC3nFhOEW6Dg/5KGVglNFGPTQ1kZxW8MCG2W2ja2XouDodnL9Z4yIBcVnCTxyv/j
Lc/41HC6+Giu+oY25L+VOxP71euTAXDZujBqJmaZTDSePOo4chihhDfewk+4FiTb
f62TScmmZqq66iLUbBDwfL0T4v8SkgsmmitaOJRf0ndZP6j/exKQQtizXEldvIEV
EjfrGivDmEG0o8HpwMuxra95dvji8C9ZsIqSyrGMofj9/fLQDyoeHJVhMY1uZQ7G
WbaWOoTN20m3XHZPVaOlqw==
-----END CERTIFICATE-----
