Certificate:
    Data:
        Version: 3 (0x2)
        Serial Number:
            c8:b0:ee:f0:24:01:d7:8a:1d:14:40:3b:90:ff:47:18
        Signature Algorithm: sha256WithRSAEncryption
        Issuer: C=US, O=Portland State University, CN=Sub CA
        Validity
            Not Before: Jun 19 16:06:10 2023 GMT
            Not After : Jun 16 16:06:10 2033 GMT
        Subject: C=US, O=Portland State University, CN=Sub CA
        Subject Public Key Info:
            Public Key Algorithm: rsaEncryption
                Public-Key: (2048 bit)
                Modulus:
                    00:a6:37:03:2b:93:e6:94:00:4c:1e:30:eb:d2:15:
                    f9:52:d1:33:b7:a1:b9:24:c9:ec:88:dc:25:4d:83:
                    0d:b5:92:28:90:8e:54:1a:93:60:13:54:9e:9e:dd:
                    e0:7b:46:d5:68:9f:16:58:b9:8b:29:e8:f7:4e:11:
                    db:17:5f:65:57:bf:ca:3e:9a:b7:71:0d:06:09:f7:
                    c2:0e:79:5f:48:a2:1a:e7:1d:62:a6:8e:a0:88:f8:
                    44:d1:05:9b:1a:16:23:b6:cb:0b:43:dd:70:dd:91:
                    4d:ac:de:f0:c6:25:d3:10:f4:a6:99:88:9a:ce:e5:
                    1e:89:94:c6:32:aa:0e:75:db:d7:9d:c0:6d:c5:35:
                    fd:67:17:e7:3c:d5:57:91:b7:69:6d:15:3c:fe:17:
                    5d:58:86:c7:bb:f9:4c:f5:95:f2:e8:7a:dd:99:b6:
                    ca:f8:5d:11:47:06:45:0f:1b:ad:c3:ff:32:f1:88:
                    a7:9a:67:84:8c:89:1d:3f:77:c3:8a:9d:39:78:91:
                    1a:56:b9:77:b8:2f:25:51:64:36:13:bb:c8:5b:83:
                    bf:97:c1:df:c9:21:c0:16:09:fe:65:e2:c6:d5:fe:
                    16:09:be:59:42:6f:42:b1:de:b4:7a:0c:68:63:c6:
                    9b:fe:73:51:50:fa:ce:c4:83:97:e3:fc:03:f5:74:
                    57:15
                Exponent: 65537 (0x10001)
        X509v3 extensions:
            Authority Information Access: 
                CA Issuers - URI:http://sub-ca.localhost/sub-ca.crt
                OCSP - URI:http://ocsp.sub-ca.localhost:9081
            X509v3 Authority Key Identifier: 
                4D:A1:8D:85:C1:C1:ED:E8:9A:39:B5:05:2D:3B:72:88:8F:77:D0:82
            X509v3 Basic Constraints: critical
                CA:FALSE
            X509v3 CRL Distribution Points: 
                Full Name:
                  URI:http://sub-ca.localhost/sub-ca.crl
            X509v3 Extended Key Usage: 
                TLS Web Client Authentication
            X509v3 Key Usage: critical
                Digital Signature
            X509v3 Subject Key Identifier: 
                31:4C:FE:0C:03:99:B4:19:12:09:34:51:14:00:F5:44:1E:9D:FA:DD
    Signature Algorithm: sha256WithRSAEncryption
    Signature Value:
        52:1c:5b:bb:99:8a:04:df:a9:02:3b:7f:6f:54:18:ad:a5:a3:
        7c:11:d9:14:b4:51:4a:d4:fc:07:b4:03:2e:0c:9f:ea:6b:5a:
        5f:39:b2:59:b1:c6:00:47:38:19:bd:7f:e1:1b:23:73:0e:76:
        95:ab:70:f6:79:c8:6d:1b:0f:8b:f7:86:f2:e1:2f:3a:54:6f:
        7c:ac:86:a8:c4:98:2e:96:d8:bd:6d:07:53:2b:33:af:d0:e8:
        9b:3c:1b:0c:df:9e:2e:59:dc:ad:da:f0:0a:04:25:79:5f:8d:
        da:fc:33:12:f1:07:d7:3e:8d:cb:d4:da:4e:6d:87:a4:51:08:
        34:4f:20:9e:76:b9:0f:6d:a3:db:8a:63:0f:e8:6d:a4:14:c7:
        1e:24:96:93:01:cb:57:36:fb:37:7b:fe:96:72:f6:75:76:06:
        e2:a4:03:9b:14:b8:d7:a3:a9:90:8c:cf:b2:51:3e:15:de:5f:
        be:1e:ec:c7:53:b7:a1:d7:ef:e9:9f:7c:21:3f:aa:78:57:04:
        a8:f5:f8:a9:48:e5:ba:f0:4a:b3:9c:1c:1a:93:ea:67:4a:05:
        21:45:de:66:64:e2:a2:89:c1:75:d5:18:df:4b:f1:9f:d7:5b:
        ea:0f:1e:54:1a:4c:44:8b:5a:1d:fa:b8:b1:9a:98:1e:24:25:
        d9:88:fe:11
-----BEGIN CERTIFICATE-----
MIIELDCCAxSgAwIBAgIRAMiw7vAkAdeKHRRAO5D/RxgwDQYJKoZIhvcNAQELBQAw
QjELMAkGA1UEBhMCVVMxIjAgBgNVBAoMGVBvcnRsYW5kIFN0YXRlIFVuaXZlcnNp
dHkxDzANBgNVBAMMBlN1YiBDQTAeFw0yMzA2MTkxNjA2MTBaFw0zMzA2MTYxNjA2
MTBaMEIxCzAJBgNVBAYTAlVTMSIwIAYDVQQKDBlQb3J0bGFuZCBTdGF0ZSBVbml2
ZXJzaXR5MQ8wDQYDVQQDDAZTdWIgQ0EwggEiMA0GCSqGSIb3DQEBAQUAA4IBDwAw
ggEKAoIBAQCmNwMrk+aUAEweMOvSFflS0TO3obkkyeyI3CVNgw21kiiQjlQak2AT
VJ6e3eB7RtVonxZYuYsp6PdOEdsXX2VXv8o+mrdxDQYJ98IOeV9IohrnHWKmjqCI
+ETRBZsaFiO2ywtD3XDdkU2s3vDGJdMQ9KaZiJrO5R6JlMYyqg5129edwG3FNf1n
F+c81VeRt2ltFTz+F11Yhse7+Uz1lfLoet2Ztsr4XRFHBkUPG63D/zLxiKeaZ4SM
iR0/d8OKnTl4kRpWuXe4LyVRZDYTu8hbg7+Xwd/JIcAWCf5l4sbV/hYJvllCb0Kx
3rR6DGhjxpv+c1FQ+s7Eg5fj/AP1dFcVAgMBAAGjggEbMIIBFzBtBggrBgEFBQcB
AQRhMF8wLgYIKwYBBQUHMAKGImh0dHA6Ly9zdWItY2EubG9jYWxob3N0L3N1Yi1j
YS5jcnQwLQYIKwYBBQUHMAGGIWh0dHA6Ly9vY3NwLnN1Yi1jYS5sb2NhbGhvc3Q6
OTA4MTAfBgNVHSMEGDAWgBRNoY2FwcHt6Jo5tQUtO3KIj3fQgjAMBgNVHRMBAf8E
AjAAMDMGA1UdHwQsMCowKKAmoCSGImh0dHA6Ly9zdWItY2EubG9jYWxob3N0L3N1
Yi1jYS5jcmwwEwYDVR0lBAwwCgYIKwYBBQUHAwIwDgYDVR0PAQH/BAQDAgeAMB0G
A1UdDgQWBBQxTP4MA5m0GRIJNFEUAPVEHp363TANBgkqhkiG9w0BAQsFAAOCAQEA
Uhxbu5mKBN+pAjt/b1QYraWjfBHZFLRRStT8B7QDLgyf6mtaXzmyWbHGAEc4Gb1/
4Rsjcw52latw9nnIbRsPi/eG8uEvOlRvfKyGqMSYLpbYvW0HUyszr9DomzwbDN+e
LlncrdrwCgQleV+N2vwzEvEH1z6Ny9TaTm2HpFEINE8gnna5D22j24pjD+htpBTH
HiSWkwHLVzb7N3v+lnL2dXYG4qQDmxS416OpkIzPslE+Fd5fvh7sx1O3odfv6Z98
IT+qeFcEqPX4qUjluvBKs5wcGpPqZ0oFIUXeZmTioonBddUY30vxn9db6g8eVBpM
RItaHfq4sZqYHiQl2Yj+EQ==
-----END CERTIFICATE-----
