Certificate:
    Data:
        Version: 3 (0x2)
        Serial Number:
            c8:b0:ee:f0:24:01:d7:8a:1d:14:40:3b:90:ff:47:31
        Signature Algorithm: sha256WithRSAEncryption
        Issuer: C=US, O=Portland State University, CN=Sub CA
        Validity
            Not Before: Jun 19 16:06:15 2023 GMT
            Not After : Jun 16 16:06:15 2033 GMT
        Subject: C=US, O=Portland State University, CN=Sub CA
        Subject Public Key Info:
            Public Key Algorithm: rsaEncryption
                Public-Key: (2048 bit)
                Modulus:
                    00:c8:5b:49:16:95:33:8f:68:00:dd:21:a9:8a:d5:
                    14:00:1d:a1:87:fd:6b:d1:cd:50:9c:a7:e8:69:81:
                    37:04:b7:c4:5d:0f:54:53:96:d5:5d:7d:88:7d:f7:
                    09:a7:34:94:50:26:b2:38:d5:2a:a9:f5:03:9d:01:
                    19:1a:94:95:60:5b:96:53:9e:d1:40:5c:19:6b:fd:
                    5f:11:d5:f3:34:45:cc:94:e4:13:cb:5c:e7:e7:da:
                    6d:5b:a5:89:70:2d:b1:47:34:ac:86:54:53:91:6e:
                    4c:c2:e3:32:1b:07:ed:a1:e6:31:51:3b:e6:54:54:
                    fd:24:df:5b:78:84:1f:15:31:38:78:36:fb:9a:99:
                    1d:fc:90:b0:4e:d4:58:f6:6a:c5:d6:65:ef:84:1d:
                    f4:d9:cf:aa:1a:23:cc:fc:1c:90:e4:3b:d9:b9:b5:
                    d1:d2:50:99:84:c5:ee:1e:27:6a:5f:d4:64:82:8e:
                    ab:5c:0b:3a:82:44:58:f2:36:36:1f:6d:6b:11:17:
                    e5:94:20:08:a5:e2:3b:6c:3b:d5:fc:35:71:ba:fa:
                    c6:8c:4d:9c:69:c8:15:a7:1a:26:9a:7c:8f:1c:d5:
                    a6:bd:82:25:b4:6b:c4:57:8c:62:3d:26:2b:b1:4c:
                    92:5a:f5:1a:7c:4e:8b:0e:c3:3f:bc:37:b2:d5:0c:
                    20:5f
                Exponent: 65537 (0x10001)
        X509v3 extensions:
            Authority Information Access: 
                CA Issuers - URI:http://sub-ca.localhost/sub-ca.crt
                OCSP - URI:http://ocsp.sub-ca.localhost:9081
            X509v3 Authority Key Identifier: 
                4D:A1:8D:85:C1:C1:ED:E8:9A:39:B5:05:2D:3B:72:88:8F:77:D0:82
            X509v3 Basic Constraints: critical
                CA:FALSE
            X509v3 CRL Distribution Points: 
                Full Name:
                  URI:http://sub-ca.localhost/sub-ca.crl
            X509v3 Extended Key Usage: 
                TLS Web Client Authentication
            X509v3 Key Usage: critical
                Digital Signature
            X509v3 Subject Key Identifier: 
                CB:63:7F:57:1E:38:0D:E3:4A:7E:38:1F:A6:C5:A3:D1:01:D2:ED:0E
    Signature Algorithm: sha256WithRSAEncryption
    Signature Value:
        81:c6:bc:cd:ac:4c:a6:6b:60:50:af:c7:17:c8:7d:84:0e:59:
        0b:f6:88:ab:4a:3b:be:74:85:f0:f2:73:ba:2f:82:9f:36:e0:
        50:3b:f7:0f:43:01:87:08:f5:3f:0f:8a:79:5c:a0:99:8f:fa:
        4a:83:70:88:82:71:67:20:de:62:3c:34:39:2f:71:0e:27:61:
        8e:4a:8b:b4:22:6c:ad:af:a4:c2:65:bc:bd:6e:24:34:3f:09:
        f2:c6:59:8d:e0:fd:74:27:a0:52:de:d4:b9:35:11:3a:67:cf:
        34:23:82:0e:f8:a8:68:04:e4:3d:fc:98:76:33:fd:00:f3:3f:
        79:dd:58:dd:b7:60:87:6d:4e:e9:fc:03:ac:97:c0:4e:21:55:
        ea:4e:ed:90:9c:f2:ce:b8:28:b9:ed:4d:00:18:47:5a:39:66:
        25:cf:35:0c:17:d4:0c:9e:71:68:14:5a:69:d8:05:85:6f:d4:
        f8:74:47:59:b6:10:0d:8c:06:ae:7f:9b:26:53:3b:cf:4b:2d:
        ae:38:f7:20:c6:6c:02:4e:cf:a2:74:e1:fd:f4:a9:88:89:98:
        1c:05:d4:09:0c:3b:c9:41:f5:0c:d6:c7:02:45:6b:97:63:20:
        12:bb:1c:e4:34:d3:7a:c2:da:af:92:dd:44:8d:72:a5:48:92:
        20:91:24:db
-----BEGIN CERTIFICATE-----
MIIELDCCAxSgAwIBAgIRAMiw7vAkAdeKHRRAO5D/RzEwDQYJKoZIhvcNAQELBQAw
QjELMAkGA1UEBhMCVVMxIjAgBgNVBAoMGVBvcnRsYW5kIFN0YXRlIFVuaXZlcnNp
dHkxDzANBgNVBAMMBlN1YiBDQTAeFw0yMzA2MTkxNjA2MTVaFw0zMzA2MTYxNjA2
MTVaMEIxCzAJBgNVBAYTAlVTMSIwIAYDVQQKDBlQb3J0bGFuZCBTdGF0ZSBVbml2
ZXJzaXR5MQ8wDQYDVQQDDAZTdWIgQ0EwggEiMA0GCSqGSIb3DQEBAQUAA4IBDwAw
ggEKAoIBAQDIW0kWlTOPaADdIamK1RQAHaGH/WvRzVCcp+hpgTcEt8RdD1RTltVd
fYh99wmnNJRQJrI41Sqp9QOdARkalJVgW5ZTntFAXBlr/V8R1fM0RcyU5BPLXOfn
2m1bpYlwLbFHNKyGVFORbkzC4zIbB+2h5jFRO+ZUVP0k31t4hB8VMTh4NvuamR38
kLBO1Fj2asXWZe+EHfTZz6oaI8z8HJDkO9m5tdHSUJmExe4eJ2pf1GSCjqtcCzqC
RFjyNjYfbWsRF+WUIAil4jtsO9X8NXG6+saMTZxpyBWnGiaafI8c1aa9giW0a8RX
jGI9JiuxTJJa9Rp8TosOwz+8N7LVDCBfAgMBAAGjggEbMIIBFzBtBggrBgEFBQcB
AQRhMF8wLgYIKwYBBQUHMAKGImh0dHA6Ly9zdWItY2EubG9jYWxob3N0L3N1Yi1j
YS5jcnQwLQYIKwYBBQUHMAGGIWh0dHA6Ly9vY3NwLnN1Yi1jYS5sb2NhbGhvc3Q6
OTA4MTAfBgNVHSMEGDAWgBRNoY2FwcHt6Jo5tQUtO3KIj3fQgjAMBgNVHRMBAf8E
AjAAMDMGA1UdHwQsMCowKKAmoCSGImh0dHA6Ly9zdWItY2EubG9jYWxob3N0L3N1
Yi1jYS5jcmwwEwYDVR0lBAwwCgYIKwYBBQUHAwIwDgYDVR0PAQH/BAQDAgeAMB0G
A1UdDgQWBBTLY39XHjgN40p+OB+mxaPRAdLtDjANBgkqhkiG9w0BAQsFAAOCAQEA
gca8zaxMpmtgUK/HF8h9hA5ZC/aIq0o7vnSF8PJzui+CnzbgUDv3D0MBhwj1Pw+K
eVygmY/6SoNwiIJxZyDeYjw0OS9xDidhjkqLtCJsra+kwmW8vW4kND8J8sZZjeD9
dCegUt7UuTUROmfPNCOCDvioaATkPfyYdjP9APM/ed1Y3bdgh21O6fwDrJfATiFV
6k7tkJzyzrgoue1NABhHWjlmJc81DBfUDJ5xaBRaadgFhW/U+HRHWbYQDYwGrn+b
JlM7z0strjj3IMZsAk7PonTh/fSpiImYHAXUCQw7yUH1DNbHAkVrl2MgErsc5DTT
esLar5LdRI1ypUiSIJEk2w==
-----END CERTIFICATE-----
