Certificate:
    Data:
        Version: 3 (0x2)
        Serial Number:
            90:4c:66:1b:96:18:b9:99:11:ea:e2:b7:9b:98:cf:b7
        Signature Algorithm: sha256WithRSAEncryption
        Issuer: C=US, O=Portland State University, CN=Sub CA
        Validity
            Not Before: Apr 29 02:52:06 2021 GMT
            Not After : Apr 29 02:52:06 2022 GMT
        Subject: C=US, O=Portland State University, CN=Sub CA
        Subject Public Key Info:
            Public Key Algorithm: rsaEncryption
                RSA Public-Key: (2048 bit)
                Modulus:
                    00:d8:f7:c4:94:6f:d5:28:e6:8a:ac:a4:72:58:7a:
                    91:95:13:df:35:bc:c6:d4:71:89:f5:54:49:d7:c6:
                    f1:d5:4e:14:2f:e1:13:97:e3:33:a6:06:12:06:7d:
                    3c:82:7c:4d:26:07:69:ba:0e:3c:dd:59:66:0e:d0:
                    6a:8b:83:d7:2d:89:11:bf:31:bf:2f:a7:5c:27:c4:
                    e6:fc:13:18:0d:af:fe:86:74:bc:51:48:7f:03:ea:
                    f6:75:f3:00:08:e0:9e:d2:02:e5:84:1f:c9:fd:da:
                    eb:bc:f1:be:b5:d6:b6:4b:b3:83:93:5e:4a:11:45:
                    2a:51:00:28:04:6f:ee:70:95:1e:cd:4f:59:ed:10:
                    5d:6f:0b:fc:41:38:40:5b:f8:27:36:05:52:66:ac:
                    a2:4a:40:eb:35:31:c0:ea:f0:91:4c:14:1e:a5:92:
                    18:f7:c8:09:df:50:57:20:70:f4:40:45:39:0d:e1:
                    49:df:9a:37:3f:46:4e:41:70:ee:e6:bc:45:24:b8:
                    44:c8:01:10:d7:42:ff:73:61:f2:f9:bd:09:8e:a9:
                    8f:e9:42:b4:31:57:56:eb:8a:d9:b1:c5:9f:a7:83:
                    34:24:dc:29:0f:2c:73:07:ef:95:3f:c9:7b:3e:15:
                    4a:fb:19:0e:b3:c4:2f:7c:e5:3f:63:ce:71:69:50:
                    11:a5
                Exponent: 65537 (0x10001)
        X509v3 extensions:
            Authority Information Access: 
                CA Issuers - URI:http://sub-ca.localhost/sub-ca.crt
                OCSP - URI:http://ocsp.sub-ca.localhost:9081

            X509v3 Authority Key Identifier: 
                keyid:20:4E:F0:B3:1E:BF:BC:1F:35:6A:C5:70:8E:A0:D8:70:D5:D1:57:44

            X509v3 Basic Constraints: critical
                CA:FALSE
            X509v3 CRL Distribution Points: 

                Full Name:
                  URI:http://sub-ca.localhost/sub-ca.crl

            X509v3 Extended Key Usage: 
                TLS Web Client Authentication
            X509v3 Key Usage: critical
                Digital Signature
            X509v3 Subject Key Identifier: 
                57:53:F0:41:14:45:36:AC:ED:AD:2B:5F:8B:C3:91:5D:FF:0D:27:C5
    Signature Algorithm: sha256WithRSAEncryption
         83:60:dd:67:b9:23:f9:f0:8c:93:38:97:c2:73:11:44:d9:1d:
         54:82:58:cd:9a:35:5a:62:1d:dc:f7:3a:1c:6c:16:86:d7:42:
         0e:b8:d8:24:bc:66:7b:10:cd:39:54:f7:aa:5c:73:6f:6d:21:
         0c:7a:4b:c3:4e:f0:96:89:37:34:6f:7e:79:c4:a6:e1:bf:13:
         bb:7e:1e:28:56:df:02:39:74:21:da:75:80:87:d8:a0:44:e8:
         56:b8:69:f4:03:69:b7:ee:f7:6a:00:d2:6b:6f:1d:8f:c2:51:
         30:f8:5e:1d:cb:59:85:be:e3:5e:63:3c:c4:ff:5a:27:10:3f:
         92:4c:6a:c2:4b:2c:81:c2:38:50:81:7f:82:fa:12:80:51:83:
         e2:59:ea:94:55:20:18:ff:56:f6:f2:ed:b3:33:74:24:e1:fb:
         fb:4d:51:0b:97:0b:b6:9e:4c:31:12:b2:23:67:a4:13:b1:86:
         69:41:cc:71:9b:d7:f3:5b:ab:08:64:03:a0:f0:c8:af:3e:fe:
         f8:00:e2:f9:2b:1a:42:fb:aa:30:90:17:b8:f2:2c:bc:4d:2b:
         05:65:36:a3:88:16:cc:d3:0f:22:58:53:e4:a4:fb:8e:02:15:
         93:19:1b:7a:a3:0f:a8:1d:71:2e:5b:89:40:46:a2:3b:27:de:
         67:05:0d:47
-----BEGIN CERTIFICATE-----
MIIELDCCAxSgAwIBAgIRAJBMZhuWGLmZEerit5uYz7cwDQYJKoZIhvcNAQELBQAw
QjELMAkGA1UEBhMCVVMxIjAgBgNVBAoMGVBvcnRsYW5kIFN0YXRlIFVuaXZlcnNp
dHkxDzANBgNVBAMMBlN1YiBDQTAeFw0yMTA0MjkwMjUyMDZaFw0yMjA0MjkwMjUy
MDZaMEIxCzAJBgNVBAYTAlVTMSIwIAYDVQQKDBlQb3J0bGFuZCBTdGF0ZSBVbml2
ZXJzaXR5MQ8wDQYDVQQDDAZTdWIgQ0EwggEiMA0GCSqGSIb3DQEBAQUAA4IBDwAw
ggEKAoIBAQDY98SUb9Uo5oqspHJYepGVE981vMbUcYn1VEnXxvHVThQv4ROX4zOm
BhIGfTyCfE0mB2m6DjzdWWYO0GqLg9ctiRG/Mb8vp1wnxOb8ExgNr/6GdLxRSH8D
6vZ18wAI4J7SAuWEH8n92uu88b611rZLs4OTXkoRRSpRACgEb+5wlR7NT1ntEF1v
C/xBOEBb+Cc2BVJmrKJKQOs1McDq8JFMFB6lkhj3yAnfUFcgcPRARTkN4Unfmjc/
Rk5BcO7mvEUkuETIARDXQv9zYfL5vQmOqY/pQrQxV1britmxxZ+ngzQk3CkPLHMH
75U/yXs+FUr7GQ6zxC985T9jznFpUBGlAgMBAAGjggEbMIIBFzBtBggrBgEFBQcB
AQRhMF8wLgYIKwYBBQUHMAKGImh0dHA6Ly9zdWItY2EubG9jYWxob3N0L3N1Yi1j
YS5jcnQwLQYIKwYBBQUHMAGGIWh0dHA6Ly9vY3NwLnN1Yi1jYS5sb2NhbGhvc3Q6
OTA4MTAfBgNVHSMEGDAWgBQgTvCzHr+8HzVqxXCOoNhw1dFXRDAMBgNVHRMBAf8E
AjAAMDMGA1UdHwQsMCowKKAmoCSGImh0dHA6Ly9zdWItY2EubG9jYWxob3N0L3N1
Yi1jYS5jcmwwEwYDVR0lBAwwCgYIKwYBBQUHAwIwDgYDVR0PAQH/BAQDAgeAMB0G
A1UdDgQWBBRXU/BBFEU2rO2tK1+Lw5Fd/w0nxTANBgkqhkiG9w0BAQsFAAOCAQEA
g2DdZ7kj+fCMkziXwnMRRNkdVIJYzZo1WmId3Pc6HGwWhtdCDrjYJLxmexDNOVT3
qlxzb20hDHpLw07wlok3NG9+ecSm4b8Tu34eKFbfAjl0Idp1gIfYoEToVrhp9ANp
t+73agDSa28dj8JRMPheHctZhb7jXmM8xP9aJxA/kkxqwkssgcI4UIF/gvoSgFGD
4lnqlFUgGP9W9vLtszN0JOH7+01RC5cLtp5MMRKyI2ekE7GGaUHMcZvX81urCGQD
oPDIrz7++ADi+SsaQvuqMJAXuPIsvE0rBWU2o4gWzNMPIlhT5KT7jgIVkxkbeqMP
qB1xLluJQEaiOyfeZwUNRw==
-----END CERTIFICATE-----
