Certificate:
    Data:
        Version: 3 (0x2)
        Serial Number:
            90:4c:66:1b:96:18:b9:99:11:ea:e2:b7:9b:98:cf:e3
        Signature Algorithm: sha256WithRSAEncryption
        Issuer: C=US, O=Portland State University, CN=Sub CA
        Validity
            Not Before: Apr  5 20:37:22 2022 GMT
            Not After : Apr  5 20:37:22 2023 GMT
        Subject: C=US, O=Portland State University, CN=Sub CA
        Subject Public Key Info:
            Public Key Algorithm: rsaEncryption
                RSA Public-Key: (2048 bit)
                Modulus:
                    00:a9:89:57:d2:a8:7d:d2:6e:4d:8f:d6:94:66:0e:
                    28:13:ac:b6:b1:f2:4d:8f:e2:25:df:73:f4:3e:5c:
                    d6:f9:47:e2:45:b9:46:30:2e:25:65:97:34:74:74:
                    5b:96:3e:cc:38:4b:c5:8e:81:f2:b3:2e:9d:55:59:
                    f7:d7:d3:1d:85:62:81:6f:2c:30:8a:23:56:70:80:
                    6b:be:c5:99:e8:17:4e:63:99:ee:92:8c:83:84:35:
                    0d:2b:d8:f3:44:3e:43:1d:39:5e:4e:8f:78:27:49:
                    1b:17:03:eb:d0:2b:f4:68:aa:f1:44:1d:a1:a3:23:
                    cb:84:44:ed:67:b6:9f:17:34:92:a2:7b:b7:7e:34:
                    5b:5c:3a:c4:41:63:0c:2e:8d:93:42:10:fe:9d:e2:
                    89:3a:09:21:38:ca:2f:d8:98:d3:09:ed:c0:5a:9b:
                    1c:ba:53:9a:90:0d:a1:7e:24:f4:73:3d:bd:2a:fa:
                    7c:75:43:2b:5d:32:c6:40:3d:eb:75:3f:83:fc:0b:
                    bf:e5:22:70:06:d6:cb:5f:78:e2:a1:fb:7a:c0:46:
                    fc:2b:5f:88:8f:05:67:3a:30:2b:af:cd:fc:9a:bc:
                    a4:0d:53:bf:8b:c9:2f:7f:95:07:5a:c0:6c:b8:25:
                    46:97:c3:12:25:be:6e:81:55:74:53:f8:7a:6d:b8:
                    98:25
                Exponent: 65537 (0x10001)
        X509v3 extensions:
            Authority Information Access: 
                CA Issuers - URI:http://sub-ca.localhost/sub-ca.crt
                OCSP - URI:http://ocsp.sub-ca.localhost:9081

            X509v3 Authority Key Identifier: 
                keyid:20:4E:F0:B3:1E:BF:BC:1F:35:6A:C5:70:8E:A0:D8:70:D5:D1:57:44

            X509v3 Basic Constraints: critical
                CA:FALSE
            X509v3 CRL Distribution Points: 

                Full Name:
                  URI:http://sub-ca.localhost/sub-ca.crl

            X509v3 Extended Key Usage: 
                TLS Web Client Authentication
            X509v3 Key Usage: critical
                Digital Signature
            X509v3 Subject Key Identifier: 
                6D:F5:2E:70:CF:0B:5B:1A:43:66:74:B1:85:22:76:7D:6D:9B:14:09
    Signature Algorithm: sha256WithRSAEncryption
         99:9c:a8:4d:0d:36:7e:ae:8b:96:3a:cf:f8:e6:7d:12:aa:91:
         ae:ec:62:b7:12:ee:a0:fd:ee:00:21:bb:27:2f:1e:97:65:ac:
         d2:ae:9b:00:6d:42:4a:49:24:e9:47:61:ba:7b:9a:29:eb:32:
         f8:e2:80:af:cd:34:9b:0c:7d:8b:49:aa:2b:e3:27:95:b4:6d:
         7e:5c:e9:01:5f:aa:f1:6d:ad:b8:30:9c:96:2d:f3:63:63:d8:
         00:2a:58:10:78:52:e3:91:7a:f3:cb:c8:fe:c8:64:93:da:c9:
         5e:4d:a1:2b:74:75:0f:6e:88:2c:0c:7c:d0:68:fc:63:31:d1:
         a2:af:e1:02:c6:f2:f2:d2:d8:f3:a9:7f:0e:6b:db:ad:9c:69:
         19:fc:0d:09:29:38:1c:4d:16:7d:90:cc:35:bf:e7:06:33:4e:
         81:f7:d1:9c:92:15:19:52:ed:84:01:cb:fa:d4:68:13:fd:a8:
         39:4c:f1:ac:13:02:3c:cd:fc:20:0e:fc:21:af:7b:b9:05:b3:
         9c:44:a2:74:a3:9f:99:78:db:36:ff:1f:27:10:82:f9:de:c0:
         09:20:e5:6e:82:95:65:c1:2e:1c:a8:22:e2:24:11:4b:b0:ff:
         07:0e:7e:fb:92:61:b1:02:a4:61:a3:79:6b:72:50:20:f1:2a:
         63:89:30:d2
-----BEGIN CERTIFICATE-----
MIIELDCCAxSgAwIBAgIRAJBMZhuWGLmZEerit5uYz+MwDQYJKoZIhvcNAQELBQAw
QjELMAkGA1UEBhMCVVMxIjAgBgNVBAoMGVBvcnRsYW5kIFN0YXRlIFVuaXZlcnNp
dHkxDzANBgNVBAMMBlN1YiBDQTAeFw0yMjA0MDUyMDM3MjJaFw0yMzA0MDUyMDM3
MjJaMEIxCzAJBgNVBAYTAlVTMSIwIAYDVQQKDBlQb3J0bGFuZCBTdGF0ZSBVbml2
ZXJzaXR5MQ8wDQYDVQQDDAZTdWIgQ0EwggEiMA0GCSqGSIb3DQEBAQUAA4IBDwAw
ggEKAoIBAQCpiVfSqH3Sbk2P1pRmDigTrLax8k2P4iXfc/Q+XNb5R+JFuUYwLiVl
lzR0dFuWPsw4S8WOgfKzLp1VWffX0x2FYoFvLDCKI1ZwgGu+xZnoF05jme6SjIOE
NQ0r2PNEPkMdOV5Oj3gnSRsXA+vQK/RoqvFEHaGjI8uERO1ntp8XNJKie7d+NFtc
OsRBYwwujZNCEP6d4ok6CSE4yi/YmNMJ7cBamxy6U5qQDaF+JPRzPb0q+nx1Qytd
MsZAPet1P4P8C7/lInAG1stfeOKh+3rARvwrX4iPBWc6MCuvzfyavKQNU7+LyS9/
lQdawGy4JUaXwxIlvm6BVXRT+HptuJglAgMBAAGjggEbMIIBFzBtBggrBgEFBQcB
AQRhMF8wLgYIKwYBBQUHMAKGImh0dHA6Ly9zdWItY2EubG9jYWxob3N0L3N1Yi1j
YS5jcnQwLQYIKwYBBQUHMAGGIWh0dHA6Ly9vY3NwLnN1Yi1jYS5sb2NhbGhvc3Q6
OTA4MTAfBgNVHSMEGDAWgBQgTvCzHr+8HzVqxXCOoNhw1dFXRDAMBgNVHRMBAf8E
AjAAMDMGA1UdHwQsMCowKKAmoCSGImh0dHA6Ly9zdWItY2EubG9jYWxob3N0L3N1
Yi1jYS5jcmwwEwYDVR0lBAwwCgYIKwYBBQUHAwIwDgYDVR0PAQH/BAQDAgeAMB0G
A1UdDgQWBBRt9S5wzwtbGkNmdLGFInZ9bZsUCTANBgkqhkiG9w0BAQsFAAOCAQEA
mZyoTQ02fq6LljrP+OZ9EqqRruxitxLuoP3uACG7Jy8el2Ws0q6bAG1CSkkk6Udh
unuaKesy+OKAr800mwx9i0mqK+MnlbRtflzpAV+q8W2tuDCcli3zY2PYACpYEHhS
45F688vI/shkk9rJXk2hK3R1D26ILAx80Gj8YzHRoq/hAsby8tLY86l/DmvbrZxp
GfwNCSk4HE0WfZDMNb/nBjNOgffRnJIVGVLthAHL+tRoE/2oOUzxrBMCPM38IA78
Ia97uQWznESidKOfmXjbNv8fJxCC+d7ACSDlboKVZcEuHKgi4iQRS7D/Bw5++5Jh
sQKkYaN5a3JQIPEqY4kw0g==
-----END CERTIFICATE-----
