Certificate:
    Data:
        Version: 3 (0x2)
        Serial Number:
            90:4c:66:1b:96:18:b9:99:11:ea:e2:b7:9b:98:d0:07
        Signature Algorithm: sha256WithRSAEncryption
        Issuer: C=US, O=Portland State University, CN=Sub CA
        Validity
            Not Before: Apr  5 20:37:26 2022 GMT
            Not After : Apr  5 20:37:26 2023 GMT
        Subject: C=US, O=Portland State University, CN=Sub CA
        Subject Public Key Info:
            Public Key Algorithm: rsaEncryption
                RSA Public-Key: (2048 bit)
                Modulus:
                    00:dc:66:49:a6:62:e8:f3:29:a4:14:a7:7f:e9:34:
                    57:67:20:25:0d:78:d5:11:d7:f7:f0:3b:69:87:2e:
                    e3:bc:62:da:ae:de:8d:6a:d2:33:9c:00:46:01:3f:
                    a5:7b:7d:1e:cc:71:e6:3b:fd:30:86:56:57:fd:15:
                    ba:c1:ea:f1:c7:a9:9c:42:cd:c3:72:5e:25:92:23:
                    9d:ae:b3:4b:3e:80:d1:8b:7b:a9:62:d0:b4:53:eb:
                    28:4d:c1:e5:0d:2d:51:e9:f1:9d:e7:8e:e4:f1:16:
                    40:91:24:1d:c2:46:35:0c:c5:39:8b:0e:2d:ec:6e:
                    d3:cd:9a:89:43:df:4f:a6:66:df:27:4b:f3:95:d4:
                    70:be:ff:4c:47:10:c2:97:d7:a5:13:58:3d:56:bb:
                    14:5b:f8:76:68:8e:2b:12:61:ea:ad:95:92:ac:3c:
                    70:ed:05:0e:19:57:7d:96:16:6b:b5:62:f5:92:41:
                    dc:0a:f9:29:97:d6:8b:13:c0:a1:0a:60:85:91:a4:
                    7c:13:b7:01:c5:84:98:7d:b9:92:fc:51:6a:e2:fa:
                    21:f8:d6:08:4c:20:de:d4:5d:4f:a3:51:48:6e:bb:
                    ed:d0:7f:c0:49:70:12:d3:65:7e:47:31:7a:e9:6f:
                    d9:dc:b2:e8:bf:5c:ec:f4:2d:51:12:a5:14:7c:96:
                    d4:3f
                Exponent: 65537 (0x10001)
        X509v3 extensions:
            Authority Information Access: 
                CA Issuers - URI:http://sub-ca.localhost/sub-ca.crt
                OCSP - URI:http://ocsp.sub-ca.localhost:9081

            X509v3 Authority Key Identifier: 
                keyid:20:4E:F0:B3:1E:BF:BC:1F:35:6A:C5:70:8E:A0:D8:70:D5:D1:57:44

            X509v3 Basic Constraints: critical
                CA:FALSE
            X509v3 CRL Distribution Points: 

                Full Name:
                  URI:http://sub-ca.localhost/sub-ca.crl

            X509v3 Extended Key Usage: 
                TLS Web Client Authentication
            X509v3 Key Usage: critical
                Digital Signature
            X509v3 Subject Key Identifier: 
                CC:FA:DF:82:53:ED:2E:D6:7C:E5:DF:46:C3:02:E0:62:CD:FD:B8:27
    Signature Algorithm: sha256WithRSAEncryption
         20:75:b9:2c:9a:19:ee:b7:65:d2:f1:e6:9a:ea:bb:43:9f:aa:
         0e:2f:53:6f:a7:3c:19:df:a5:f7:1a:a8:67:70:c4:07:f6:87:
         53:f6:02:d1:9b:08:f2:13:22:87:96:c0:88:f1:fd:49:33:f4:
         e6:ed:5b:0f:32:58:55:e9:9d:f7:79:cd:1b:e5:81:97:7a:b7:
         a3:fa:b4:93:2c:9f:fc:5f:63:eb:c8:99:1c:39:2f:b2:22:7d:
         ef:cf:e9:c4:0b:af:2a:33:4e:5e:2c:a9:ee:ed:a6:8d:16:d1:
         c4:c9:16:1e:55:73:ac:d7:c8:f9:dd:b5:fa:6b:3c:2e:d7:58:
         87:0a:86:98:69:4f:30:62:c8:a7:cb:6e:a5:a4:38:02:18:7c:
         a5:e9:36:e2:a6:7d:a6:d8:fd:65:ad:93:1f:45:78:a9:95:a0:
         9a:0e:e0:77:1a:df:a8:38:03:d4:5b:3c:98:7b:15:bf:51:a9:
         b6:97:16:9a:99:c7:f2:8b:81:e2:21:c0:f3:87:ef:0e:5d:9f:
         a2:b1:0f:70:b4:ad:c2:9a:f9:74:73:2b:11:51:e7:e2:3c:10:
         fa:ca:04:12:16:80:83:1f:ea:ab:67:5c:58:8a:c6:45:7e:25:
         e8:66:01:a3:c1:47:74:ea:5b:50:c6:e4:fc:79:17:a1:b3:b0:
         4b:2c:ad:81
-----BEGIN CERTIFICATE-----
MIIELDCCAxSgAwIBAgIRAJBMZhuWGLmZEerit5uY0AcwDQYJKoZIhvcNAQELBQAw
QjELMAkGA1UEBhMCVVMxIjAgBgNVBAoMGVBvcnRsYW5kIFN0YXRlIFVuaXZlcnNp
dHkxDzANBgNVBAMMBlN1YiBDQTAeFw0yMjA0MDUyMDM3MjZaFw0yMzA0MDUyMDM3
MjZaMEIxCzAJBgNVBAYTAlVTMSIwIAYDVQQKDBlQb3J0bGFuZCBTdGF0ZSBVbml2
ZXJzaXR5MQ8wDQYDVQQDDAZTdWIgQ0EwggEiMA0GCSqGSIb3DQEBAQUAA4IBDwAw
ggEKAoIBAQDcZkmmYujzKaQUp3/pNFdnICUNeNUR1/fwO2mHLuO8Ytqu3o1q0jOc
AEYBP6V7fR7MceY7/TCGVlf9FbrB6vHHqZxCzcNyXiWSI52us0s+gNGLe6li0LRT
6yhNweUNLVHp8Z3njuTxFkCRJB3CRjUMxTmLDi3sbtPNmolD30+mZt8nS/OV1HC+
/0xHEMKX16UTWD1WuxRb+HZojisSYeqtlZKsPHDtBQ4ZV32WFmu1YvWSQdwK+SmX
1osTwKEKYIWRpHwTtwHFhJh9uZL8UWri+iH41ghMIN7UXU+jUUhuu+3Qf8BJcBLT
ZX5HMXrpb9ncsui/XOz0LVESpRR8ltQ/AgMBAAGjggEbMIIBFzBtBggrBgEFBQcB
AQRhMF8wLgYIKwYBBQUHMAKGImh0dHA6Ly9zdWItY2EubG9jYWxob3N0L3N1Yi1j
YS5jcnQwLQYIKwYBBQUHMAGGIWh0dHA6Ly9vY3NwLnN1Yi1jYS5sb2NhbGhvc3Q6
OTA4MTAfBgNVHSMEGDAWgBQgTvCzHr+8HzVqxXCOoNhw1dFXRDAMBgNVHRMBAf8E
AjAAMDMGA1UdHwQsMCowKKAmoCSGImh0dHA6Ly9zdWItY2EubG9jYWxob3N0L3N1
Yi1jYS5jcmwwEwYDVR0lBAwwCgYIKwYBBQUHAwIwDgYDVR0PAQH/BAQDAgeAMB0G
A1UdDgQWBBTM+t+CU+0u1nzl30bDAuBizf24JzANBgkqhkiG9w0BAQsFAAOCAQEA
IHW5LJoZ7rdl0vHmmuq7Q5+qDi9Tb6c8Gd+l9xqoZ3DEB/aHU/YC0ZsI8hMih5bA
iPH9STP05u1bDzJYVemd93nNG+WBl3q3o/q0kyyf/F9j68iZHDkvsiJ978/pxAuv
KjNOXiyp7u2mjRbRxMkWHlVzrNfI+d21+ms8LtdYhwqGmGlPMGLIp8tupaQ4Ahh8
pek24qZ9ptj9Za2TH0V4qZWgmg7gdxrfqDgD1Fs8mHsVv1GptpcWmpnH8ouB4iHA
84fvDl2forEPcLStwpr5dHMrEVHn4jwQ+soEEhaAgx/qq2dcWIrGRX4l6GYBo8FH
dOpbUMbk/HkXobOwSyytgQ==
-----END CERTIFICATE-----
