Certificate:
    Data:
        Version: 3 (0x2)
        Serial Number:
            90:4c:66:1b:96:18:b9:99:11:ea:e2:b7:9b:98:cf:f4
        Signature Algorithm: sha256WithRSAEncryption
        Issuer: C=US, O=Portland State University, CN=Sub CA
        Validity
            Not Before: Apr  5 20:37:24 2022 GMT
            Not After : Apr  5 20:37:24 2023 GMT
        Subject: C=US, O=Portland State University, CN=Sub CA
        Subject Public Key Info:
            Public Key Algorithm: rsaEncryption
                RSA Public-Key: (2048 bit)
                Modulus:
                    00:af:d0:f7:cf:9e:4a:c7:53:61:38:85:46:ce:83:
                    c8:76:38:c7:0a:4e:b1:07:bb:84:a8:d0:09:c8:06:
                    6c:ae:8e:49:af:31:74:e1:92:b1:cc:9d:00:a8:a9:
                    c0:c5:43:09:99:bb:73:f6:d4:e9:5a:96:1e:8a:ae:
                    5a:9c:fa:21:d9:b0:01:f2:5e:2b:d8:56:f8:f8:bd:
                    37:f0:e4:4f:a3:af:58:b4:59:5c:59:0b:cd:26:a9:
                    8b:f6:26:8f:25:d9:0d:66:d9:0f:a4:5a:c1:10:57:
                    6a:ec:bd:f3:96:86:9d:18:33:7d:16:95:54:24:33:
                    98:b5:75:ed:a6:60:2b:f4:eb:a8:22:62:b8:c9:d7:
                    f9:ba:2f:29:64:72:c3:c5:58:88:6c:26:91:b9:1f:
                    43:e7:4e:f6:9e:1c:d0:6a:2e:b8:e7:38:9c:d9:d1:
                    0a:d3:3b:ff:35:7c:ac:d1:d2:27:a1:eb:c8:57:38:
                    ed:d2:15:b5:54:e0:00:32:c9:55:fb:18:e4:2f:b8:
                    43:d6:2f:73:0a:7b:4d:50:3c:24:77:af:e8:21:2a:
                    75:f2:cc:40:bc:ce:b7:26:67:ef:68:b2:c1:d1:08:
                    bc:8c:64:34:2a:8b:36:ef:22:d2:34:45:1e:91:4b:
                    b0:9f:5c:95:78:e8:a9:5f:ea:1d:5a:6b:15:b7:82:
                    40:b9
                Exponent: 65537 (0x10001)
        X509v3 extensions:
            Authority Information Access: 
                CA Issuers - URI:http://sub-ca.localhost/sub-ca.crt
                OCSP - URI:http://ocsp.sub-ca.localhost:9081

            X509v3 Authority Key Identifier: 
                keyid:20:4E:F0:B3:1E:BF:BC:1F:35:6A:C5:70:8E:A0:D8:70:D5:D1:57:44

            X509v3 Basic Constraints: critical
                CA:FALSE
            X509v3 CRL Distribution Points: 

                Full Name:
                  URI:http://sub-ca.localhost/sub-ca.crl

            X509v3 Extended Key Usage: 
                TLS Web Client Authentication
            X509v3 Key Usage: critical
                Digital Signature
            X509v3 Subject Key Identifier: 
                6C:8E:37:86:C3:10:2A:10:27:F5:6D:11:75:A6:D7:6E:A8:9D:A8:2D
    Signature Algorithm: sha256WithRSAEncryption
         4b:7c:74:b5:39:e1:e3:b6:5b:d2:88:04:27:f8:e4:6b:b6:6f:
         d9:61:d2:a9:d3:3c:7f:ca:9f:ba:65:92:55:83:d6:2c:71:b5:
         79:84:ff:2f:34:aa:5a:ed:9f:2a:9f:fb:0c:4b:6f:48:59:62:
         11:52:03:4f:f3:34:dc:7b:11:af:31:69:d9:25:55:2e:d8:6f:
         6e:ba:a5:08:b0:74:7c:68:78:25:aa:79:c2:84:c0:2d:76:b1:
         80:9b:f3:f1:ac:50:dd:e0:10:35:bb:7c:11:d6:99:d0:2b:4c:
         e1:ae:62:2d:c8:d0:45:65:4e:2b:a5:74:2d:60:4a:17:73:42:
         81:7c:37:9c:35:2c:cd:47:6a:bc:df:1d:48:aa:ca:2a:28:b9:
         89:22:f4:c6:44:72:96:6d:79:ff:5b:d8:21:19:31:4c:ac:bb:
         76:82:02:3d:cc:9d:f9:1b:fc:99:b5:e4:75:b2:41:0e:41:ad:
         5c:37:62:ef:f7:e9:c3:1d:90:c3:e0:e5:40:9f:4f:78:de:f6:
         0f:da:47:0a:22:cf:e3:04:0e:de:20:63:05:c1:20:66:4a:3e:
         f4:95:ed:e0:9a:3a:69:82:91:da:27:3c:70:be:36:c5:38:9d:
         6c:ba:4f:1d:e2:2c:45:9b:45:47:11:c0:7d:4a:39:a4:e5:9b:
         0c:34:46:64
-----BEGIN CERTIFICATE-----
MIIELDCCAxSgAwIBAgIRAJBMZhuWGLmZEerit5uYz/QwDQYJKoZIhvcNAQELBQAw
QjELMAkGA1UEBhMCVVMxIjAgBgNVBAoMGVBvcnRsYW5kIFN0YXRlIFVuaXZlcnNp
dHkxDzANBgNVBAMMBlN1YiBDQTAeFw0yMjA0MDUyMDM3MjRaFw0yMzA0MDUyMDM3
MjRaMEIxCzAJBgNVBAYTAlVTMSIwIAYDVQQKDBlQb3J0bGFuZCBTdGF0ZSBVbml2
ZXJzaXR5MQ8wDQYDVQQDDAZTdWIgQ0EwggEiMA0GCSqGSIb3DQEBAQUAA4IBDwAw
ggEKAoIBAQCv0PfPnkrHU2E4hUbOg8h2OMcKTrEHu4So0AnIBmyujkmvMXThkrHM
nQCoqcDFQwmZu3P21Olalh6Krlqc+iHZsAHyXivYVvj4vTfw5E+jr1i0WVxZC80m
qYv2Jo8l2Q1m2Q+kWsEQV2rsvfOWhp0YM30WlVQkM5i1de2mYCv066giYrjJ1/m6
LylkcsPFWIhsJpG5H0PnTvaeHNBqLrjnOJzZ0QrTO/81fKzR0ieh68hXOO3SFbVU
4AAyyVX7GOQvuEPWL3MKe01QPCR3r+ghKnXyzEC8zrcmZ+9ossHRCLyMZDQqizbv
ItI0RR6RS7CfXJV46Klf6h1aaxW3gkC5AgMBAAGjggEbMIIBFzBtBggrBgEFBQcB
AQRhMF8wLgYIKwYBBQUHMAKGImh0dHA6Ly9zdWItY2EubG9jYWxob3N0L3N1Yi1j
YS5jcnQwLQYIKwYBBQUHMAGGIWh0dHA6Ly9vY3NwLnN1Yi1jYS5sb2NhbGhvc3Q6
OTA4MTAfBgNVHSMEGDAWgBQgTvCzHr+8HzVqxXCOoNhw1dFXRDAMBgNVHRMBAf8E
AjAAMDMGA1UdHwQsMCowKKAmoCSGImh0dHA6Ly9zdWItY2EubG9jYWxob3N0L3N1
Yi1jYS5jcmwwEwYDVR0lBAwwCgYIKwYBBQUHAwIwDgYDVR0PAQH/BAQDAgeAMB0G
A1UdDgQWBBRsjjeGwxAqECf1bRF1ptduqJ2oLTANBgkqhkiG9w0BAQsFAAOCAQEA
S3x0tTnh47Zb0ogEJ/jka7Zv2WHSqdM8f8qfumWSVYPWLHG1eYT/LzSqWu2fKp/7
DEtvSFliEVIDT/M03HsRrzFp2SVVLthvbrqlCLB0fGh4Jap5woTALXaxgJvz8axQ
3eAQNbt8EdaZ0CtM4a5iLcjQRWVOK6V0LWBKF3NCgXw3nDUszUdqvN8dSKrKKii5
iSL0xkRylm15/1vYIRkxTKy7doICPcyd+Rv8mbXkdbJBDkGtXDdi7/fpwx2Qw+Dl
QJ9PeN72D9pHCiLP4wQO3iBjBcEgZko+9JXt4Jo6aYKR2ic8cL42xTidbLpPHeIs
RZtFRxHAfUo5pOWbDDRGZA==
-----END CERTIFICATE-----
