Certificate:
    Data:
        Version: 3 (0x2)
        Serial Number:
            c8:b0:ee:f0:24:01:d7:8a:1d:14:40:3b:90:ff:47:3c
        Signature Algorithm: sha256WithRSAEncryption
        Issuer: C=US, O=Portland State University, CN=Sub CA
        Validity
            Not Before: Jun 19 16:06:17 2023 GMT
            Not After : Jun 16 16:06:17 2033 GMT
        Subject: C=US, O=Portland State University, CN=Sub CA
        Subject Public Key Info:
            Public Key Algorithm: rsaEncryption
                Public-Key: (2048 bit)
                Modulus:
                    00:d3:87:63:6f:d4:79:62:97:e1:bb:70:37:de:0e:
                    5d:35:8d:34:d4:22:d4:ac:3c:1c:0e:d5:53:d8:aa:
                    f6:00:e2:db:00:82:90:2d:c0:ec:cb:64:5e:5a:de:
                    b1:f1:4d:71:ea:e8:4b:26:8a:c4:7e:a9:bc:3b:dc:
                    e7:81:f2:f7:43:7e:ca:18:c8:cc:86:fe:23:d3:b3:
                    fc:b3:79:e7:93:2b:61:d8:96:bd:a8:a5:68:24:db:
                    43:39:a3:91:33:39:7d:f2:e7:3a:b9:8e:c6:05:3c:
                    7c:36:1c:75:33:15:88:a1:c6:28:07:9b:17:08:7e:
                    55:be:d7:7c:fa:e3:fb:2a:79:4b:6e:b7:9c:5b:fa:
                    cc:49:5e:49:26:26:f4:13:2b:be:3b:0d:07:e4:ea:
                    bf:e6:74:7b:1e:c9:0b:b8:34:fe:01:7e:fc:1e:c1:
                    7e:91:ef:2d:69:46:d6:8d:16:6a:fe:3e:5c:36:e2:
                    a8:68:23:81:4f:01:7c:fb:5b:d7:c9:19:08:c8:0a:
                    bc:09:9d:33:a4:64:5f:c6:61:a1:b3:82:a4:ef:13:
                    a2:2c:1e:dd:8e:b4:d3:82:dd:ea:2e:fc:d0:51:94:
                    4e:f2:46:cd:08:6c:68:2f:56:ac:e6:5c:de:e0:c7:
                    3d:30:44:b5:28:38:ec:6d:1a:03:3e:4e:14:37:45:
                    30:69
                Exponent: 65537 (0x10001)
        X509v3 extensions:
            Authority Information Access: 
                CA Issuers - URI:http://sub-ca.localhost/sub-ca.crt
                OCSP - URI:http://ocsp.sub-ca.localhost:9081
            X509v3 Authority Key Identifier: 
                4D:A1:8D:85:C1:C1:ED:E8:9A:39:B5:05:2D:3B:72:88:8F:77:D0:82
            X509v3 Basic Constraints: critical
                CA:FALSE
            X509v3 CRL Distribution Points: 
                Full Name:
                  URI:http://sub-ca.localhost/sub-ca.crl
            X509v3 Extended Key Usage: 
                TLS Web Client Authentication
            X509v3 Key Usage: critical
                Digital Signature
            X509v3 Subject Key Identifier: 
                30:DF:23:EE:F7:B3:7C:39:AB:7D:AB:78:7A:8D:E1:19:A5:29:13:68
    Signature Algorithm: sha256WithRSAEncryption
    Signature Value:
        69:7b:16:99:97:c8:b4:2e:26:24:09:2e:5f:f1:50:19:0c:b8:
        e7:d7:79:c1:81:dc:dd:1a:0b:3c:b5:51:1f:6f:69:d4:f1:a0:
        5c:dd:cf:5a:fa:7d:ba:e4:9e:01:44:5c:01:1d:d1:a3:9e:d8:
        97:1a:d0:8c:e7:80:98:1d:ac:b9:0b:5b:34:45:cc:ca:f3:c9:
        61:b4:63:a6:6c:c2:95:b3:dc:11:bb:28:76:c6:ff:0e:67:81:
        83:dc:c3:a8:ac:db:40:08:71:53:14:14:b2:4c:39:09:ed:53:
        e8:8b:cd:20:70:52:e7:28:37:e7:c2:ff:96:52:24:34:87:be:
        79:4f:f7:5d:7a:c4:c8:e8:a9:e1:3a:c3:b9:49:7c:f2:98:20:
        11:a6:91:58:65:b3:70:51:f8:5f:47:66:e4:be:b2:94:98:dc:
        f1:7a:1d:e6:79:78:26:e0:41:22:e8:d3:ce:17:1c:8c:25:c0:
        7f:6c:3f:5d:97:ae:49:37:d3:0a:af:dd:f5:8e:4e:e7:45:d6:
        93:02:c4:f3:c8:bb:74:ee:e9:06:3b:0b:43:d2:df:11:6f:b5:
        e1:85:e1:80:02:0c:27:56:18:03:b4:29:8d:1e:05:2a:83:fc:
        9c:ce:30:3c:63:87:dc:e8:b3:62:65:0c:6e:23:74:b4:e7:63:
        05:a0:ba:f1
-----BEGIN CERTIFICATE-----
MIIELDCCAxSgAwIBAgIRAMiw7vAkAdeKHRRAO5D/RzwwDQYJKoZIhvcNAQELBQAw
QjELMAkGA1UEBhMCVVMxIjAgBgNVBAoMGVBvcnRsYW5kIFN0YXRlIFVuaXZlcnNp
dHkxDzANBgNVBAMMBlN1YiBDQTAeFw0yMzA2MTkxNjA2MTdaFw0zMzA2MTYxNjA2
MTdaMEIxCzAJBgNVBAYTAlVTMSIwIAYDVQQKDBlQb3J0bGFuZCBTdGF0ZSBVbml2
ZXJzaXR5MQ8wDQYDVQQDDAZTdWIgQ0EwggEiMA0GCSqGSIb3DQEBAQUAA4IBDwAw
ggEKAoIBAQDTh2Nv1Hlil+G7cDfeDl01jTTUItSsPBwO1VPYqvYA4tsAgpAtwOzL
ZF5a3rHxTXHq6EsmisR+qbw73OeB8vdDfsoYyMyG/iPTs/yzeeeTK2HYlr2opWgk
20M5o5EzOX3y5zq5jsYFPHw2HHUzFYihxigHmxcIflW+13z64/sqeUtut5xb+sxJ
XkkmJvQTK747DQfk6r/mdHseyQu4NP4BfvwewX6R7y1pRtaNFmr+Plw24qhoI4FP
AXz7W9fJGQjICrwJnTOkZF/GYaGzgqTvE6IsHt2OtNOC3eou/NBRlE7yRs0IbGgv
VqzmXN7gxz0wRLUoOOxtGgM+ThQ3RTBpAgMBAAGjggEbMIIBFzBtBggrBgEFBQcB
AQRhMF8wLgYIKwYBBQUHMAKGImh0dHA6Ly9zdWItY2EubG9jYWxob3N0L3N1Yi1j
YS5jcnQwLQYIKwYBBQUHMAGGIWh0dHA6Ly9vY3NwLnN1Yi1jYS5sb2NhbGhvc3Q6
OTA4MTAfBgNVHSMEGDAWgBRNoY2FwcHt6Jo5tQUtO3KIj3fQgjAMBgNVHRMBAf8E
AjAAMDMGA1UdHwQsMCowKKAmoCSGImh0dHA6Ly9zdWItY2EubG9jYWxob3N0L3N1
Yi1jYS5jcmwwEwYDVR0lBAwwCgYIKwYBBQUHAwIwDgYDVR0PAQH/BAQDAgeAMB0G
A1UdDgQWBBQw3yPu97N8Oat9q3h6jeEZpSkTaDANBgkqhkiG9w0BAQsFAAOCAQEA
aXsWmZfItC4mJAkuX/FQGQy459d5wYHc3RoLPLVRH29p1PGgXN3PWvp9uuSeAURc
AR3Ro57YlxrQjOeAmB2suQtbNEXMyvPJYbRjpmzClbPcEbsodsb/DmeBg9zDqKzb
QAhxUxQUskw5Ce1T6IvNIHBS5yg358L/llIkNIe+eU/3XXrEyOip4TrDuUl88pgg
EaaRWGWzcFH4X0dm5L6ylJjc8Xod5nl4JuBBIujTzhccjCXAf2w/XZeuSTfTCq/d
9Y5O50XWkwLE88i7dO7pBjsLQ9LfEW+14YXhgAIMJ1YYA7QpjR4FKoP8nM4wPGOH
3OizYmUMbiN0tOdjBaC68Q==
-----END CERTIFICATE-----
