Certificate:
    Data:
        Version: 3 (0x2)
        Serial Number:
            c8:b0:ee:f0:24:01:d7:8a:1d:14:40:3b:90:ff:47:0a
        Signature Algorithm: sha256WithRSAEncryption
        Issuer: C=US, O=Portland State University, CN=Sub CA
        Validity
            Not Before: Jun 19 16:06:09 2023 GMT
            Not After : Jun 16 16:06:09 2033 GMT
        Subject: C=US, O=Portland State University, CN=Sub CA
        Subject Public Key Info:
            Public Key Algorithm: rsaEncryption
                Public-Key: (2048 bit)
                Modulus:
                    00:b9:b8:59:e1:6c:2d:bd:73:58:6f:d2:51:a8:d0:
                    47:ac:d5:a7:5a:52:e7:66:4c:ee:cb:26:4c:6e:bf:
                    be:42:ab:95:73:4d:0b:be:66:de:fa:83:a7:ad:e1:
                    76:3d:74:05:52:95:cb:34:e8:57:29:24:2b:19:dc:
                    9a:83:59:fc:a5:6b:db:4a:c9:0e:84:d8:a1:a1:87:
                    f4:1d:b2:db:a4:d9:6c:95:df:fb:67:f8:85:bc:71:
                    fc:4e:43:17:d8:f1:98:86:b9:18:91:4b:d5:04:29:
                    cf:bd:b4:cd:86:bc:07:12:28:c3:d4:5d:fc:0c:04:
                    2c:39:44:e0:95:79:2b:97:0b:4a:35:f2:4e:10:41:
                    c0:e9:ab:5d:73:1a:48:92:f3:02:d6:c5:70:e0:95:
                    5a:6c:66:d7:5d:f2:27:91:b1:a7:35:27:1d:9d:53:
                    5f:3a:ea:7b:f8:a6:4e:50:69:aa:46:20:08:6f:d8:
                    9d:29:c8:f0:73:5b:15:d2:ab:2f:dc:fb:95:32:fd:
                    44:0a:28:53:fc:29:3a:e6:66:52:2c:df:50:26:8f:
                    56:31:2b:03:3c:4c:53:a9:c4:87:87:14:32:fe:9b:
                    b7:e2:12:c2:9d:ec:cc:81:4f:19:12:3f:2c:47:05:
                    1a:a1:ea:ac:1b:ef:83:11:7d:32:bd:7a:d6:4b:7d:
                    55:bf
                Exponent: 65537 (0x10001)
        X509v3 extensions:
            Authority Information Access: 
                CA Issuers - URI:http://sub-ca.localhost/sub-ca.crt
                OCSP - URI:http://ocsp.sub-ca.localhost:9081
            X509v3 Authority Key Identifier: 
                4D:A1:8D:85:C1:C1:ED:E8:9A:39:B5:05:2D:3B:72:88:8F:77:D0:82
            X509v3 Basic Constraints: critical
                CA:FALSE
            X509v3 CRL Distribution Points: 
                Full Name:
                  URI:http://sub-ca.localhost/sub-ca.crl
            X509v3 Extended Key Usage: 
                TLS Web Client Authentication
            X509v3 Key Usage: critical
                Digital Signature
            X509v3 Subject Key Identifier: 
                26:F7:32:EE:D8:95:5B:0A:9D:C5:38:65:D4:E3:C5:7B:9C:95:6C:86
    Signature Algorithm: sha256WithRSAEncryption
    Signature Value:
        8d:b5:84:2f:ad:d8:15:84:07:64:4b:59:0a:ca:56:b9:f3:2a:
        a1:05:b3:26:bf:63:95:da:23:16:fb:c6:0f:c3:e3:56:a6:96:
        12:81:f2:e3:03:b1:91:34:3b:e4:06:db:87:86:63:48:23:82:
        6b:a8:25:51:14:32:c4:c8:51:ae:3e:69:72:e2:80:3f:c9:80:
        d6:e2:c7:7c:12:d6:2f:5f:07:bc:34:25:dc:30:c1:81:ee:f6:
        36:47:87:71:08:a5:40:3e:79:36:4d:8d:2a:c1:26:a0:c6:c0:
        3a:13:23:f6:6c:81:11:63:14:7f:17:ef:c6:21:8c:41:5f:99:
        3e:cc:5b:68:1c:78:38:77:e9:cb:0b:ec:05:5a:2f:9a:62:da:
        e8:53:fd:a0:fb:a0:06:d1:9e:54:3a:69:bf:a9:2f:a0:34:ed:
        d4:db:ea:be:e4:d9:b4:1a:af:a8:11:f5:6b:ae:0a:57:13:64:
        ec:34:55:db:16:e7:84:f6:d1:0c:44:5a:ad:a8:d3:c5:ef:1e:
        14:50:34:e1:07:51:ae:b8:4a:a5:d6:58:92:82:81:d4:56:f4:
        98:e2:ad:85:49:db:a3:0b:79:db:ba:7a:1f:f1:78:b5:c2:8b:
        8a:22:5d:1f:b5:07:0d:1a:0e:8c:b3:05:44:99:af:c3:f5:f1:
        ce:d3:0a:12
-----BEGIN CERTIFICATE-----
MIIELDCCAxSgAwIBAgIRAMiw7vAkAdeKHRRAO5D/RwowDQYJKoZIhvcNAQELBQAw
QjELMAkGA1UEBhMCVVMxIjAgBgNVBAoMGVBvcnRsYW5kIFN0YXRlIFVuaXZlcnNp
dHkxDzANBgNVBAMMBlN1YiBDQTAeFw0yMzA2MTkxNjA2MDlaFw0zMzA2MTYxNjA2
MDlaMEIxCzAJBgNVBAYTAlVTMSIwIAYDVQQKDBlQb3J0bGFuZCBTdGF0ZSBVbml2
ZXJzaXR5MQ8wDQYDVQQDDAZTdWIgQ0EwggEiMA0GCSqGSIb3DQEBAQUAA4IBDwAw
ggEKAoIBAQC5uFnhbC29c1hv0lGo0Ees1adaUudmTO7LJkxuv75Cq5VzTQu+Zt76
g6et4XY9dAVSlcs06FcpJCsZ3JqDWfyla9tKyQ6E2KGhh/Qdstuk2WyV3/tn+IW8
cfxOQxfY8ZiGuRiRS9UEKc+9tM2GvAcSKMPUXfwMBCw5ROCVeSuXC0o18k4QQcDp
q11zGkiS8wLWxXDglVpsZtdd8ieRsac1Jx2dU1866nv4pk5QaapGIAhv2J0pyPBz
WxXSqy/c+5Uy/UQKKFP8KTrmZlIs31Amj1YxKwM8TFOpxIeHFDL+m7fiEsKd7MyB
TxkSPyxHBRqh6qwb74MRfTK9etZLfVW/AgMBAAGjggEbMIIBFzBtBggrBgEFBQcB
AQRhMF8wLgYIKwYBBQUHMAKGImh0dHA6Ly9zdWItY2EubG9jYWxob3N0L3N1Yi1j
YS5jcnQwLQYIKwYBBQUHMAGGIWh0dHA6Ly9vY3NwLnN1Yi1jYS5sb2NhbGhvc3Q6
OTA4MTAfBgNVHSMEGDAWgBRNoY2FwcHt6Jo5tQUtO3KIj3fQgjAMBgNVHRMBAf8E
AjAAMDMGA1UdHwQsMCowKKAmoCSGImh0dHA6Ly9zdWItY2EubG9jYWxob3N0L3N1
Yi1jYS5jcmwwEwYDVR0lBAwwCgYIKwYBBQUHAwIwDgYDVR0PAQH/BAQDAgeAMB0G
A1UdDgQWBBQm9zLu2JVbCp3FOGXU48V7nJVshjANBgkqhkiG9w0BAQsFAAOCAQEA
jbWEL63YFYQHZEtZCspWufMqoQWzJr9jldojFvvGD8PjVqaWEoHy4wOxkTQ75Abb
h4ZjSCOCa6glURQyxMhRrj5pcuKAP8mA1uLHfBLWL18HvDQl3DDBge72NkeHcQil
QD55Nk2NKsEmoMbAOhMj9myBEWMUfxfvxiGMQV+ZPsxbaBx4OHfpywvsBVovmmLa
6FP9oPugBtGeVDppv6kvoDTt1NvqvuTZtBqvqBH1a64KVxNk7DRV2xbnhPbRDERa
rajTxe8eFFA04QdRrrhKpdZYkoKB1Fb0mOKthUnbowt527p6H/F4tcKLiiJdH7UH
DRoOjLMFRJmvw/XxztMKEg==
-----END CERTIFICATE-----
