Certificate:
    Data:
        Version: 3 (0x2)
        Serial Number:
            90:4c:66:1b:96:18:b9:99:11:ea:e2:b7:9b:98:d0:1e
        Signature Algorithm: sha256WithRSAEncryption
        Issuer: C=US, O=Portland State University, CN=Sub CA
        Validity
            Not Before: Apr  5 20:37:28 2022 GMT
            Not After : Apr  5 20:37:28 2023 GMT
        Subject: C=US, O=Portland State University, CN=Sub CA
        Subject Public Key Info:
            Public Key Algorithm: rsaEncryption
                RSA Public-Key: (2048 bit)
                Modulus:
                    00:d2:86:13:67:f7:93:53:ee:55:08:62:3c:38:ba:
                    7f:28:6a:3a:08:db:08:de:9e:b6:e2:dd:f8:f2:e7:
                    31:5a:19:35:96:1f:54:6c:50:fd:94:50:01:e1:f2:
                    70:b1:c7:a3:62:32:1a:6c:7f:89:60:b3:26:be:4b:
                    80:ed:a4:94:ab:8f:4a:c5:2e:8d:3d:0c:79:82:48:
                    c8:f4:fd:18:40:2b:df:b0:15:18:13:86:14:05:b7:
                    e9:6b:9e:e1:98:64:7e:20:74:91:09:fb:14:78:a0:
                    dc:89:d6:3b:db:fd:b4:5f:2b:95:f7:43:ed:ce:f7:
                    ae:73:23:a9:53:f0:56:d5:9f:04:74:69:8c:42:38:
                    ba:9a:76:ca:6c:99:d6:7c:e8:e4:3a:fe:5a:c6:80:
                    38:3d:b0:2a:ca:1b:08:7b:8e:cf:fc:d4:14:78:b0:
                    c2:53:e5:05:55:6d:58:a5:8d:41:fb:e0:a0:d9:3c:
                    ae:15:6f:4b:99:29:bd:a5:01:6f:3d:eb:39:4f:e2:
                    fd:b4:89:eb:f6:28:9e:53:28:95:5e:64:63:38:a2:
                    d3:71:8e:58:d6:7b:c9:63:4b:04:10:96:0a:1c:92:
                    50:6f:d8:3f:78:92:7f:33:6b:ed:cb:1b:b5:28:9c:
                    0a:98:0d:57:77:38:4a:ce:46:f8:6f:53:55:f7:68:
                    c2:65
                Exponent: 65537 (0x10001)
        X509v3 extensions:
            Authority Information Access: 
                CA Issuers - URI:http://sub-ca.localhost/sub-ca.crt
                OCSP - URI:http://ocsp.sub-ca.localhost:9081

            X509v3 Authority Key Identifier: 
                keyid:20:4E:F0:B3:1E:BF:BC:1F:35:6A:C5:70:8E:A0:D8:70:D5:D1:57:44

            X509v3 Basic Constraints: critical
                CA:FALSE
            X509v3 CRL Distribution Points: 

                Full Name:
                  URI:http://sub-ca.localhost/sub-ca.crl

            X509v3 Extended Key Usage: 
                TLS Web Client Authentication
            X509v3 Key Usage: critical
                Digital Signature
            X509v3 Subject Key Identifier: 
                D7:18:C2:1F:C8:DD:31:DF:66:94:87:5A:52:02:D7:0C:06:D2:70:63
    Signature Algorithm: sha256WithRSAEncryption
         8e:5c:ac:fc:01:3c:0b:8f:4c:ab:3c:ee:ab:f5:31:22:33:71:
         53:13:c4:50:4d:e8:c1:4d:0d:3a:2c:06:10:37:e5:63:d3:70:
         74:29:1e:97:9b:1c:90:66:52:29:c6:74:84:66:09:d2:37:e1:
         be:2a:44:13:56:2c:db:de:2b:9d:0d:4b:10:42:0c:82:58:df:
         da:5b:54:a5:f9:6b:db:cd:ee:f6:53:82:82:c7:54:83:fe:f0:
         09:27:b0:78:51:21:7f:99:03:9f:1c:4e:72:7f:75:26:b9:89:
         1d:60:ac:be:cc:74:0f:b2:b4:78:e9:8a:a9:08:94:dd:90:1c:
         86:d0:e1:0e:c2:9f:11:ea:ad:4b:e3:6b:40:df:86:cc:c9:33:
         ab:fc:1e:36:2f:20:4e:0d:b6:93:46:52:a2:da:9d:e6:d5:9f:
         2a:fc:26:32:db:d3:91:26:81:e4:0b:9f:c1:df:e1:07:5c:3f:
         a7:0d:41:d8:79:53:0b:20:67:4a:d5:e0:3a:dd:03:4e:ce:3d:
         87:3c:ff:89:7f:35:61:e7:34:73:be:90:0a:80:ac:de:a3:ea:
         40:32:99:63:bf:a3:9c:aa:b4:da:02:b9:18:78:09:a6:89:2c:
         9d:1f:57:97:34:01:c2:2e:29:4b:11:82:a5:6d:e7:6d:ba:01:
         09:f2:cd:6f
-----BEGIN CERTIFICATE-----
MIIELDCCAxSgAwIBAgIRAJBMZhuWGLmZEerit5uY0B4wDQYJKoZIhvcNAQELBQAw
QjELMAkGA1UEBhMCVVMxIjAgBgNVBAoMGVBvcnRsYW5kIFN0YXRlIFVuaXZlcnNp
dHkxDzANBgNVBAMMBlN1YiBDQTAeFw0yMjA0MDUyMDM3MjhaFw0yMzA0MDUyMDM3
MjhaMEIxCzAJBgNVBAYTAlVTMSIwIAYDVQQKDBlQb3J0bGFuZCBTdGF0ZSBVbml2
ZXJzaXR5MQ8wDQYDVQQDDAZTdWIgQ0EwggEiMA0GCSqGSIb3DQEBAQUAA4IBDwAw
ggEKAoIBAQDShhNn95NT7lUIYjw4un8oajoI2wjenrbi3fjy5zFaGTWWH1RsUP2U
UAHh8nCxx6NiMhpsf4lgsya+S4DtpJSrj0rFLo09DHmCSMj0/RhAK9+wFRgThhQF
t+lrnuGYZH4gdJEJ+xR4oNyJ1jvb/bRfK5X3Q+3O965zI6lT8FbVnwR0aYxCOLqa
dspsmdZ86OQ6/lrGgDg9sCrKGwh7js/81BR4sMJT5QVVbViljUH74KDZPK4Vb0uZ
Kb2lAW896zlP4v20iev2KJ5TKJVeZGM4otNxjljWe8ljSwQQlgocklBv2D94kn8z
a+3LG7UonAqYDVd3OErORvhvU1X3aMJlAgMBAAGjggEbMIIBFzBtBggrBgEFBQcB
AQRhMF8wLgYIKwYBBQUHMAKGImh0dHA6Ly9zdWItY2EubG9jYWxob3N0L3N1Yi1j
YS5jcnQwLQYIKwYBBQUHMAGGIWh0dHA6Ly9vY3NwLnN1Yi1jYS5sb2NhbGhvc3Q6
OTA4MTAfBgNVHSMEGDAWgBQgTvCzHr+8HzVqxXCOoNhw1dFXRDAMBgNVHRMBAf8E
AjAAMDMGA1UdHwQsMCowKKAmoCSGImh0dHA6Ly9zdWItY2EubG9jYWxob3N0L3N1
Yi1jYS5jcmwwEwYDVR0lBAwwCgYIKwYBBQUHAwIwDgYDVR0PAQH/BAQDAgeAMB0G
A1UdDgQWBBTXGMIfyN0x32aUh1pSAtcMBtJwYzANBgkqhkiG9w0BAQsFAAOCAQEA
jlys/AE8C49Mqzzuq/UxIjNxUxPEUE3owU0NOiwGEDflY9NwdCkel5sckGZSKcZ0
hGYJ0jfhvipEE1Ys294rnQ1LEEIMgljf2ltUpflr283u9lOCgsdUg/7wCSeweFEh
f5kDnxxOcn91JrmJHWCsvsx0D7K0eOmKqQiU3ZAchtDhDsKfEeqtS+NrQN+GzMkz
q/weNi8gTg22k0ZSotqd5tWfKvwmMtvTkSaB5Aufwd/hB1w/pw1B2HlTCyBnStXg
Ot0DTs49hzz/iX81Yec0c76QCoCs3qPqQDKZY7+jnKq02gK5GHgJpoksnR9XlzQB
wi4pSxGCpW3nbboBCfLNbw==
-----END CERTIFICATE-----
