Certificate:
    Data:
        Version: 3 (0x2)
        Serial Number:
            90:4c:66:1b:96:18:b9:99:11:ea:e2:b7:9b:98:cf:fe
        Signature Algorithm: sha256WithRSAEncryption
        Issuer: C=US, O=Portland State University, CN=Sub CA
        Validity
            Not Before: Apr  5 20:37:25 2022 GMT
            Not After : Apr  5 20:37:25 2023 GMT
        Subject: C=US, O=Portland State University, CN=Sub CA
        Subject Public Key Info:
            Public Key Algorithm: rsaEncryption
                RSA Public-Key: (2048 bit)
                Modulus:
                    00:f0:e3:a9:97:b4:17:f3:7c:21:a3:0e:27:18:e6:
                    7b:31:20:16:fa:70:78:e5:92:64:e4:d6:c7:fd:a9:
                    9f:45:f1:d6:f5:d5:23:b3:23:2b:9a:55:f8:ec:aa:
                    c7:2b:f9:0d:be:e6:a1:d4:c7:d8:0b:5b:bd:b5:75:
                    1d:3c:05:69:c6:e9:b0:23:5e:4a:2d:84:ce:95:f9:
                    b2:b6:6f:51:9c:d6:7a:24:68:09:d0:20:46:f8:99:
                    88:a3:46:8b:20:78:0b:e6:83:59:88:1d:d0:1a:41:
                    fb:a9:46:94:8c:c6:0f:48:52:84:74:62:41:13:72:
                    1e:37:d5:a2:83:f7:10:ef:4e:ee:27:3c:e0:2b:e5:
                    a5:3f:75:8f:ba:03:00:7f:39:8c:71:85:f5:f8:76:
                    8b:0d:1b:7b:be:73:7a:b9:e1:8c:05:ff:8e:80:96:
                    96:4c:1d:e0:16:91:48:61:32:4d:9e:3e:bb:e4:66:
                    1d:e8:68:65:12:a9:81:08:28:03:62:cd:38:c3:1c:
                    83:95:ff:1c:7a:c5:1a:3a:b1:34:34:d1:60:47:81:
                    92:01:a8:52:0e:ad:25:dc:7a:63:3f:59:16:0c:d5:
                    87:91:97:87:c0:89:d8:cd:fa:a2:8c:96:56:ca:a9:
                    75:a5:ac:25:f3:79:3a:1b:42:15:4a:ae:ae:0f:26:
                    f4:4f
                Exponent: 65537 (0x10001)
        X509v3 extensions:
            Authority Information Access: 
                CA Issuers - URI:http://sub-ca.localhost/sub-ca.crt
                OCSP - URI:http://ocsp.sub-ca.localhost:9081

            X509v3 Authority Key Identifier: 
                keyid:20:4E:F0:B3:1E:BF:BC:1F:35:6A:C5:70:8E:A0:D8:70:D5:D1:57:44

            X509v3 Basic Constraints: critical
                CA:FALSE
            X509v3 CRL Distribution Points: 

                Full Name:
                  URI:http://sub-ca.localhost/sub-ca.crl

            X509v3 Extended Key Usage: 
                TLS Web Client Authentication
            X509v3 Key Usage: critical
                Digital Signature
            X509v3 Subject Key Identifier: 
                3D:1C:65:68:6A:97:01:0F:7E:1D:45:9A:BD:61:CA:99:51:3D:4C:B0
    Signature Algorithm: sha256WithRSAEncryption
         8d:96:a0:67:79:3f:b7:07:09:ad:93:40:27:21:9d:7e:43:df:
         5e:e4:fd:58:b8:eb:7a:09:ba:b5:df:2a:8b:18:df:3c:ba:41:
         02:43:be:39:c2:80:2f:72:32:78:ca:ef:7d:10:a2:c1:ed:63:
         0f:72:17:24:99:db:ec:86:be:98:70:4f:90:77:ce:fd:e0:65:
         5e:73:64:46:5b:f8:67:81:5b:5d:59:e2:85:b0:63:af:f8:60:
         c6:8f:a4:5e:7f:63:0f:43:8e:6f:7d:aa:75:ca:eb:de:23:27:
         6b:78:a7:19:ea:5c:87:b7:23:1a:d2:cb:ab:68:95:fe:e2:3b:
         40:55:ea:a5:09:6c:ce:c0:eb:21:18:a5:b0:21:db:22:88:70:
         37:83:ea:42:dd:ae:f1:19:51:6f:1c:3e:ff:28:1c:17:1d:16:
         29:4a:b8:a4:3a:50:61:51:22:8e:22:92:21:ae:c6:91:27:6e:
         8d:f3:65:e1:5a:6b:16:5a:30:59:cb:27:13:cc:9d:83:18:80:
         26:a5:24:bc:77:cd:10:3f:4c:bf:6c:ad:45:a2:90:c2:ce:91:
         d1:10:14:77:3d:4d:50:63:d8:3a:70:f6:af:63:bd:eb:0a:d6:
         b0:11:59:d3:d4:93:47:c2:04:4a:d8:09:92:a5:10:d2:3a:5c:
         04:b5:3e:e2
-----BEGIN CERTIFICATE-----
MIIELDCCAxSgAwIBAgIRAJBMZhuWGLmZEerit5uYz/4wDQYJKoZIhvcNAQELBQAw
QjELMAkGA1UEBhMCVVMxIjAgBgNVBAoMGVBvcnRsYW5kIFN0YXRlIFVuaXZlcnNp
dHkxDzANBgNVBAMMBlN1YiBDQTAeFw0yMjA0MDUyMDM3MjVaFw0yMzA0MDUyMDM3
MjVaMEIxCzAJBgNVBAYTAlVTMSIwIAYDVQQKDBlQb3J0bGFuZCBTdGF0ZSBVbml2
ZXJzaXR5MQ8wDQYDVQQDDAZTdWIgQ0EwggEiMA0GCSqGSIb3DQEBAQUAA4IBDwAw
ggEKAoIBAQDw46mXtBfzfCGjDicY5nsxIBb6cHjlkmTk1sf9qZ9F8db11SOzIyua
Vfjsqscr+Q2+5qHUx9gLW721dR08BWnG6bAjXkothM6V+bK2b1Gc1nokaAnQIEb4
mYijRosgeAvmg1mIHdAaQfupRpSMxg9IUoR0YkETch431aKD9xDvTu4nPOAr5aU/
dY+6AwB/OYxxhfX4dosNG3u+c3q54YwF/46AlpZMHeAWkUhhMk2ePrvkZh3oaGUS
qYEIKANizTjDHIOV/xx6xRo6sTQ00WBHgZIBqFIOrSXcemM/WRYM1YeRl4fAidjN
+qKMllbKqXWlrCXzeTobQhVKrq4PJvRPAgMBAAGjggEbMIIBFzBtBggrBgEFBQcB
AQRhMF8wLgYIKwYBBQUHMAKGImh0dHA6Ly9zdWItY2EubG9jYWxob3N0L3N1Yi1j
YS5jcnQwLQYIKwYBBQUHMAGGIWh0dHA6Ly9vY3NwLnN1Yi1jYS5sb2NhbGhvc3Q6
OTA4MTAfBgNVHSMEGDAWgBQgTvCzHr+8HzVqxXCOoNhw1dFXRDAMBgNVHRMBAf8E
AjAAMDMGA1UdHwQsMCowKKAmoCSGImh0dHA6Ly9zdWItY2EubG9jYWxob3N0L3N1
Yi1jYS5jcmwwEwYDVR0lBAwwCgYIKwYBBQUHAwIwDgYDVR0PAQH/BAQDAgeAMB0G
A1UdDgQWBBQ9HGVoapcBD34dRZq9YcqZUT1MsDANBgkqhkiG9w0BAQsFAAOCAQEA
jZagZ3k/twcJrZNAJyGdfkPfXuT9WLjregm6td8qixjfPLpBAkO+OcKAL3IyeMrv
fRCiwe1jD3IXJJnb7Ia+mHBPkHfO/eBlXnNkRlv4Z4FbXVnihbBjr/hgxo+kXn9j
D0OOb32qdcrr3iMna3inGepch7cjGtLLq2iV/uI7QFXqpQlszsDrIRilsCHbIohw
N4PqQt2u8RlRbxw+/ygcFx0WKUq4pDpQYVEijiKSIa7GkSdujfNl4VprFlowWcsn
E8ydgxiAJqUkvHfNED9Mv2ytRaKQws6R0RAUdz1NUGPYOnD2r2O96wrWsBFZ09ST
R8IEStgJkqUQ0jpcBLU+4g==
-----END CERTIFICATE-----
