Certificate:
    Data:
        Version: 3 (0x2)
        Serial Number:
            c8:b0:ee:f0:24:01:d7:8a:1d:14:40:3b:90:ff:46:ee
        Signature Algorithm: sha256WithRSAEncryption
        Issuer: C=US, O=Portland State University, CN=Sub CA
        Validity
            Not Before: Jun 19 16:06:05 2023 GMT
            Not After : Jun 16 16:06:05 2033 GMT
        Subject: C=US, O=Portland State University, CN=Sub CA
        Subject Public Key Info:
            Public Key Algorithm: rsaEncryption
                Public-Key: (2048 bit)
                Modulus:
                    00:90:33:c7:6c:03:85:64:d4:3d:4a:7c:aa:f4:cd:
                    b5:d1:e5:19:2b:33:9c:73:33:3b:f8:47:6d:69:da:
                    98:49:43:be:56:7a:8a:e2:9d:28:4e:0c:53:c4:13:
                    bb:98:bf:e2:07:6f:21:43:29:36:30:7a:60:a0:a5:
                    90:81:42:97:07:81:e7:da:2d:90:28:a0:58:b2:33:
                    49:b0:80:6b:1c:12:67:04:05:8a:6d:52:04:1f:07:
                    32:c0:d9:9c:22:8e:a1:02:df:74:5c:e3:08:80:b9:
                    d1:95:38:04:cc:3b:ce:f0:68:47:e5:46:5d:73:53:
                    98:37:85:be:ee:c3:12:29:66:4e:a7:b2:53:be:94:
                    8c:1e:f2:3c:56:e5:fd:73:8e:d2:b9:c2:5f:c5:77:
                    a2:96:d7:38:1f:e1:71:73:f3:35:2a:8f:76:7f:5e:
                    46:2d:01:25:55:1f:ff:aa:b2:de:fb:5c:05:df:a8:
                    0e:8f:28:fa:f4:7d:db:55:c8:ef:8b:ab:11:65:35:
                    88:80:f8:5f:bf:60:74:95:da:56:e8:74:ab:05:7c:
                    b5:2b:69:e7:b7:34:59:ac:18:52:9d:68:31:84:1b:
                    09:a7:d1:57:e3:64:ce:0c:c2:d1:b6:a4:ef:17:81:
                    30:f5:a5:9e:1e:58:34:a9:25:39:57:f7:b8:41:ea:
                    80:4b
                Exponent: 65537 (0x10001)
        X509v3 extensions:
            Authority Information Access: 
                CA Issuers - URI:http://sub-ca.localhost/sub-ca.crt
                OCSP - URI:http://ocsp.sub-ca.localhost:9081
            X509v3 Authority Key Identifier: 
                4D:A1:8D:85:C1:C1:ED:E8:9A:39:B5:05:2D:3B:72:88:8F:77:D0:82
            X509v3 Basic Constraints: critical
                CA:FALSE
            X509v3 CRL Distribution Points: 
                Full Name:
                  URI:http://sub-ca.localhost/sub-ca.crl
            X509v3 Extended Key Usage: 
                TLS Web Client Authentication
            X509v3 Key Usage: critical
                Digital Signature
            X509v3 Subject Key Identifier: 
                E7:CA:63:42:B0:00:69:D1:C7:40:77:1A:2A:EB:2F:02:A3:BA:9F:75
    Signature Algorithm: sha256WithRSAEncryption
    Signature Value:
        8e:09:6e:68:e8:f1:e3:8a:83:53:08:5c:85:ce:9f:bd:43:04:
        1a:f4:b3:d1:f8:39:05:71:a7:f7:16:87:4c:1a:94:b8:55:c8:
        37:ee:6c:4e:7d:69:ac:8d:f2:de:6d:92:a5:db:13:43:07:6d:
        53:85:c5:1b:b9:71:60:8e:b9:68:e4:f4:1d:2e:09:32:bb:2e:
        f6:dd:5b:5b:ea:e3:7b:3d:b0:57:a6:71:f5:82:be:14:31:27:
        e6:f8:54:16:13:d8:bb:1a:2d:85:d4:ea:fd:e9:0f:33:88:62:
        38:e2:c6:73:9f:b9:92:01:4d:f9:82:a9:d6:54:7d:bb:67:99:
        60:44:8e:7d:ea:42:f5:d2:c1:26:b6:54:d9:dd:96:79:54:a1:
        46:fe:b1:be:d2:b4:36:2e:17:da:5f:8a:cd:09:60:6e:94:d8:
        e0:41:30:1b:e9:56:3a:b2:e5:b5:77:71:bf:df:c2:c1:56:d5:
        9b:dd:8e:f6:71:27:fa:62:b9:12:bf:17:19:56:ec:37:4e:6a:
        1c:0c:15:ea:dc:c6:58:80:4a:99:27:fd:e6:33:84:9a:ee:70:
        44:a6:7f:82:6d:cb:a8:fa:78:1e:bb:8e:4c:51:34:9a:8a:0e:
        7d:61:4a:ae:86:8f:49:50:d1:ef:e5:b8:5d:8e:b4:74:b1:54:
        16:0b:5b:a6
-----BEGIN CERTIFICATE-----
MIIELDCCAxSgAwIBAgIRAMiw7vAkAdeKHRRAO5D/Ru4wDQYJKoZIhvcNAQELBQAw
QjELMAkGA1UEBhMCVVMxIjAgBgNVBAoMGVBvcnRsYW5kIFN0YXRlIFVuaXZlcnNp
dHkxDzANBgNVBAMMBlN1YiBDQTAeFw0yMzA2MTkxNjA2MDVaFw0zMzA2MTYxNjA2
MDVaMEIxCzAJBgNVBAYTAlVTMSIwIAYDVQQKDBlQb3J0bGFuZCBTdGF0ZSBVbml2
ZXJzaXR5MQ8wDQYDVQQDDAZTdWIgQ0EwggEiMA0GCSqGSIb3DQEBAQUAA4IBDwAw
ggEKAoIBAQCQM8dsA4Vk1D1KfKr0zbXR5RkrM5xzMzv4R21p2phJQ75WeorinShO
DFPEE7uYv+IHbyFDKTYwemCgpZCBQpcHgefaLZAooFiyM0mwgGscEmcEBYptUgQf
BzLA2ZwijqEC33Rc4wiAudGVOATMO87waEflRl1zU5g3hb7uwxIpZk6nslO+lIwe
8jxW5f1zjtK5wl/Fd6KW1zgf4XFz8zUqj3Z/XkYtASVVH/+qst77XAXfqA6PKPr0
fdtVyO+LqxFlNYiA+F+/YHSV2lbodKsFfLUraee3NFmsGFKdaDGEGwmn0VfjZM4M
wtG2pO8XgTD1pZ4eWDSpJTlX97hB6oBLAgMBAAGjggEbMIIBFzBtBggrBgEFBQcB
AQRhMF8wLgYIKwYBBQUHMAKGImh0dHA6Ly9zdWItY2EubG9jYWxob3N0L3N1Yi1j
YS5jcnQwLQYIKwYBBQUHMAGGIWh0dHA6Ly9vY3NwLnN1Yi1jYS5sb2NhbGhvc3Q6
OTA4MTAfBgNVHSMEGDAWgBRNoY2FwcHt6Jo5tQUtO3KIj3fQgjAMBgNVHRMBAf8E
AjAAMDMGA1UdHwQsMCowKKAmoCSGImh0dHA6Ly9zdWItY2EubG9jYWxob3N0L3N1
Yi1jYS5jcmwwEwYDVR0lBAwwCgYIKwYBBQUHAwIwDgYDVR0PAQH/BAQDAgeAMB0G
A1UdDgQWBBTnymNCsABp0cdAdxoq6y8Co7qfdTANBgkqhkiG9w0BAQsFAAOCAQEA
jgluaOjx44qDUwhchc6fvUMEGvSz0fg5BXGn9xaHTBqUuFXIN+5sTn1prI3y3m2S
pdsTQwdtU4XFG7lxYI65aOT0HS4JMrsu9t1bW+rjez2wV6Zx9YK+FDEn5vhUFhPY
uxothdTq/ekPM4hiOOLGc5+5kgFN+YKp1lR9u2eZYESOfepC9dLBJrZU2d2WeVSh
Rv6xvtK0Ni4X2l+KzQlgbpTY4EEwG+lWOrLltXdxv9/CwVbVm92O9nEn+mK5Er8X
GVbsN05qHAwV6tzGWIBKmSf95jOEmu5wRKZ/gm3LqPp4HruOTFE0mooOfWFKroaP
SVDR7+W4XY60dLFUFgtbpg==
-----END CERTIFICATE-----
