Certificate:
    Data:
        Version: 3 (0x2)
        Serial Number:
            c8:b0:ee:f0:24:01:d7:8a:1d:14:40:3b:90:ff:46:e9
        Signature Algorithm: sha256WithRSAEncryption
        Issuer: C=US, O=Portland State University, CN=Sub CA
        Validity
            Not Before: Jun 19 16:06:04 2023 GMT
            Not After : Jun 16 16:06:04 2033 GMT
        Subject: C=US, O=Portland State University, CN=Sub CA
        Subject Public Key Info:
            Public Key Algorithm: rsaEncryption
                Public-Key: (2048 bit)
                Modulus:
                    00:98:87:7a:b8:13:c3:d5:55:11:9c:07:4a:a0:2b:
                    03:e2:27:00:6a:04:a6:9a:8a:b9:68:c6:ef:9e:bd:
                    cc:69:92:cb:56:58:1b:1b:59:db:b9:ef:29:63:c0:
                    f3:eb:97:ea:35:fb:89:10:88:3a:ec:ed:b5:20:ec:
                    0f:d7:aa:d9:66:97:19:c9:e1:af:b2:fa:c1:ca:23:
                    41:34:6e:cb:8e:01:b0:07:4c:47:06:ee:71:ea:8d:
                    05:45:d2:e2:70:c6:b5:6e:e3:d3:84:d7:27:fd:2e:
                    f2:2c:db:db:76:00:5a:26:55:cd:a2:cc:f3:05:a3:
                    31:94:c8:64:b9:7d:72:c7:c5:50:f3:24:03:a5:59:
                    ca:d2:d3:3c:39:0a:b3:5d:b5:45:de:93:70:81:78:
                    ad:84:9a:15:1a:86:20:7b:a3:0d:c7:a9:4e:c0:0d:
                    06:da:fb:3d:c4:b4:b3:a8:cb:89:61:23:21:ff:dc:
                    3d:64:18:85:ad:be:dd:68:16:78:41:25:cb:b4:99:
                    f5:b1:da:8b:c7:fd:96:c1:8d:8d:f1:d5:4b:ab:ea:
                    76:75:ac:cf:d2:bf:8a:ad:46:e3:75:ec:1c:8a:24:
                    5f:91:53:01:55:ae:fa:8b:1e:ae:86:67:ff:c7:88:
                    00:41:ff:08:22:aa:00:5f:cf:1d:1a:d6:b1:85:4c:
                    9f:2b
                Exponent: 65537 (0x10001)
        X509v3 extensions:
            Authority Information Access: 
                CA Issuers - URI:http://sub-ca.localhost/sub-ca.crt
                OCSP - URI:http://ocsp.sub-ca.localhost:9081
            X509v3 Authority Key Identifier: 
                4D:A1:8D:85:C1:C1:ED:E8:9A:39:B5:05:2D:3B:72:88:8F:77:D0:82
            X509v3 Basic Constraints: critical
                CA:FALSE
            X509v3 CRL Distribution Points: 
                Full Name:
                  URI:http://sub-ca.localhost/sub-ca.crl
            X509v3 Extended Key Usage: 
                TLS Web Client Authentication
            X509v3 Key Usage: critical
                Digital Signature
            X509v3 Subject Key Identifier: 
                B6:0D:4F:95:11:EA:14:A9:38:36:90:DC:EA:F8:18:76:56:BC:89:A1
    Signature Algorithm: sha256WithRSAEncryption
    Signature Value:
        6b:95:17:2c:d3:7d:fd:ab:04:f3:4f:56:bd:10:fc:34:7a:bc:
        f5:af:cb:0f:39:f0:dc:7f:1f:4b:8e:15:2a:bc:7a:93:a1:63:
        91:19:e3:bd:95:31:2a:50:47:db:76:ff:c1:25:9c:3b:4f:65:
        b9:90:89:16:b2:fb:41:66:76:d1:7e:64:bb:6c:6a:c5:c8:b6:
        44:f1:a5:83:ff:fe:bf:15:50:cc:f1:fb:fb:0a:a5:7c:05:61:
        34:09:31:29:4c:a3:ab:fc:0a:97:61:14:70:c4:92:93:ac:ef:
        4f:4f:76:e5:02:10:af:ee:43:7e:29:09:99:6a:12:8b:b4:71:
        5c:b7:35:3b:1d:a6:04:68:b0:e6:3b:07:24:8d:0f:9c:c1:4f:
        d8:77:5d:1a:ec:98:7b:c0:e5:e6:96:cb:45:cb:0e:91:f7:33:
        60:3a:29:ef:8a:61:99:a4:33:42:3d:d7:02:3f:ff:b0:ec:5d:
        a3:33:5a:f7:a3:55:8b:86:0f:2a:af:9a:65:a9:fd:f3:d0:ad:
        c6:c0:e1:ba:7b:63:c9:15:69:10:c5:23:f2:fa:89:bf:5c:e7:
        07:9e:dd:c6:10:1e:6b:0f:f7:b2:d4:81:17:42:41:c6:9b:55:
        22:59:59:af:3e:35:07:ef:55:3a:49:fd:f8:2a:e2:cb:59:3f:
        99:4d:59:5e
-----BEGIN CERTIFICATE-----
MIIELDCCAxSgAwIBAgIRAMiw7vAkAdeKHRRAO5D/RukwDQYJKoZIhvcNAQELBQAw
QjELMAkGA1UEBhMCVVMxIjAgBgNVBAoMGVBvcnRsYW5kIFN0YXRlIFVuaXZlcnNp
dHkxDzANBgNVBAMMBlN1YiBDQTAeFw0yMzA2MTkxNjA2MDRaFw0zMzA2MTYxNjA2
MDRaMEIxCzAJBgNVBAYTAlVTMSIwIAYDVQQKDBlQb3J0bGFuZCBTdGF0ZSBVbml2
ZXJzaXR5MQ8wDQYDVQQDDAZTdWIgQ0EwggEiMA0GCSqGSIb3DQEBAQUAA4IBDwAw
ggEKAoIBAQCYh3q4E8PVVRGcB0qgKwPiJwBqBKaairloxu+evcxpkstWWBsbWdu5
7yljwPPrl+o1+4kQiDrs7bUg7A/XqtlmlxnJ4a+y+sHKI0E0bsuOAbAHTEcG7nHq
jQVF0uJwxrVu49OE1yf9LvIs29t2AFomVc2izPMFozGUyGS5fXLHxVDzJAOlWcrS
0zw5CrNdtUXek3CBeK2EmhUahiB7ow3HqU7ADQba+z3EtLOoy4lhIyH/3D1kGIWt
vt1oFnhBJcu0mfWx2ovH/ZbBjY3x1Uur6nZ1rM/Sv4qtRuN17ByKJF+RUwFVrvqL
Hq6GZ//HiABB/wgiqgBfzx0a1rGFTJ8rAgMBAAGjggEbMIIBFzBtBggrBgEFBQcB
AQRhMF8wLgYIKwYBBQUHMAKGImh0dHA6Ly9zdWItY2EubG9jYWxob3N0L3N1Yi1j
YS5jcnQwLQYIKwYBBQUHMAGGIWh0dHA6Ly9vY3NwLnN1Yi1jYS5sb2NhbGhvc3Q6
OTA4MTAfBgNVHSMEGDAWgBRNoY2FwcHt6Jo5tQUtO3KIj3fQgjAMBgNVHRMBAf8E
AjAAMDMGA1UdHwQsMCowKKAmoCSGImh0dHA6Ly9zdWItY2EubG9jYWxob3N0L3N1
Yi1jYS5jcmwwEwYDVR0lBAwwCgYIKwYBBQUHAwIwDgYDVR0PAQH/BAQDAgeAMB0G
A1UdDgQWBBS2DU+VEeoUqTg2kNzq+Bh2VryJoTANBgkqhkiG9w0BAQsFAAOCAQEA
a5UXLNN9/asE809WvRD8NHq89a/LDznw3H8fS44VKrx6k6FjkRnjvZUxKlBH23b/
wSWcO09luZCJFrL7QWZ20X5ku2xqxci2RPGlg//+vxVQzPH7+wqlfAVhNAkxKUyj
q/wKl2EUcMSSk6zvT0925QIQr+5DfikJmWoSi7RxXLc1Ox2mBGiw5jsHJI0PnMFP
2HddGuyYe8Dl5pbLRcsOkfczYDop74phmaQzQj3XAj//sOxdozNa96NVi4YPKq+a
Zan989CtxsDhuntjyRVpEMUj8vqJv1znB57dxhAeaw/3stSBF0JBxptVIllZrz41
B+9VOkn9+Criy1k/mU1ZXg==
-----END CERTIFICATE-----
