Certificate:
    Data:
        Version: 3 (0x2)
        Serial Number:
            c8:b0:ee:f0:24:01:d7:8a:1d:14:40:3b:90:ff:47:03
        Signature Algorithm: sha256WithRSAEncryption
        Issuer: C=US, O=Portland State University, CN=Sub CA
        Validity
            Not Before: Jun 19 16:06:08 2023 GMT
            Not After : Jun 16 16:06:08 2033 GMT
        Subject: C=US, O=Portland State University, CN=Sub CA
        Subject Public Key Info:
            Public Key Algorithm: rsaEncryption
                Public-Key: (2048 bit)
                Modulus:
                    00:b9:58:93:f2:42:19:72:c7:28:1f:ab:6a:87:5a:
                    95:7f:b5:a3:0b:69:2d:ca:8b:7d:d4:7a:ae:15:9a:
                    bf:2e:96:e6:f2:ea:73:c7:3f:59:ab:44:ee:0e:62:
                    7b:5c:ba:12:ab:f3:80:da:50:f4:74:25:62:e1:f7:
                    2b:3c:58:58:78:3c:9c:c4:87:87:1e:18:b6:16:7f:
                    10:56:a0:3e:fd:3f:20:7a:0d:3e:83:13:0a:3f:2a:
                    16:6f:1f:bd:a2:d3:75:2c:8f:37:5b:63:fc:e2:3c:
                    f2:6e:26:c7:4c:93:a2:ec:d6:2e:d4:9d:23:99:c0:
                    ae:77:44:75:a8:42:bd:2b:5e:1b:78:cf:4c:ab:18:
                    93:40:a7:12:30:14:9e:54:b7:8b:a1:6f:3b:98:b7:
                    ae:ec:73:73:bf:ce:6b:e3:89:e9:05:fe:1a:19:ca:
                    62:5d:49:8e:b2:ed:ee:10:09:08:02:c0:84:2d:3a:
                    a9:b8:3f:31:ec:68:89:af:8b:ac:62:d6:64:73:21:
                    6a:b3:54:6f:19:e9:a6:fc:92:1c:73:ef:f5:81:b2:
                    3c:bb:20:39:79:6d:b5:39:65:27:89:48:70:1a:33:
                    94:f2:c5:d0:fc:87:21:4e:d8:8a:ae:05:fb:e8:f5:
                    97:2e:ea:b3:9c:6f:ab:31:53:44:bd:82:04:87:4e:
                    08:99
                Exponent: 65537 (0x10001)
        X509v3 extensions:
            Authority Information Access: 
                CA Issuers - URI:http://sub-ca.localhost/sub-ca.crt
                OCSP - URI:http://ocsp.sub-ca.localhost:9081
            X509v3 Authority Key Identifier: 
                4D:A1:8D:85:C1:C1:ED:E8:9A:39:B5:05:2D:3B:72:88:8F:77:D0:82
            X509v3 Basic Constraints: critical
                CA:FALSE
            X509v3 CRL Distribution Points: 
                Full Name:
                  URI:http://sub-ca.localhost/sub-ca.crl
            X509v3 Extended Key Usage: 
                TLS Web Client Authentication
            X509v3 Key Usage: critical
                Digital Signature
            X509v3 Subject Key Identifier: 
                8D:EF:EC:A9:BF:9A:A6:30:53:F9:D7:EF:4E:B6:A1:80:51:8F:A3:96
    Signature Algorithm: sha256WithRSAEncryption
    Signature Value:
        60:44:d1:b9:40:8a:10:4b:db:a3:e6:16:db:3d:b1:60:96:64:
        1c:6f:cd:16:2f:00:e1:28:aa:9c:0d:e6:af:72:5c:51:41:05:
        74:ff:7b:ac:89:a8:d0:74:c4:12:c5:7f:63:ec:f1:76:72:ac:
        71:67:20:e4:c7:f7:9f:90:67:c0:c8:f3:be:e3:5b:49:57:bf:
        84:eb:7d:b7:57:55:30:20:e2:fa:18:a8:66:83:bd:d7:06:b0:
        d2:b9:dd:c6:e1:2a:47:b5:03:82:c1:65:bc:a7:0e:bd:f7:6a:
        de:b8:0c:36:ca:d3:08:51:f6:e9:2e:6a:3e:7d:25:7b:a0:50:
        90:46:43:01:0c:ef:91:3d:38:cb:fb:32:f6:89:8c:b5:a2:87:
        42:29:dd:2f:6a:27:ea:32:c5:aa:59:a6:70:2d:f9:3c:0b:ec:
        8f:23:41:3b:7e:58:eb:93:2a:f6:78:f7:61:a7:22:3b:5b:d9:
        56:a0:a8:e3:25:32:a8:5b:51:8a:cb:70:c0:4c:85:4c:1e:5c:
        73:c9:d1:d4:98:79:34:a9:6f:6d:6a:a3:20:de:4c:1b:ba:32:
        0a:8e:d3:29:ef:8a:64:a4:dc:41:bd:2f:30:64:a0:64:7f:b1:
        a7:34:16:d8:12:40:c3:87:99:b4:3f:0f:89:53:33:85:1c:59:
        9c:73:46:33
-----BEGIN CERTIFICATE-----
MIIELDCCAxSgAwIBAgIRAMiw7vAkAdeKHRRAO5D/RwMwDQYJKoZIhvcNAQELBQAw
QjELMAkGA1UEBhMCVVMxIjAgBgNVBAoMGVBvcnRsYW5kIFN0YXRlIFVuaXZlcnNp
dHkxDzANBgNVBAMMBlN1YiBDQTAeFw0yMzA2MTkxNjA2MDhaFw0zMzA2MTYxNjA2
MDhaMEIxCzAJBgNVBAYTAlVTMSIwIAYDVQQKDBlQb3J0bGFuZCBTdGF0ZSBVbml2
ZXJzaXR5MQ8wDQYDVQQDDAZTdWIgQ0EwggEiMA0GCSqGSIb3DQEBAQUAA4IBDwAw
ggEKAoIBAQC5WJPyQhlyxygfq2qHWpV/taMLaS3Ki33Ueq4Vmr8uluby6nPHP1mr
RO4OYntcuhKr84DaUPR0JWLh9ys8WFh4PJzEh4ceGLYWfxBWoD79PyB6DT6DEwo/
KhZvH72i03UsjzdbY/ziPPJuJsdMk6Ls1i7UnSOZwK53RHWoQr0rXht4z0yrGJNA
pxIwFJ5Ut4uhbzuYt67sc3O/zmvjiekF/hoZymJdSY6y7e4QCQgCwIQtOqm4PzHs
aImvi6xi1mRzIWqzVG8Z6ab8khxz7/WBsjy7IDl5bbU5ZSeJSHAaM5TyxdD8hyFO
2IquBfvo9Zcu6rOcb6sxU0S9ggSHTgiZAgMBAAGjggEbMIIBFzBtBggrBgEFBQcB
AQRhMF8wLgYIKwYBBQUHMAKGImh0dHA6Ly9zdWItY2EubG9jYWxob3N0L3N1Yi1j
YS5jcnQwLQYIKwYBBQUHMAGGIWh0dHA6Ly9vY3NwLnN1Yi1jYS5sb2NhbGhvc3Q6
OTA4MTAfBgNVHSMEGDAWgBRNoY2FwcHt6Jo5tQUtO3KIj3fQgjAMBgNVHRMBAf8E
AjAAMDMGA1UdHwQsMCowKKAmoCSGImh0dHA6Ly9zdWItY2EubG9jYWxob3N0L3N1
Yi1jYS5jcmwwEwYDVR0lBAwwCgYIKwYBBQUHAwIwDgYDVR0PAQH/BAQDAgeAMB0G
A1UdDgQWBBSN7+ypv5qmMFP51+9OtqGAUY+jljANBgkqhkiG9w0BAQsFAAOCAQEA
YETRuUCKEEvbo+YW2z2xYJZkHG/NFi8A4SiqnA3mr3JcUUEFdP97rImo0HTEEsV/
Y+zxdnKscWcg5Mf3n5BnwMjzvuNbSVe/hOt9t1dVMCDi+hioZoO91waw0rndxuEq
R7UDgsFlvKcOvfdq3rgMNsrTCFH26S5qPn0le6BQkEZDAQzvkT04y/sy9omMtaKH
QindL2on6jLFqlmmcC35PAvsjyNBO35Y65Mq9nj3YaciO1vZVqCo4yUyqFtRistw
wEyFTB5cc8nR1Jh5NKlvbWqjIN5MG7oyCo7TKe+KZKTcQb0vMGSgZH+xpzQW2BJA
w4eZtD8PiVMzhRxZnHNGMw==
-----END CERTIFICATE-----
