Certificate:
    Data:
        Version: 3 (0x2)
        Serial Number:
            c8:b0:ee:f0:24:01:d7:8a:1d:14:40:3b:90:ff:47:39
        Signature Algorithm: sha256WithRSAEncryption
        Issuer: C=US, O=Portland State University, CN=Sub CA
        Validity
            Not Before: Jun 19 16:06:16 2023 GMT
            Not After : Jun 16 16:06:16 2033 GMT
        Subject: C=US, O=Portland State University, CN=Sub CA
        Subject Public Key Info:
            Public Key Algorithm: rsaEncryption
                Public-Key: (2048 bit)
                Modulus:
                    00:bf:5d:96:3c:13:1c:21:ba:44:7e:0a:ba:8b:9b:
                    f0:77:55:a5:3c:11:c1:34:55:1f:d2:11:44:e6:9d:
                    47:37:f0:41:92:a3:a0:22:5f:f1:80:a6:b1:73:e1:
                    5d:4e:fe:60:62:e8:ca:c1:3f:78:9a:00:e9:57:98:
                    80:63:c8:32:da:35:05:f3:4a:19:4d:33:60:54:7a:
                    e4:92:3f:64:fc:32:02:41:de:1e:a2:ff:fd:cf:da:
                    73:c0:e3:98:bd:86:4d:4b:6b:1f:c2:81:5d:ca:8a:
                    a6:34:33:94:81:cb:e0:a3:c4:d6:56:05:17:e9:1e:
                    1f:4f:84:d0:fb:ab:50:45:0f:be:b3:a2:6e:1e:b1:
                    5d:31:03:1e:65:51:33:77:27:2f:fe:b4:8e:a2:88:
                    87:c9:bb:64:ea:20:33:73:cf:87:df:23:e1:9c:66:
                    51:7a:2e:20:c0:01:ab:6e:5e:e0:15:38:19:18:ae:
                    4a:fc:a0:84:88:7a:7e:26:7c:3e:02:5b:ac:0e:63:
                    fc:a0:ed:31:22:63:23:79:84:ce:46:89:33:aa:88:
                    8e:f8:df:c0:9e:f4:08:d9:55:a3:e4:a0:6d:f8:2f:
                    10:ae:1b:a1:03:1f:03:2f:00:80:4c:f0:01:b7:ae:
                    10:0f:1c:5d:51:ee:03:61:b8:1b:9b:cd:60:26:42:
                    c4:23
                Exponent: 65537 (0x10001)
        X509v3 extensions:
            Authority Information Access: 
                CA Issuers - URI:http://sub-ca.localhost/sub-ca.crt
                OCSP - URI:http://ocsp.sub-ca.localhost:9081
            X509v3 Authority Key Identifier: 
                4D:A1:8D:85:C1:C1:ED:E8:9A:39:B5:05:2D:3B:72:88:8F:77:D0:82
            X509v3 Basic Constraints: critical
                CA:FALSE
            X509v3 CRL Distribution Points: 
                Full Name:
                  URI:http://sub-ca.localhost/sub-ca.crl
            X509v3 Extended Key Usage: 
                TLS Web Client Authentication
            X509v3 Key Usage: critical
                Digital Signature
            X509v3 Subject Key Identifier: 
                78:14:85:AD:24:86:FD:48:15:F5:BA:7C:56:20:65:BC:17:BD:DF:23
    Signature Algorithm: sha256WithRSAEncryption
    Signature Value:
        41:cb:38:2a:ae:6f:9f:4c:97:50:90:e1:75:96:e9:3d:88:8a:
        e4:3e:c6:f6:28:b8:11:a0:63:80:18:56:00:1f:d5:55:fa:74:
        b6:5b:89:68:b2:95:21:53:59:b4:66:0f:e2:86:17:28:b3:48:
        30:ad:d9:11:0e:b2:28:5c:32:b1:5e:68:a1:af:9f:c4:2a:45:
        a4:42:47:d3:85:7f:81:87:4b:a3:34:5d:cf:01:41:33:c7:d3:
        a4:4a:b7:b7:4d:de:85:40:cb:86:b7:b1:d7:82:f7:04:9e:f4:
        fa:39:04:47:1f:9e:a2:b8:a2:f5:4e:76:47:da:3b:b5:d7:29:
        60:83:5f:b7:3a:95:0a:ee:0e:9f:2e:0a:59:71:3b:e6:b1:27:
        d5:d5:6c:b9:57:e9:f8:4a:eb:27:a6:47:be:96:47:e9:38:5d:
        7e:a1:4d:57:3f:23:eb:43:f1:85:3f:66:38:d8:20:6c:a3:59:
        8c:af:0e:4b:81:d1:de:b8:fe:94:be:df:cb:14:49:7e:8d:c6:
        e9:f3:2e:54:8b:37:23:57:16:1d:e8:63:44:f8:1f:6e:29:34:
        44:65:f5:b0:69:59:d4:c8:43:cc:54:29:39:4d:48:27:72:a0:
        1d:cb:9b:26:7e:11:8e:05:0d:a1:3e:cf:b0:42:7e:3a:ce:b3:
        d9:58:b3:84
-----BEGIN CERTIFICATE-----
MIIELDCCAxSgAwIBAgIRAMiw7vAkAdeKHRRAO5D/RzkwDQYJKoZIhvcNAQELBQAw
QjELMAkGA1UEBhMCVVMxIjAgBgNVBAoMGVBvcnRsYW5kIFN0YXRlIFVuaXZlcnNp
dHkxDzANBgNVBAMMBlN1YiBDQTAeFw0yMzA2MTkxNjA2MTZaFw0zMzA2MTYxNjA2
MTZaMEIxCzAJBgNVBAYTAlVTMSIwIAYDVQQKDBlQb3J0bGFuZCBTdGF0ZSBVbml2
ZXJzaXR5MQ8wDQYDVQQDDAZTdWIgQ0EwggEiMA0GCSqGSIb3DQEBAQUAA4IBDwAw
ggEKAoIBAQC/XZY8ExwhukR+CrqLm/B3VaU8EcE0VR/SEUTmnUc38EGSo6AiX/GA
prFz4V1O/mBi6MrBP3iaAOlXmIBjyDLaNQXzShlNM2BUeuSSP2T8MgJB3h6i//3P
2nPA45i9hk1Lax/CgV3KiqY0M5SBy+CjxNZWBRfpHh9PhND7q1BFD76zom4esV0x
Ax5lUTN3Jy/+tI6iiIfJu2TqIDNzz4ffI+GcZlF6LiDAAatuXuAVOBkYrkr8oISI
en4mfD4CW6wOY/yg7TEiYyN5hM5GiTOqiI7438Ce9AjZVaPkoG34LxCuG6EDHwMv
AIBM8AG3rhAPHF1R7gNhuBubzWAmQsQjAgMBAAGjggEbMIIBFzBtBggrBgEFBQcB
AQRhMF8wLgYIKwYBBQUHMAKGImh0dHA6Ly9zdWItY2EubG9jYWxob3N0L3N1Yi1j
YS5jcnQwLQYIKwYBBQUHMAGGIWh0dHA6Ly9vY3NwLnN1Yi1jYS5sb2NhbGhvc3Q6
OTA4MTAfBgNVHSMEGDAWgBRNoY2FwcHt6Jo5tQUtO3KIj3fQgjAMBgNVHRMBAf8E
AjAAMDMGA1UdHwQsMCowKKAmoCSGImh0dHA6Ly9zdWItY2EubG9jYWxob3N0L3N1
Yi1jYS5jcmwwEwYDVR0lBAwwCgYIKwYBBQUHAwIwDgYDVR0PAQH/BAQDAgeAMB0G
A1UdDgQWBBR4FIWtJIb9SBX1unxWIGW8F73fIzANBgkqhkiG9w0BAQsFAAOCAQEA
Qcs4Kq5vn0yXUJDhdZbpPYiK5D7G9ii4EaBjgBhWAB/VVfp0tluJaLKVIVNZtGYP
4oYXKLNIMK3ZEQ6yKFwysV5ooa+fxCpFpEJH04V/gYdLozRdzwFBM8fTpEq3t03e
hUDLhrex14L3BJ70+jkERx+eorii9U52R9o7tdcpYINftzqVCu4Ony4KWXE75rEn
1dVsuVfp+ErrJ6ZHvpZH6ThdfqFNVz8j60PxhT9mONggbKNZjK8OS4HR3rj+lL7f
yxRJfo3G6fMuVIs3I1cWHehjRPgfbik0RGX1sGlZ1MhDzFQpOU1IJ3KgHcubJn4R
jgUNoT7PsEJ+Os6z2VizhA==
-----END CERTIFICATE-----
