Certificate:
    Data:
        Version: 3 (0x2)
        Serial Number:
            90:4c:66:1b:96:18:b9:99:11:ea:e2:b7:9b:98:d0:14
        Signature Algorithm: sha256WithRSAEncryption
        Issuer: C=US, O=Portland State University, CN=Sub CA
        Validity
            Not Before: Apr  5 20:37:27 2022 GMT
            Not After : Apr  5 20:37:27 2023 GMT
        Subject: C=US, O=Portland State University, CN=Sub CA
        Subject Public Key Info:
            Public Key Algorithm: rsaEncryption
                RSA Public-Key: (2048 bit)
                Modulus:
                    00:d4:99:3d:86:72:71:9d:94:64:e8:13:ae:6b:cf:
                    ae:1a:cc:82:ac:2b:2d:2f:b8:1a:c4:20:de:7c:76:
                    39:b6:43:38:0d:4a:91:31:83:56:5e:5e:50:9e:f6:
                    95:2e:76:e8:6f:45:e0:6a:e4:45:75:fe:53:7b:2f:
                    31:2f:c3:ba:60:22:71:de:de:db:10:00:86:61:2e:
                    73:a9:4e:48:b6:5a:fd:78:dc:5a:c7:de:b1:db:46:
                    db:aa:b3:70:7c:2d:7a:af:bb:40:5c:69:aa:bc:7f:
                    a9:33:ec:8b:42:c0:0b:07:6b:a3:22:b6:ef:fa:bc:
                    b7:8f:f4:8e:29:e5:e1:c9:b0:9c:a4:ef:0d:46:e0:
                    3b:a9:be:2d:58:be:0c:05:c2:70:28:d4:35:6b:b7:
                    fc:ac:27:24:7c:df:b9:f0:d0:2a:e3:86:23:17:4a:
                    52:9c:2b:0f:dc:7c:e2:46:40:80:cd:1f:2f:0c:b6:
                    1f:37:c7:25:86:89:32:0c:00:3b:33:45:8d:51:d7:
                    8d:4d:f0:12:7f:0b:9d:a0:44:95:75:2c:54:48:c2:
                    2c:dc:b1:0c:0c:d5:ac:28:d2:11:83:6a:26:65:8f:
                    bf:98:fe:95:d0:8b:fd:ee:cb:89:1b:9e:96:67:ea:
                    87:d2:53:f7:13:a1:af:66:79:85:21:72:a3:fb:19:
                    22:c7
                Exponent: 65537 (0x10001)
        X509v3 extensions:
            Authority Information Access: 
                CA Issuers - URI:http://sub-ca.localhost/sub-ca.crt
                OCSP - URI:http://ocsp.sub-ca.localhost:9081

            X509v3 Authority Key Identifier: 
                keyid:20:4E:F0:B3:1E:BF:BC:1F:35:6A:C5:70:8E:A0:D8:70:D5:D1:57:44

            X509v3 Basic Constraints: critical
                CA:FALSE
            X509v3 CRL Distribution Points: 

                Full Name:
                  URI:http://sub-ca.localhost/sub-ca.crl

            X509v3 Extended Key Usage: 
                TLS Web Client Authentication
            X509v3 Key Usage: critical
                Digital Signature
            X509v3 Subject Key Identifier: 
                C2:C2:AC:4D:FE:9E:6E:99:4F:79:6C:64:7E:A8:FE:DC:0F:CC:19:7E
    Signature Algorithm: sha256WithRSAEncryption
         01:bf:28:29:66:b7:3b:8a:e4:58:a9:88:dd:6a:c0:f0:3f:3e:
         2a:ef:1c:3d:24:c0:0c:aa:db:c1:62:28:cc:89:3c:6d:ee:f1:
         4d:63:5e:85:a0:aa:e3:b2:a5:b0:eb:da:e1:f5:c5:34:8e:67:
         b7:ec:d8:fd:aa:97:2e:e7:a2:49:e5:f5:df:52:c9:f0:4f:0b:
         3b:6c:3c:e9:50:00:a6:29:f3:41:17:3b:5b:3f:af:18:05:ec:
         95:aa:c0:21:82:80:ee:27:e6:ea:ac:14:45:a1:94:22:4c:99:
         bc:ba:fe:ba:63:f4:d7:d3:50:d0:6c:31:3c:20:cb:5a:7b:fd:
         19:74:b1:72:9f:8e:4e:a1:d9:4d:b5:62:f8:ec:be:0a:93:0e:
         16:48:f9:9a:39:1b:f1:d2:16:8f:fc:23:d2:9c:6c:2d:50:a1:
         6b:5d:7a:41:e3:94:1a:82:26:78:32:7f:e4:c3:c8:0c:f9:ff:
         7c:4f:9f:d8:a1:b1:84:8e:92:a3:2c:ea:78:51:40:58:e4:0d:
         e9:39:52:d6:93:a1:9e:ac:e4:88:0e:59:39:6a:d1:a0:82:cd:
         97:c1:f8:88:96:08:84:3c:ba:0f:68:8c:9f:56:5d:1c:be:71:
         6e:37:04:6c:26:94:9c:1b:0e:ae:c0:31:44:e5:ec:b0:aa:d5:
         02:80:6c:b0
-----BEGIN CERTIFICATE-----
MIIELDCCAxSgAwIBAgIRAJBMZhuWGLmZEerit5uY0BQwDQYJKoZIhvcNAQELBQAw
QjELMAkGA1UEBhMCVVMxIjAgBgNVBAoMGVBvcnRsYW5kIFN0YXRlIFVuaXZlcnNp
dHkxDzANBgNVBAMMBlN1YiBDQTAeFw0yMjA0MDUyMDM3MjdaFw0yMzA0MDUyMDM3
MjdaMEIxCzAJBgNVBAYTAlVTMSIwIAYDVQQKDBlQb3J0bGFuZCBTdGF0ZSBVbml2
ZXJzaXR5MQ8wDQYDVQQDDAZTdWIgQ0EwggEiMA0GCSqGSIb3DQEBAQUAA4IBDwAw
ggEKAoIBAQDUmT2GcnGdlGToE65rz64azIKsKy0vuBrEIN58djm2QzgNSpExg1Ze
XlCe9pUuduhvReBq5EV1/lN7LzEvw7pgInHe3tsQAIZhLnOpTki2Wv143FrH3rHb
Rtuqs3B8LXqvu0Bcaaq8f6kz7ItCwAsHa6Mitu/6vLeP9I4p5eHJsJyk7w1G4Dup
vi1YvgwFwnAo1DVrt/ysJyR837nw0CrjhiMXSlKcKw/cfOJGQIDNHy8Mth83xyWG
iTIMADszRY1R141N8BJ/C52gRJV1LFRIwizcsQwM1awo0hGDaiZlj7+Y/pXQi/3u
y4kbnpZn6ofSU/cToa9meYUhcqP7GSLHAgMBAAGjggEbMIIBFzBtBggrBgEFBQcB
AQRhMF8wLgYIKwYBBQUHMAKGImh0dHA6Ly9zdWItY2EubG9jYWxob3N0L3N1Yi1j
YS5jcnQwLQYIKwYBBQUHMAGGIWh0dHA6Ly9vY3NwLnN1Yi1jYS5sb2NhbGhvc3Q6
OTA4MTAfBgNVHSMEGDAWgBQgTvCzHr+8HzVqxXCOoNhw1dFXRDAMBgNVHRMBAf8E
AjAAMDMGA1UdHwQsMCowKKAmoCSGImh0dHA6Ly9zdWItY2EubG9jYWxob3N0L3N1
Yi1jYS5jcmwwEwYDVR0lBAwwCgYIKwYBBQUHAwIwDgYDVR0PAQH/BAQDAgeAMB0G
A1UdDgQWBBTCwqxN/p5umU95bGR+qP7cD8wZfjANBgkqhkiG9w0BAQsFAAOCAQEA
Ab8oKWa3O4rkWKmI3WrA8D8+Ku8cPSTADKrbwWIozIk8be7xTWNehaCq47KlsOva
4fXFNI5nt+zY/aqXLueiSeX131LJ8E8LO2w86VAApinzQRc7Wz+vGAXslarAIYKA
7ifm6qwURaGUIkyZvLr+umP019NQ0GwxPCDLWnv9GXSxcp+OTqHZTbVi+Oy+CpMO
Fkj5mjkb8dIWj/wj0pxsLVCha116QeOUGoImeDJ/5MPIDPn/fE+f2KGxhI6Soyzq
eFFAWOQN6TlS1pOhnqzkiA5ZOWrRoILNl8H4iJYIhDy6D2iMn1ZdHL5xbjcEbCaU
nBsOrsAxROXssKrVAoBssA==
-----END CERTIFICATE-----
