Certificate:
    Data:
        Version: 3 (0x2)
        Serial Number:
            90:4c:66:1b:96:18:b9:99:11:ea:e2:b7:9b:98:d0:10
        Signature Algorithm: sha256WithRSAEncryption
        Issuer: C=US, O=Portland State University, CN=Sub CA
        Validity
            Not Before: Apr  5 20:37:27 2022 GMT
            Not After : Apr  5 20:37:27 2023 GMT
        Subject: C=US, O=Portland State University, CN=Sub CA
        Subject Public Key Info:
            Public Key Algorithm: rsaEncryption
                RSA Public-Key: (2048 bit)
                Modulus:
                    00:cb:2f:48:34:1a:0d:a9:54:0f:ad:75:84:36:7c:
                    b7:00:68:51:92:7f:8d:7c:00:ce:c0:67:73:e7:89:
                    06:dd:8e:3b:9b:f5:46:60:2a:2e:e7:e9:53:60:7e:
                    ba:f4:92:c0:71:38:86:b9:53:5d:be:4b:c9:25:9f:
                    5a:53:51:09:80:30:70:61:ba:fb:9c:24:4d:7c:03:
                    b5:65:37:2f:7f:52:ae:38:d8:ad:f9:e5:e2:c1:c3:
                    96:19:37:3d:9f:c3:c8:ed:e6:b5:f0:3f:41:e4:e1:
                    99:79:ef:57:a2:6b:c4:d6:be:ed:50:6d:a9:66:af:
                    ab:77:b1:a7:8c:d4:52:11:39:53:50:ad:e9:e7:cb:
                    90:d1:24:c1:31:65:20:dd:af:d7:73:93:f3:a3:f8:
                    d9:12:6c:62:35:2b:38:48:d9:60:d0:8b:61:8c:84:
                    dd:7e:31:60:ea:a4:20:ab:ee:f1:59:46:a0:cb:c2:
                    d2:d7:45:2f:c9:fc:d1:b4:34:c9:6a:86:be:7c:ef:
                    a2:70:90:6c:da:f2:5f:ed:34:52:a7:35:1a:c2:6b:
                    3a:e0:6a:95:6a:c5:0f:f6:a4:2b:86:74:77:63:bc:
                    d4:50:d0:94:58:03:6a:55:be:85:1e:b2:ee:1e:18:
                    73:dc:50:bd:c2:ff:41:d0:fe:e6:2d:d2:02:f6:ce:
                    c1:39
                Exponent: 65537 (0x10001)
        X509v3 extensions:
            Authority Information Access: 
                CA Issuers - URI:http://sub-ca.localhost/sub-ca.crt
                OCSP - URI:http://ocsp.sub-ca.localhost:9081

            X509v3 Authority Key Identifier: 
                keyid:20:4E:F0:B3:1E:BF:BC:1F:35:6A:C5:70:8E:A0:D8:70:D5:D1:57:44

            X509v3 Basic Constraints: critical
                CA:FALSE
            X509v3 CRL Distribution Points: 

                Full Name:
                  URI:http://sub-ca.localhost/sub-ca.crl

            X509v3 Extended Key Usage: 
                TLS Web Client Authentication
            X509v3 Key Usage: critical
                Digital Signature
            X509v3 Subject Key Identifier: 
                17:5F:B5:85:C8:B5:AF:DE:50:50:67:28:22:25:44:27:AE:7D:52:82
    Signature Algorithm: sha256WithRSAEncryption
         7a:51:9e:71:66:6e:03:2d:8a:41:36:13:39:e6:d4:25:2c:47:
         23:92:e1:de:af:6f:d1:b5:f8:38:7f:b9:9a:59:56:2c:73:33:
         93:08:15:fe:64:c5:71:c7:57:d1:cd:da:11:b1:91:95:26:b5:
         12:03:6f:d1:e6:9c:ef:05:ac:83:c0:ed:18:81:7a:93:3c:97:
         4b:6d:46:35:a9:e6:84:4b:20:9e:d6:35:86:f6:ef:c2:da:41:
         a0:c6:58:5b:8f:e2:c1:55:b7:bc:11:e0:c7:65:67:e9:72:18:
         90:ff:e0:61:fa:24:36:cd:e8:2e:c1:15:56:2c:d7:a3:82:bb:
         32:8d:8c:1b:be:3c:73:3c:d1:40:92:96:76:84:34:b6:83:1f:
         db:be:11:86:68:f3:de:24:3e:5a:01:d6:1b:f5:e3:3e:b5:c8:
         3b:bf:54:8a:b0:50:9f:41:cf:17:3a:ac:72:84:15:77:88:27:
         7e:3d:46:30:9c:bb:67:73:23:c3:58:84:5b:09:fd:e9:1f:00:
         23:8d:3c:d7:d6:5e:01:52:fe:0a:80:ca:d0:bd:03:15:cc:72:
         96:35:78:fe:7c:9d:bf:60:31:7b:21:7e:53:86:b6:48:d0:8c:
         cd:8a:d8:0a:24:82:ac:52:19:72:f3:25:05:7c:e7:9d:5a:a3:
         7d:7e:07:f3
-----BEGIN CERTIFICATE-----
MIIELDCCAxSgAwIBAgIRAJBMZhuWGLmZEerit5uY0BAwDQYJKoZIhvcNAQELBQAw
QjELMAkGA1UEBhMCVVMxIjAgBgNVBAoMGVBvcnRsYW5kIFN0YXRlIFVuaXZlcnNp
dHkxDzANBgNVBAMMBlN1YiBDQTAeFw0yMjA0MDUyMDM3MjdaFw0yMzA0MDUyMDM3
MjdaMEIxCzAJBgNVBAYTAlVTMSIwIAYDVQQKDBlQb3J0bGFuZCBTdGF0ZSBVbml2
ZXJzaXR5MQ8wDQYDVQQDDAZTdWIgQ0EwggEiMA0GCSqGSIb3DQEBAQUAA4IBDwAw
ggEKAoIBAQDLL0g0Gg2pVA+tdYQ2fLcAaFGSf418AM7AZ3PniQbdjjub9UZgKi7n
6VNgfrr0ksBxOIa5U12+S8kln1pTUQmAMHBhuvucJE18A7VlNy9/Uq442K355eLB
w5YZNz2fw8jt5rXwP0Hk4Zl571eia8TWvu1Qbalmr6t3saeM1FIROVNQrenny5DR
JMExZSDdr9dzk/Oj+NkSbGI1KzhI2WDQi2GMhN1+MWDqpCCr7vFZRqDLwtLXRS/J
/NG0NMlqhr5876JwkGza8l/tNFKnNRrCazrgapVqxQ/2pCuGdHdjvNRQ0JRYA2pV
voUesu4eGHPcUL3C/0HQ/uYt0gL2zsE5AgMBAAGjggEbMIIBFzBtBggrBgEFBQcB
AQRhMF8wLgYIKwYBBQUHMAKGImh0dHA6Ly9zdWItY2EubG9jYWxob3N0L3N1Yi1j
YS5jcnQwLQYIKwYBBQUHMAGGIWh0dHA6Ly9vY3NwLnN1Yi1jYS5sb2NhbGhvc3Q6
OTA4MTAfBgNVHSMEGDAWgBQgTvCzHr+8HzVqxXCOoNhw1dFXRDAMBgNVHRMBAf8E
AjAAMDMGA1UdHwQsMCowKKAmoCSGImh0dHA6Ly9zdWItY2EubG9jYWxob3N0L3N1
Yi1jYS5jcmwwEwYDVR0lBAwwCgYIKwYBBQUHAwIwDgYDVR0PAQH/BAQDAgeAMB0G
A1UdDgQWBBQXX7WFyLWv3lBQZygiJUQnrn1SgjANBgkqhkiG9w0BAQsFAAOCAQEA
elGecWZuAy2KQTYTOebUJSxHI5Lh3q9v0bX4OH+5mllWLHMzkwgV/mTFccdX0c3a
EbGRlSa1EgNv0eac7wWsg8DtGIF6kzyXS21GNanmhEsgntY1hvbvwtpBoMZYW4/i
wVW3vBHgx2Vn6XIYkP/gYfokNs3oLsEVVizXo4K7Mo2MG748czzRQJKWdoQ0toMf
274Rhmjz3iQ+WgHWG/XjPrXIO79UirBQn0HPFzqscoQVd4gnfj1GMJy7Z3Mjw1iE
Wwn96R8AI40819ZeAVL+CoDK0L0DFcxyljV4/nydv2AxeyF+U4a2SNCMzYrYCiSC
rFIZcvMlBXznnVqjfX4H8w==
-----END CERTIFICATE-----
