Certificate:
    Data:
        Version: 3 (0x2)
        Serial Number:
            c8:b0:ee:f0:24:01:d7:8a:1d:14:40:3b:90:ff:47:09
        Signature Algorithm: sha256WithRSAEncryption
        Issuer: C=US, O=Portland State University, CN=Sub CA
        Validity
            Not Before: Jun 19 16:06:09 2023 GMT
            Not After : Jun 16 16:06:09 2033 GMT
        Subject: C=US, O=Portland State University, CN=Sub CA
        Subject Public Key Info:
            Public Key Algorithm: rsaEncryption
                Public-Key: (2048 bit)
                Modulus:
                    00:a0:77:13:b4:21:48:7b:32:a6:69:3d:a7:3c:6b:
                    16:5f:de:3f:7a:1f:0a:55:59:95:1e:77:25:b1:13:
                    9f:3e:85:2f:b3:dd:eb:e0:9a:ff:a1:01:9d:4e:5c:
                    af:8f:e8:da:71:98:37:0f:bc:87:68:00:d6:ff:75:
                    38:4e:04:cb:09:e0:a7:f6:60:16:a6:44:29:df:ef:
                    1c:3e:ff:6e:89:43:82:04:96:df:53:35:a2:2d:e1:
                    b5:cd:63:ed:e3:61:d5:61:3f:06:45:ef:af:d0:2e:
                    ea:61:3f:fb:58:49:6e:28:e4:5f:38:40:b9:9d:b3:
                    36:c1:7d:9b:73:98:3e:fc:c9:7b:ef:6e:7e:84:98:
                    7f:86:ff:a1:b8:f1:72:05:91:e8:f3:65:04:0c:44:
                    84:85:f2:ca:3d:6f:85:e1:4e:9e:04:80:cf:dc:24:
                    ec:d1:0d:7a:4c:d2:27:09:f5:49:c3:a0:8b:7b:b1:
                    78:df:5b:09:fa:16:8a:39:fc:f3:d5:73:09:df:d3:
                    ff:03:f3:ea:cb:ad:5b:40:24:6d:58:07:b7:5f:cf:
                    25:b4:6a:0e:3b:51:a2:b8:66:1c:09:04:61:3e:a6:
                    6d:00:1b:14:d5:3d:89:7e:43:d8:f6:df:98:23:be:
                    97:f5:1b:41:50:59:c3:63:e8:69:8f:39:3a:3b:0a:
                    d6:29
                Exponent: 65537 (0x10001)
        X509v3 extensions:
            Authority Information Access: 
                CA Issuers - URI:http://sub-ca.localhost/sub-ca.crt
                OCSP - URI:http://ocsp.sub-ca.localhost:9081
            X509v3 Authority Key Identifier: 
                4D:A1:8D:85:C1:C1:ED:E8:9A:39:B5:05:2D:3B:72:88:8F:77:D0:82
            X509v3 Basic Constraints: critical
                CA:FALSE
            X509v3 CRL Distribution Points: 
                Full Name:
                  URI:http://sub-ca.localhost/sub-ca.crl
            X509v3 Extended Key Usage: 
                TLS Web Client Authentication
            X509v3 Key Usage: critical
                Digital Signature
            X509v3 Subject Key Identifier: 
                55:7C:EE:78:04:54:55:17:FC:D7:9E:E5:93:06:75:A7:07:34:B2:B2
    Signature Algorithm: sha256WithRSAEncryption
    Signature Value:
        85:0d:fd:77:01:76:77:55:c6:dd:a3:1c:a4:e6:68:7a:05:cd:
        ae:6f:dd:7c:13:8a:c9:5c:f1:6d:e4:56:26:5f:b6:7d:b1:a1:
        7a:85:9d:76:f9:5d:59:db:d0:47:f2:f1:be:d6:58:e2:d2:0d:
        64:cc:5d:4e:ef:7a:02:ef:eb:85:e1:2a:d1:e7:b9:a4:90:87:
        a2:2a:e8:8c:77:97:8c:2f:b4:c0:a3:28:61:14:82:71:10:cb:
        4e:62:b5:f9:7c:d6:13:52:22:a1:c9:33:a3:7c:1f:4e:41:43:
        6b:be:be:02:eb:1c:d7:c8:a9:38:70:fe:22:69:2f:cf:5b:8c:
        ea:ac:69:39:fe:09:79:07:57:c4:d7:51:48:e5:b8:68:31:3f:
        72:9b:d0:b5:d3:18:ed:28:1a:e1:7e:4d:a4:6e:e8:57:3a:ef:
        86:37:41:61:cb:a7:55:c2:ec:39:08:cc:55:c1:7c:0c:19:00:
        fa:eb:61:94:83:18:e8:d1:17:9a:9b:e5:e0:f8:de:b1:08:9d:
        c2:e9:b0:3d:8c:57:60:be:04:2f:b1:0a:24:15:1e:12:7c:0a:
        52:59:89:cf:b7:cb:87:2c:12:80:b1:4d:48:3c:5c:89:70:c2:
        b2:3a:43:c6:db:42:70:0a:6a:ee:79:35:db:1a:4c:6e:6a:24:
        cd:55:12:20
-----BEGIN CERTIFICATE-----
MIIELDCCAxSgAwIBAgIRAMiw7vAkAdeKHRRAO5D/RwkwDQYJKoZIhvcNAQELBQAw
QjELMAkGA1UEBhMCVVMxIjAgBgNVBAoMGVBvcnRsYW5kIFN0YXRlIFVuaXZlcnNp
dHkxDzANBgNVBAMMBlN1YiBDQTAeFw0yMzA2MTkxNjA2MDlaFw0zMzA2MTYxNjA2
MDlaMEIxCzAJBgNVBAYTAlVTMSIwIAYDVQQKDBlQb3J0bGFuZCBTdGF0ZSBVbml2
ZXJzaXR5MQ8wDQYDVQQDDAZTdWIgQ0EwggEiMA0GCSqGSIb3DQEBAQUAA4IBDwAw
ggEKAoIBAQCgdxO0IUh7MqZpPac8axZf3j96HwpVWZUedyWxE58+hS+z3evgmv+h
AZ1OXK+P6NpxmDcPvIdoANb/dThOBMsJ4Kf2YBamRCnf7xw+/26JQ4IElt9TNaIt
4bXNY+3jYdVhPwZF76/QLuphP/tYSW4o5F84QLmdszbBfZtzmD78yXvvbn6EmH+G
/6G48XIFkejzZQQMRISF8so9b4XhTp4EgM/cJOzRDXpM0icJ9UnDoIt7sXjfWwn6
Foo5/PPVcwnf0/8D8+rLrVtAJG1YB7dfzyW0ag47UaK4ZhwJBGE+pm0AGxTVPYl+
Q9j235gjvpf1G0FQWcNj6GmPOTo7CtYpAgMBAAGjggEbMIIBFzBtBggrBgEFBQcB
AQRhMF8wLgYIKwYBBQUHMAKGImh0dHA6Ly9zdWItY2EubG9jYWxob3N0L3N1Yi1j
YS5jcnQwLQYIKwYBBQUHMAGGIWh0dHA6Ly9vY3NwLnN1Yi1jYS5sb2NhbGhvc3Q6
OTA4MTAfBgNVHSMEGDAWgBRNoY2FwcHt6Jo5tQUtO3KIj3fQgjAMBgNVHRMBAf8E
AjAAMDMGA1UdHwQsMCowKKAmoCSGImh0dHA6Ly9zdWItY2EubG9jYWxob3N0L3N1
Yi1jYS5jcmwwEwYDVR0lBAwwCgYIKwYBBQUHAwIwDgYDVR0PAQH/BAQDAgeAMB0G
A1UdDgQWBBRVfO54BFRVF/zXnuWTBnWnBzSysjANBgkqhkiG9w0BAQsFAAOCAQEA
hQ39dwF2d1XG3aMcpOZoegXNrm/dfBOKyVzxbeRWJl+2fbGheoWddvldWdvQR/Lx
vtZY4tINZMxdTu96Au/rheEq0ee5pJCHoirojHeXjC+0wKMoYRSCcRDLTmK1+XzW
E1Iiockzo3wfTkFDa76+Ausc18ipOHD+Imkvz1uM6qxpOf4JeQdXxNdRSOW4aDE/
cpvQtdMY7Sga4X5NpG7oVzrvhjdBYcunVcLsOQjMVcF8DBkA+uthlIMY6NEXmpvl
4PjesQidwumwPYxXYL4EL7EKJBUeEnwKUlmJz7fLhywSgLFNSDxciXDCsjpDxttC
cApq7nk12xpMbmokzVUSIA==
-----END CERTIFICATE-----
