Certificate:
    Data:
        Version: 3 (0x2)
        Serial Number:
            90:4c:66:1b:96:18:b9:99:11:ea:e2:b7:9b:98:d0:0f
        Signature Algorithm: sha256WithRSAEncryption
        Issuer: C=US, O=Portland State University, CN=Sub CA
        Validity
            Not Before: Apr  5 20:37:27 2022 GMT
            Not After : Apr  5 20:37:27 2023 GMT
        Subject: C=US, O=Portland State University, CN=Sub CA
        Subject Public Key Info:
            Public Key Algorithm: rsaEncryption
                RSA Public-Key: (2048 bit)
                Modulus:
                    00:ca:9d:fd:a1:21:43:6e:8f:3e:03:8f:f0:dd:60:
                    b6:8f:37:31:0a:e5:99:c8:a8:06:68:65:95:a3:bc:
                    38:d6:8e:f4:7d:e3:c6:6b:e3:87:a0:8b:bf:6d:26:
                    44:08:1e:52:24:93:b1:86:17:81:d4:9f:5b:66:51:
                    8c:59:b4:d0:98:20:c7:24:05:1e:32:6d:10:b7:4a:
                    12:48:1d:5d:fb:b4:81:e7:89:5d:90:bd:66:28:c3:
                    ed:0c:c2:59:82:79:6c:1a:4f:98:fb:18:70:0c:b4:
                    5f:26:49:9e:a6:9f:f4:43:bf:50:57:03:c8:59:1f:
                    eb:24:5d:19:12:9c:9c:bc:5e:c7:3f:bc:51:4d:32:
                    24:12:3d:e3:22:19:92:b7:a0:10:f3:f7:e0:99:29:
                    73:fa:ea:c1:ca:41:d9:18:e0:68:aa:b8:96:ed:eb:
                    cb:c6:6a:84:4f:07:4f:d4:6e:e6:91:3a:96:65:09:
                    f8:55:87:7f:f0:8c:85:e9:dd:5e:d7:33:f7:c7:4d:
                    ab:5f:7b:86:4b:f8:48:b4:75:27:c0:01:93:86:84:
                    dd:f9:ea:e3:8b:5f:bb:8d:69:9a:3d:ee:fe:47:ee:
                    5a:26:02:cd:1e:ce:08:8e:23:9a:ed:69:73:ae:06:
                    55:5d:02:60:3f:01:bc:1b:05:9c:8e:c1:b2:84:f2:
                    03:31
                Exponent: 65537 (0x10001)
        X509v3 extensions:
            Authority Information Access: 
                CA Issuers - URI:http://sub-ca.localhost/sub-ca.crt
                OCSP - URI:http://ocsp.sub-ca.localhost:9081

            X509v3 Authority Key Identifier: 
                keyid:20:4E:F0:B3:1E:BF:BC:1F:35:6A:C5:70:8E:A0:D8:70:D5:D1:57:44

            X509v3 Basic Constraints: critical
                CA:FALSE
            X509v3 CRL Distribution Points: 

                Full Name:
                  URI:http://sub-ca.localhost/sub-ca.crl

            X509v3 Extended Key Usage: 
                TLS Web Client Authentication
            X509v3 Key Usage: critical
                Digital Signature
            X509v3 Subject Key Identifier: 
                BA:02:FE:BA:F1:3A:24:A9:7C:D5:87:88:CC:25:EF:FC:26:2D:A8:0B
    Signature Algorithm: sha256WithRSAEncryption
         66:b9:c6:96:92:d6:71:20:24:9e:71:b5:c1:97:ae:72:5a:a6:
         63:64:f6:d1:32:51:b3:f3:64:10:0e:4a:d4:fd:67:9d:0c:bb:
         ca:c0:b3:c9:f4:cf:25:d1:a5:01:b2:5e:dd:18:e6:ea:9c:7c:
         a0:86:d5:51:1c:db:89:be:d6:68:f5:84:17:e2:2e:61:6d:07:
         19:cb:15:48:59:8d:59:d2:93:b8:ab:fb:83:01:35:ee:75:04:
         0b:83:b3:d9:ad:0f:17:ce:59:f9:07:a9:ae:a1:bf:fc:56:8c:
         1a:bf:9c:33:2f:00:20:9a:0d:b0:28:95:67:22:43:89:52:1e:
         69:a9:14:ae:0f:88:32:24:a9:c3:7e:8a:b5:3c:3b:03:ca:5e:
         71:6c:f0:92:f6:ec:a3:c5:49:d9:a5:62:2b:03:8d:ba:63:20:
         db:ff:ce:23:0e:00:16:ac:cd:88:df:52:c0:86:91:8c:af:cd:
         08:4b:d8:04:55:b7:4d:82:a7:de:30:0a:46:2d:92:26:c6:59:
         17:bd:04:80:a1:10:3b:1a:aa:09:05:ce:a5:8d:df:58:b4:f9:
         cb:8b:4a:ec:4e:7f:ee:2b:dc:d4:9a:b3:92:03:e6:f0:09:4f:
         f6:89:69:9a:4e:e2:41:10:a9:2e:4d:a9:9c:81:19:48:4f:a5:
         9f:3e:3b:df
-----BEGIN CERTIFICATE-----
MIIELDCCAxSgAwIBAgIRAJBMZhuWGLmZEerit5uY0A8wDQYJKoZIhvcNAQELBQAw
QjELMAkGA1UEBhMCVVMxIjAgBgNVBAoMGVBvcnRsYW5kIFN0YXRlIFVuaXZlcnNp
dHkxDzANBgNVBAMMBlN1YiBDQTAeFw0yMjA0MDUyMDM3MjdaFw0yMzA0MDUyMDM3
MjdaMEIxCzAJBgNVBAYTAlVTMSIwIAYDVQQKDBlQb3J0bGFuZCBTdGF0ZSBVbml2
ZXJzaXR5MQ8wDQYDVQQDDAZTdWIgQ0EwggEiMA0GCSqGSIb3DQEBAQUAA4IBDwAw
ggEKAoIBAQDKnf2hIUNujz4Dj/DdYLaPNzEK5ZnIqAZoZZWjvDjWjvR948Zr44eg
i79tJkQIHlIkk7GGF4HUn1tmUYxZtNCYIMckBR4ybRC3ShJIHV37tIHniV2QvWYo
w+0MwlmCeWwaT5j7GHAMtF8mSZ6mn/RDv1BXA8hZH+skXRkSnJy8Xsc/vFFNMiQS
PeMiGZK3oBDz9+CZKXP66sHKQdkY4GiquJbt68vGaoRPB0/UbuaROpZlCfhVh3/w
jIXp3V7XM/fHTatfe4ZL+Ei0dSfAAZOGhN356uOLX7uNaZo97v5H7lomAs0ezgiO
I5rtaXOuBlVdAmA/AbwbBZyOwbKE8gMxAgMBAAGjggEbMIIBFzBtBggrBgEFBQcB
AQRhMF8wLgYIKwYBBQUHMAKGImh0dHA6Ly9zdWItY2EubG9jYWxob3N0L3N1Yi1j
YS5jcnQwLQYIKwYBBQUHMAGGIWh0dHA6Ly9vY3NwLnN1Yi1jYS5sb2NhbGhvc3Q6
OTA4MTAfBgNVHSMEGDAWgBQgTvCzHr+8HzVqxXCOoNhw1dFXRDAMBgNVHRMBAf8E
AjAAMDMGA1UdHwQsMCowKKAmoCSGImh0dHA6Ly9zdWItY2EubG9jYWxob3N0L3N1
Yi1jYS5jcmwwEwYDVR0lBAwwCgYIKwYBBQUHAwIwDgYDVR0PAQH/BAQDAgeAMB0G
A1UdDgQWBBS6Av668TokqXzVh4jMJe/8Ji2oCzANBgkqhkiG9w0BAQsFAAOCAQEA
ZrnGlpLWcSAknnG1wZeuclqmY2T20TJRs/NkEA5K1P1nnQy7ysCzyfTPJdGlAbJe
3Rjm6px8oIbVURzbib7WaPWEF+IuYW0HGcsVSFmNWdKTuKv7gwE17nUEC4Oz2a0P
F85Z+QeprqG//FaMGr+cMy8AIJoNsCiVZyJDiVIeaakUrg+IMiSpw36KtTw7A8pe
cWzwkvbso8VJ2aViKwONumMg2//OIw4AFqzNiN9SwIaRjK/NCEvYBFW3TYKn3jAK
Ri2SJsZZF70EgKEQOxqqCQXOpY3fWLT5y4tK7E5/7ivc1JqzkgPm8AlP9olpmk7i
QRCpLk2pnIEZSE+lnz473w==
-----END CERTIFICATE-----
