Certificate:
    Data:
        Version: 3 (0x2)
        Serial Number:
            90:4c:66:1b:96:18:b9:99:11:ea:e2:b7:9b:98:d0:15
        Signature Algorithm: sha256WithRSAEncryption
        Issuer: C=US, O=Portland State University, CN=Sub CA
        Validity
            Not Before: Apr  5 20:37:27 2022 GMT
            Not After : Apr  5 20:37:27 2023 GMT
        Subject: C=US, O=Portland State University, CN=Sub CA
        Subject Public Key Info:
            Public Key Algorithm: rsaEncryption
                RSA Public-Key: (2048 bit)
                Modulus:
                    00:d2:f8:c1:2d:81:4d:ae:87:6a:34:87:7f:8a:af:
                    a7:2f:39:be:4e:e8:46:31:d1:2f:e6:38:a0:23:b1:
                    a9:20:8c:dc:9e:e6:5d:c2:7a:11:64:9c:c4:2f:2c:
                    fe:50:25:f0:41:da:9b:1b:84:a5:16:34:82:d0:75:
                    b8:a4:62:dd:7a:ff:83:96:6b:9d:00:bb:82:97:da:
                    5a:68:38:4e:2c:7d:54:9c:19:d9:61:f3:7b:5c:01:
                    1e:9e:41:d5:28:de:d8:a0:9a:11:44:b1:17:7e:b7:
                    6e:19:a6:7a:d7:5d:f5:0a:dc:1f:72:ae:76:fa:cc:
                    01:d2:19:cb:fd:a6:97:61:9e:6e:72:76:48:4b:f6:
                    6d:bf:65:47:29:38:e1:58:e5:80:4c:19:e3:2e:20:
                    3b:06:0d:c8:5f:3e:2d:32:1c:bd:54:5c:7b:24:a1:
                    35:a8:76:22:ab:33:de:b5:f5:2d:7b:91:c7:09:13:
                    d9:63:4e:10:9f:8f:35:74:a9:b8:8b:07:75:0a:84:
                    3a:32:57:7a:c4:74:57:6d:98:9e:d0:70:82:cd:5e:
                    04:9a:6c:3c:5d:fd:1e:11:d8:ec:1a:09:4c:3e:f8:
                    12:24:ea:c3:53:13:bc:4c:51:8b:b2:b3:ef:41:02:
                    91:ea:4f:3f:81:91:4c:da:4a:58:72:4b:62:be:65:
                    a4:d3
                Exponent: 65537 (0x10001)
        X509v3 extensions:
            Authority Information Access: 
                CA Issuers - URI:http://sub-ca.localhost/sub-ca.crt
                OCSP - URI:http://ocsp.sub-ca.localhost:9081

            X509v3 Authority Key Identifier: 
                keyid:20:4E:F0:B3:1E:BF:BC:1F:35:6A:C5:70:8E:A0:D8:70:D5:D1:57:44

            X509v3 Basic Constraints: critical
                CA:FALSE
            X509v3 CRL Distribution Points: 

                Full Name:
                  URI:http://sub-ca.localhost/sub-ca.crl

            X509v3 Extended Key Usage: 
                TLS Web Client Authentication
            X509v3 Key Usage: critical
                Digital Signature
            X509v3 Subject Key Identifier: 
                F5:6D:67:A1:53:3E:7C:69:55:70:88:49:8E:D9:6C:7D:26:90:7C:39
    Signature Algorithm: sha256WithRSAEncryption
         ae:95:d3:00:4d:05:01:0d:18:ff:ca:e6:65:93:21:b5:37:05:
         c8:58:6c:bf:f0:43:f5:1d:14:cb:e3:48:ee:87:c2:40:88:06:
         83:57:f8:9c:76:70:3f:6f:42:72:04:90:37:39:9d:6c:4a:eb:
         4e:53:34:a9:38:18:26:61:fb:2a:9c:59:ea:17:33:03:d6:d9:
         78:9c:2c:0b:89:87:4e:cf:6d:de:1f:24:41:67:07:98:fe:9c:
         b2:03:0f:c6:06:a3:28:7a:d6:94:53:b9:6c:fc:8b:17:6e:7f:
         8f:c8:5f:b2:07:7e:3f:ed:f0:f7:47:46:39:28:c1:23:e8:04:
         aa:46:e5:37:59:4d:17:15:ed:1b:15:45:cb:2a:16:c6:2a:10:
         e9:21:96:4e:14:61:0c:ff:2b:a3:fe:6b:5c:e1:84:51:43:fb:
         a4:e4:c5:5c:46:ce:70:86:c8:5f:45:44:3a:66:23:55:59:6b:
         68:65:84:68:3d:be:7d:b0:37:ff:5e:ef:5d:de:9c:78:3d:54:
         f9:c7:9f:51:7c:7a:17:ed:6e:e5:b5:fe:c0:82:48:75:9d:8e:
         46:d0:87:90:98:9c:29:d9:0c:18:26:6f:bb:c2:7e:39:fc:3f:
         c4:56:00:f5:87:10:12:57:f3:3a:f7:f8:28:35:3a:3a:1f:d3:
         dc:53:b1:3c
-----BEGIN CERTIFICATE-----
MIIELDCCAxSgAwIBAgIRAJBMZhuWGLmZEerit5uY0BUwDQYJKoZIhvcNAQELBQAw
QjELMAkGA1UEBhMCVVMxIjAgBgNVBAoMGVBvcnRsYW5kIFN0YXRlIFVuaXZlcnNp
dHkxDzANBgNVBAMMBlN1YiBDQTAeFw0yMjA0MDUyMDM3MjdaFw0yMzA0MDUyMDM3
MjdaMEIxCzAJBgNVBAYTAlVTMSIwIAYDVQQKDBlQb3J0bGFuZCBTdGF0ZSBVbml2
ZXJzaXR5MQ8wDQYDVQQDDAZTdWIgQ0EwggEiMA0GCSqGSIb3DQEBAQUAA4IBDwAw
ggEKAoIBAQDS+MEtgU2uh2o0h3+Kr6cvOb5O6EYx0S/mOKAjsakgjNye5l3CehFk
nMQvLP5QJfBB2psbhKUWNILQdbikYt16/4OWa50Au4KX2lpoOE4sfVScGdlh83tc
AR6eQdUo3tigmhFEsRd+t24ZpnrXXfUK3B9yrnb6zAHSGcv9ppdhnm5ydkhL9m2/
ZUcpOOFY5YBMGeMuIDsGDchfPi0yHL1UXHskoTWodiKrM9619S17kccJE9ljThCf
jzV0qbiLB3UKhDoyV3rEdFdtmJ7QcILNXgSabDxd/R4R2OwaCUw++BIk6sNTE7xM
UYuys+9BApHqTz+BkUzaSlhyS2K+ZaTTAgMBAAGjggEbMIIBFzBtBggrBgEFBQcB
AQRhMF8wLgYIKwYBBQUHMAKGImh0dHA6Ly9zdWItY2EubG9jYWxob3N0L3N1Yi1j
YS5jcnQwLQYIKwYBBQUHMAGGIWh0dHA6Ly9vY3NwLnN1Yi1jYS5sb2NhbGhvc3Q6
OTA4MTAfBgNVHSMEGDAWgBQgTvCzHr+8HzVqxXCOoNhw1dFXRDAMBgNVHRMBAf8E
AjAAMDMGA1UdHwQsMCowKKAmoCSGImh0dHA6Ly9zdWItY2EubG9jYWxob3N0L3N1
Yi1jYS5jcmwwEwYDVR0lBAwwCgYIKwYBBQUHAwIwDgYDVR0PAQH/BAQDAgeAMB0G
A1UdDgQWBBT1bWehUz58aVVwiEmO2Wx9JpB8OTANBgkqhkiG9w0BAQsFAAOCAQEA
rpXTAE0FAQ0Y/8rmZZMhtTcFyFhsv/BD9R0Uy+NI7ofCQIgGg1f4nHZwP29CcgSQ
NzmdbErrTlM0qTgYJmH7KpxZ6hczA9bZeJwsC4mHTs9t3h8kQWcHmP6csgMPxgaj
KHrWlFO5bPyLF25/j8hfsgd+P+3w90dGOSjBI+gEqkblN1lNFxXtGxVFyyoWxioQ
6SGWThRhDP8ro/5rXOGEUUP7pOTFXEbOcIbIX0VEOmYjVVlraGWEaD2+fbA3/17v
Xd6ceD1U+cefUXx6F+1u5bX+wIJIdZ2ORtCHkJicKdkMGCZvu8J+Ofw/xFYA9YcQ
ElfzOvf4KDU6Oh/T3FOxPA==
-----END CERTIFICATE-----
