Certificate:
    Data:
        Version: 3 (0x2)
        Serial Number:
            c8:b0:ee:f0:24:01:d7:8a:1d:14:40:3b:90:ff:47:04
        Signature Algorithm: sha256WithRSAEncryption
        Issuer: C=US, O=Portland State University, CN=Sub CA
        Validity
            Not Before: Jun 19 16:06:08 2023 GMT
            Not After : Jun 16 16:06:08 2033 GMT
        Subject: C=US, O=Portland State University, CN=Sub CA
        Subject Public Key Info:
            Public Key Algorithm: rsaEncryption
                Public-Key: (2048 bit)
                Modulus:
                    00:b4:aa:6a:83:43:4c:ce:f6:81:97:af:8a:0d:99:
                    51:3a:9e:8d:c5:b2:18:b1:f7:8a:2f:10:d9:65:02:
                    e2:c2:59:69:25:26:88:69:69:5c:f9:2b:d1:75:b7:
                    de:f0:b5:d3:8c:27:03:75:9e:b6:13:3a:39:2b:0e:
                    90:12:6d:9c:81:02:88:63:9c:f0:05:71:1f:54:27:
                    98:8f:06:ba:4a:5b:67:c6:cd:14:ae:9f:c7:29:a8:
                    71:62:e2:40:56:6d:2d:5d:f9:dc:61:f9:0c:ce:7b:
                    ec:47:2d:78:3f:02:18:cb:6a:94:48:f9:1c:da:ea:
                    1b:fc:5f:bc:93:0a:82:29:d2:f8:2e:73:6f:ee:17:
                    99:e6:50:6e:91:9d:3a:c3:25:e3:96:e1:04:5a:b3:
                    a2:fd:b9:6e:c1:61:c7:fd:4d:db:7f:31:0b:9f:a0:
                    8f:27:0c:62:13:18:97:77:fa:45:ea:03:aa:b1:c4:
                    bd:77:f6:ed:a7:ca:ff:57:44:64:ad:b6:60:4d:22:
                    b3:b4:67:8c:48:74:fc:db:d5:ad:9e:5d:e1:73:7c:
                    94:a7:de:fb:d3:cf:19:2c:71:b1:de:a1:41:3d:94:
                    f1:ac:25:e9:fd:83:ec:6f:4d:96:a0:fe:49:88:02:
                    ba:8e:1a:7a:a8:1d:62:f8:1e:67:36:a9:9e:37:1c:
                    64:19
                Exponent: 65537 (0x10001)
        X509v3 extensions:
            Authority Information Access: 
                CA Issuers - URI:http://sub-ca.localhost/sub-ca.crt
                OCSP - URI:http://ocsp.sub-ca.localhost:9081
            X509v3 Authority Key Identifier: 
                4D:A1:8D:85:C1:C1:ED:E8:9A:39:B5:05:2D:3B:72:88:8F:77:D0:82
            X509v3 Basic Constraints: critical
                CA:FALSE
            X509v3 CRL Distribution Points: 
                Full Name:
                  URI:http://sub-ca.localhost/sub-ca.crl
            X509v3 Extended Key Usage: 
                TLS Web Client Authentication
            X509v3 Key Usage: critical
                Digital Signature
            X509v3 Subject Key Identifier: 
                69:99:0E:40:CD:01:57:14:6A:C6:34:1E:C9:FF:64:44:73:1E:48:AB
    Signature Algorithm: sha256WithRSAEncryption
    Signature Value:
        6d:3a:9e:32:40:cb:ec:00:10:6b:da:bd:ce:04:3b:8e:1e:07:
        41:7a:23:cc:3b:50:ad:77:09:b6:81:35:44:63:8e:eb:d4:c4:
        fe:ec:de:6f:94:cf:4e:7b:26:b6:8c:77:d4:01:26:0c:d4:23:
        4f:01:db:c1:21:02:1c:54:70:e3:57:fd:b9:c0:65:41:1b:a5:
        85:27:95:54:be:ff:8e:49:0e:7e:4c:89:4c:90:44:15:86:c5:
        df:15:c6:2d:bc:f0:fe:c9:39:d7:47:df:f7:73:9d:7e:13:84:
        17:e2:d5:f7:c2:d0:ac:aa:b7:14:0b:5a:02:85:79:00:ab:f9:
        48:13:7a:a3:9f:f8:17:cc:fa:48:df:a9:a5:9b:ef:cc:da:1b:
        f4:5b:22:76:01:7b:e8:35:bd:3e:af:7c:86:f7:97:dd:1e:57:
        30:3d:37:f5:34:98:84:c9:a6:2c:f5:55:34:1e:9d:0e:c9:d9:
        eb:ce:21:22:d7:9d:8d:18:92:07:e0:4f:e3:0e:49:3c:63:f6:
        84:d8:a2:c5:34:70:8d:ff:b2:12:c4:ff:64:bc:38:2e:b8:86:
        0f:7b:59:28:54:52:00:d7:e8:e1:2c:f3:04:86:45:43:ba:ae:
        e8:7d:39:84:97:a4:18:7e:73:f1:95:d6:59:a2:c7:75:ee:36:
        eb:ea:67:c2
-----BEGIN CERTIFICATE-----
MIIELDCCAxSgAwIBAgIRAMiw7vAkAdeKHRRAO5D/RwQwDQYJKoZIhvcNAQELBQAw
QjELMAkGA1UEBhMCVVMxIjAgBgNVBAoMGVBvcnRsYW5kIFN0YXRlIFVuaXZlcnNp
dHkxDzANBgNVBAMMBlN1YiBDQTAeFw0yMzA2MTkxNjA2MDhaFw0zMzA2MTYxNjA2
MDhaMEIxCzAJBgNVBAYTAlVTMSIwIAYDVQQKDBlQb3J0bGFuZCBTdGF0ZSBVbml2
ZXJzaXR5MQ8wDQYDVQQDDAZTdWIgQ0EwggEiMA0GCSqGSIb3DQEBAQUAA4IBDwAw
ggEKAoIBAQC0qmqDQ0zO9oGXr4oNmVE6no3Fshix94ovENllAuLCWWklJohpaVz5
K9F1t97wtdOMJwN1nrYTOjkrDpASbZyBAohjnPAFcR9UJ5iPBrpKW2fGzRSun8cp
qHFi4kBWbS1d+dxh+QzOe+xHLXg/AhjLapRI+Rza6hv8X7yTCoIp0vguc2/uF5nm
UG6RnTrDJeOW4QRas6L9uW7BYcf9Tdt/MQufoI8nDGITGJd3+kXqA6qxxL139u2n
yv9XRGSttmBNIrO0Z4xIdPzb1a2eXeFzfJSn3vvTzxkscbHeoUE9lPGsJen9g+xv
TZag/kmIArqOGnqoHWL4Hmc2qZ43HGQZAgMBAAGjggEbMIIBFzBtBggrBgEFBQcB
AQRhMF8wLgYIKwYBBQUHMAKGImh0dHA6Ly9zdWItY2EubG9jYWxob3N0L3N1Yi1j
YS5jcnQwLQYIKwYBBQUHMAGGIWh0dHA6Ly9vY3NwLnN1Yi1jYS5sb2NhbGhvc3Q6
OTA4MTAfBgNVHSMEGDAWgBRNoY2FwcHt6Jo5tQUtO3KIj3fQgjAMBgNVHRMBAf8E
AjAAMDMGA1UdHwQsMCowKKAmoCSGImh0dHA6Ly9zdWItY2EubG9jYWxob3N0L3N1
Yi1jYS5jcmwwEwYDVR0lBAwwCgYIKwYBBQUHAwIwDgYDVR0PAQH/BAQDAgeAMB0G
A1UdDgQWBBRpmQ5AzQFXFGrGNB7J/2REcx5IqzANBgkqhkiG9w0BAQsFAAOCAQEA
bTqeMkDL7AAQa9q9zgQ7jh4HQXojzDtQrXcJtoE1RGOO69TE/uzeb5TPTnsmtox3
1AEmDNQjTwHbwSECHFRw41f9ucBlQRulhSeVVL7/jkkOfkyJTJBEFYbF3xXGLbzw
/sk510ff93OdfhOEF+LV98LQrKq3FAtaAoV5AKv5SBN6o5/4F8z6SN+ppZvvzNob
9FsidgF76DW9Pq98hveX3R5XMD039TSYhMmmLPVVNB6dDsnZ684hItedjRiSB+BP
4w5JPGP2hNiixTRwjf+yEsT/ZLw4LriGD3tZKFRSANfo4SzzBIZFQ7qu6H05hJek
GH5z8ZXWWaLHde426+pnwg==
-----END CERTIFICATE-----
