Certificate:
    Data:
        Version: 3 (0x2)
        Serial Number:
            c8:b0:ee:f0:24:01:d7:8a:1d:14:40:3b:90:ff:47:02
        Signature Algorithm: sha256WithRSAEncryption
        Issuer: C=US, O=Portland State University, CN=Sub CA
        Validity
            Not Before: Jun 19 16:06:08 2023 GMT
            Not After : Jun 16 16:06:08 2033 GMT
        Subject: C=US, O=Portland State University, CN=Sub CA
        Subject Public Key Info:
            Public Key Algorithm: rsaEncryption
                Public-Key: (2048 bit)
                Modulus:
                    00:bb:51:b9:7b:f7:3a:e1:4e:d3:c8:d0:37:e3:ae:
                    eb:5f:cb:4b:0d:7a:0a:4e:cb:da:5b:f4:83:2d:b3:
                    a1:90:33:6b:59:25:4b:11:f4:43:7a:e2:97:fb:a7:
                    1d:22:8e:fd:7a:9d:c2:9c:8a:d2:3f:45:ef:5e:4e:
                    bd:34:ee:a6:38:e2:e7:2f:94:91:d2:4a:55:d8:5e:
                    b6:81:61:f6:bd:f8:43:e3:e7:51:bf:25:0d:d5:13:
                    c4:f6:b4:3f:b6:35:c0:f0:d9:0e:c7:b5:40:ea:d1:
                    92:06:4d:d6:f2:1b:0e:22:94:82:25:2b:90:57:15:
                    2d:82:61:87:1e:18:67:03:17:3e:0e:b9:35:fc:8b:
                    ea:2c:80:bc:43:14:c9:5b:c6:c8:dd:af:3a:83:d5:
                    80:51:5a:8d:a0:ba:2d:c1:d8:16:9e:8f:13:4e:c9:
                    80:cc:4e:48:ee:31:4f:c2:f1:1c:cf:0b:60:6e:a1:
                    c8:0a:e5:45:53:23:0f:b6:e6:05:12:6d:96:d7:58:
                    7b:aa:a5:b9:a6:30:2e:d1:ea:50:30:fa:75:5e:6c:
                    79:d8:e8:ab:8d:32:95:9d:a4:e8:30:42:09:58:a3:
                    74:2b:bc:36:d4:03:6b:0b:66:05:d1:83:ea:ea:8a:
                    83:12:5a:aa:4a:de:75:4b:7e:fc:3f:db:bb:26:f0:
                    c2:91
                Exponent: 65537 (0x10001)
        X509v3 extensions:
            Authority Information Access: 
                CA Issuers - URI:http://sub-ca.localhost/sub-ca.crt
                OCSP - URI:http://ocsp.sub-ca.localhost:9081
            X509v3 Authority Key Identifier: 
                4D:A1:8D:85:C1:C1:ED:E8:9A:39:B5:05:2D:3B:72:88:8F:77:D0:82
            X509v3 Basic Constraints: critical
                CA:FALSE
            X509v3 CRL Distribution Points: 
                Full Name:
                  URI:http://sub-ca.localhost/sub-ca.crl
            X509v3 Extended Key Usage: 
                TLS Web Client Authentication
            X509v3 Key Usage: critical
                Digital Signature
            X509v3 Subject Key Identifier: 
                DB:EE:8B:8D:5B:E9:BB:9F:27:FE:41:BA:11:85:E5:6D:EC:CE:8E:40
    Signature Algorithm: sha256WithRSAEncryption
    Signature Value:
        2a:c3:72:df:81:4c:c7:bd:eb:ad:21:3c:e8:48:86:f5:1e:9f:
        b1:53:18:3f:39:5f:64:ea:cc:15:3a:46:6e:26:68:8c:4e:37:
        a6:c0:cd:14:f8:52:99:e1:c2:8b:12:4d:76:3d:5e:4d:12:a5:
        3d:2c:ca:39:34:ab:08:c9:a3:e7:0f:32:06:c3:93:20:d7:cf:
        3b:24:a3:30:76:64:74:e7:dd:22:e4:58:c9:89:52:16:ef:5a:
        8d:97:11:1c:cd:a6:4b:29:9b:22:9b:e3:57:00:a4:50:7e:c7:
        5b:28:4a:74:5c:3d:dc:53:3e:c2:be:fb:a9:ca:6d:a8:15:5a:
        75:aa:29:0b:89:85:ce:f7:a4:e6:a7:6c:67:16:29:7b:33:e9:
        93:bd:5c:4f:ed:5a:8e:58:26:87:13:24:bd:31:4f:0a:a9:bf:
        9a:a4:0a:14:47:2a:db:86:a8:cd:2d:7d:6a:ea:52:d2:9d:73:
        a0:30:e6:49:2e:72:d2:5d:a8:94:d5:eb:61:1b:d3:c7:77:4d:
        fb:a8:2e:af:f7:8e:c7:10:99:95:af:6a:6c:86:11:00:b2:64:
        24:e3:8c:2d:ea:e7:e2:ed:6f:05:e0:df:3a:ce:2a:38:38:05:
        48:df:b4:d3:3e:22:12:6c:4b:9c:0c:cf:8a:77:03:35:71:21:
        23:31:64:45
-----BEGIN CERTIFICATE-----
MIIELDCCAxSgAwIBAgIRAMiw7vAkAdeKHRRAO5D/RwIwDQYJKoZIhvcNAQELBQAw
QjELMAkGA1UEBhMCVVMxIjAgBgNVBAoMGVBvcnRsYW5kIFN0YXRlIFVuaXZlcnNp
dHkxDzANBgNVBAMMBlN1YiBDQTAeFw0yMzA2MTkxNjA2MDhaFw0zMzA2MTYxNjA2
MDhaMEIxCzAJBgNVBAYTAlVTMSIwIAYDVQQKDBlQb3J0bGFuZCBTdGF0ZSBVbml2
ZXJzaXR5MQ8wDQYDVQQDDAZTdWIgQ0EwggEiMA0GCSqGSIb3DQEBAQUAA4IBDwAw
ggEKAoIBAQC7Ubl79zrhTtPI0Dfjrutfy0sNegpOy9pb9IMts6GQM2tZJUsR9EN6
4pf7px0ijv16ncKcitI/Re9eTr007qY44ucvlJHSSlXYXraBYfa9+EPj51G/JQ3V
E8T2tD+2NcDw2Q7HtUDq0ZIGTdbyGw4ilIIlK5BXFS2CYYceGGcDFz4OuTX8i+os
gLxDFMlbxsjdrzqD1YBRWo2gui3B2BaejxNOyYDMTkjuMU/C8RzPC2BuocgK5UVT
Iw+25gUSbZbXWHuqpbmmMC7R6lAw+nVebHnY6KuNMpWdpOgwQglYo3QrvDbUA2sL
ZgXRg+rqioMSWqpK3nVLfvw/27sm8MKRAgMBAAGjggEbMIIBFzBtBggrBgEFBQcB
AQRhMF8wLgYIKwYBBQUHMAKGImh0dHA6Ly9zdWItY2EubG9jYWxob3N0L3N1Yi1j
YS5jcnQwLQYIKwYBBQUHMAGGIWh0dHA6Ly9vY3NwLnN1Yi1jYS5sb2NhbGhvc3Q6
OTA4MTAfBgNVHSMEGDAWgBRNoY2FwcHt6Jo5tQUtO3KIj3fQgjAMBgNVHRMBAf8E
AjAAMDMGA1UdHwQsMCowKKAmoCSGImh0dHA6Ly9zdWItY2EubG9jYWxob3N0L3N1
Yi1jYS5jcmwwEwYDVR0lBAwwCgYIKwYBBQUHAwIwDgYDVR0PAQH/BAQDAgeAMB0G
A1UdDgQWBBTb7ouNW+m7nyf+QboRheVt7M6OQDANBgkqhkiG9w0BAQsFAAOCAQEA
KsNy34FMx73rrSE86EiG9R6fsVMYPzlfZOrMFTpGbiZojE43psDNFPhSmeHCixJN
dj1eTRKlPSzKOTSrCMmj5w8yBsOTINfPOySjMHZkdOfdIuRYyYlSFu9ajZcRHM2m
SymbIpvjVwCkUH7HWyhKdFw93FM+wr77qcptqBVadaopC4mFzvek5qdsZxYpezPp
k71cT+1ajlgmhxMkvTFPCqm/mqQKFEcq24aozS19aupS0p1zoDDmSS5y0l2olNXr
YRvTx3dN+6gur/eOxxCZla9qbIYRALJkJOOMLern4u1vBeDfOs4qODgFSN+00z4i
EmxLnAzPincDNXEhIzFkRQ==
-----END CERTIFICATE-----
