Certificate:
    Data:
        Version: 3 (0x2)
        Serial Number:
            90:4c:66:1b:96:18:b9:99:11:ea:e2:b7:9b:98:d0:0d
        Signature Algorithm: sha256WithRSAEncryption
        Issuer: C=US, O=Portland State University, CN=Sub CA
        Validity
            Not Before: Apr  5 20:37:26 2022 GMT
            Not After : Apr  5 20:37:26 2023 GMT
        Subject: C=US, O=Portland State University, CN=Sub CA
        Subject Public Key Info:
            Public Key Algorithm: rsaEncryption
                RSA Public-Key: (2048 bit)
                Modulus:
                    00:d0:15:7a:10:4b:3e:69:12:c1:a9:1b:de:4f:d2:
                    c4:59:46:7e:76:4d:2c:e5:23:d7:54:44:a3:c1:06:
                    4e:02:2d:08:d8:4c:ba:6a:12:87:53:76:c1:02:85:
                    b5:62:36:96:be:9c:c4:c4:4e:7c:f0:d1:9d:d6:61:
                    ef:2a:b1:d5:d0:00:05:5e:34:00:3d:0b:b8:fb:90:
                    92:c5:05:7a:0b:fd:8e:5a:f4:4b:42:65:84:5a:46:
                    81:d1:57:14:6d:a2:ff:8a:10:1c:dc:99:9b:72:43:
                    97:b8:c8:4a:fe:50:c1:f3:5d:b3:af:d1:66:b0:0c:
                    3d:05:ee:33:bb:c4:01:3a:c0:34:dc:3e:2c:0d:61:
                    3b:c1:a1:78:8a:db:6a:fb:02:ce:fc:df:53:29:28:
                    66:39:0a:76:d2:fa:dd:56:74:77:28:9a:be:b9:7b:
                    04:60:b3:53:c7:f9:e6:ba:07:cb:0b:f3:fe:ac:64:
                    aa:61:8a:f2:53:8b:69:74:21:18:53:84:f3:28:2a:
                    30:78:8c:96:fc:71:9e:e9:98:39:77:70:16:51:5f:
                    0b:9c:0b:a9:24:c2:fb:4d:f4:b5:9e:4b:e7:60:cb:
                    04:ea:d1:c6:99:93:4f:0f:15:bb:f8:d6:4f:b0:9e:
                    db:f5:f1:cc:a1:9d:f0:d8:9b:26:57:52:ee:48:34:
                    e8:e5
                Exponent: 65537 (0x10001)
        X509v3 extensions:
            Authority Information Access: 
                CA Issuers - URI:http://sub-ca.localhost/sub-ca.crt
                OCSP - URI:http://ocsp.sub-ca.localhost:9081

            X509v3 Authority Key Identifier: 
                keyid:20:4E:F0:B3:1E:BF:BC:1F:35:6A:C5:70:8E:A0:D8:70:D5:D1:57:44

            X509v3 Basic Constraints: critical
                CA:FALSE
            X509v3 CRL Distribution Points: 

                Full Name:
                  URI:http://sub-ca.localhost/sub-ca.crl

            X509v3 Extended Key Usage: 
                TLS Web Client Authentication
            X509v3 Key Usage: critical
                Digital Signature
            X509v3 Subject Key Identifier: 
                D2:6F:15:18:A1:A6:AC:8B:CA:4E:33:E4:5A:52:E9:BA:60:27:61:78
    Signature Algorithm: sha256WithRSAEncryption
         36:ab:05:c8:63:99:f7:9c:96:26:ba:c8:1c:b0:d5:50:af:79:
         5a:82:0a:b5:5b:b5:1f:27:72:75:dc:0d:6e:28:d1:81:ca:a5:
         d6:6c:78:20:6f:13:3d:ef:d2:1f:ad:f0:6b:86:47:46:ab:7b:
         a8:5b:da:19:6e:93:8d:da:cc:22:71:8b:90:23:76:8c:a0:7f:
         4a:f2:e5:39:27:a7:01:5b:a7:25:25:1b:38:a0:30:e8:5c:e5:
         b1:fa:c9:73:4d:17:95:7f:ed:74:bf:a2:a2:9b:c8:16:d4:f9:
         ce:99:32:14:5f:b3:31:c8:a8:75:28:e6:15:33:c7:18:a5:92:
         a5:50:5e:f1:4e:e7:69:9f:7b:49:4e:ff:04:7a:c1:49:11:db:
         19:53:f5:ce:09:da:16:3c:92:13:38:b3:96:62:75:6f:9d:45:
         cb:f8:23:dc:ff:35:c8:60:cf:08:98:c2:1d:03:35:8c:5a:64:
         de:73:fe:a5:37:f1:af:98:13:6c:e8:bf:ea:36:1f:eb:f4:ee:
         34:65:dd:a0:bf:13:0c:4c:be:a5:9e:80:ab:5b:96:6f:74:e3:
         92:37:9d:93:dc:6a:a2:f7:d4:98:38:0c:23:45:73:19:2c:8a:
         30:c7:a4:1a:18:2a:04:2d:60:63:5b:5c:ae:4f:9f:84:cd:57:
         41:e1:2d:60
-----BEGIN CERTIFICATE-----
MIIELDCCAxSgAwIBAgIRAJBMZhuWGLmZEerit5uY0A0wDQYJKoZIhvcNAQELBQAw
QjELMAkGA1UEBhMCVVMxIjAgBgNVBAoMGVBvcnRsYW5kIFN0YXRlIFVuaXZlcnNp
dHkxDzANBgNVBAMMBlN1YiBDQTAeFw0yMjA0MDUyMDM3MjZaFw0yMzA0MDUyMDM3
MjZaMEIxCzAJBgNVBAYTAlVTMSIwIAYDVQQKDBlQb3J0bGFuZCBTdGF0ZSBVbml2
ZXJzaXR5MQ8wDQYDVQQDDAZTdWIgQ0EwggEiMA0GCSqGSIb3DQEBAQUAA4IBDwAw
ggEKAoIBAQDQFXoQSz5pEsGpG95P0sRZRn52TSzlI9dURKPBBk4CLQjYTLpqEodT
dsEChbViNpa+nMTETnzw0Z3WYe8qsdXQAAVeNAA9C7j7kJLFBXoL/Y5a9EtCZYRa
RoHRVxRtov+KEBzcmZtyQ5e4yEr+UMHzXbOv0WawDD0F7jO7xAE6wDTcPiwNYTvB
oXiK22r7As7831MpKGY5CnbS+t1WdHcomr65ewRgs1PH+ea6B8sL8/6sZKphivJT
i2l0IRhThPMoKjB4jJb8cZ7pmDl3cBZRXwucC6kkwvtN9LWeS+dgywTq0caZk08P
Fbv41k+wntv18cyhnfDYmyZXUu5INOjlAgMBAAGjggEbMIIBFzBtBggrBgEFBQcB
AQRhMF8wLgYIKwYBBQUHMAKGImh0dHA6Ly9zdWItY2EubG9jYWxob3N0L3N1Yi1j
YS5jcnQwLQYIKwYBBQUHMAGGIWh0dHA6Ly9vY3NwLnN1Yi1jYS5sb2NhbGhvc3Q6
OTA4MTAfBgNVHSMEGDAWgBQgTvCzHr+8HzVqxXCOoNhw1dFXRDAMBgNVHRMBAf8E
AjAAMDMGA1UdHwQsMCowKKAmoCSGImh0dHA6Ly9zdWItY2EubG9jYWxob3N0L3N1
Yi1jYS5jcmwwEwYDVR0lBAwwCgYIKwYBBQUHAwIwDgYDVR0PAQH/BAQDAgeAMB0G
A1UdDgQWBBTSbxUYoaasi8pOM+RaUum6YCdheDANBgkqhkiG9w0BAQsFAAOCAQEA
NqsFyGOZ95yWJrrIHLDVUK95WoIKtVu1HydyddwNbijRgcql1mx4IG8TPe/SH63w
a4ZHRqt7qFvaGW6TjdrMInGLkCN2jKB/SvLlOSenAVunJSUbOKAw6FzlsfrJc00X
lX/tdL+iopvIFtT5zpkyFF+zMciodSjmFTPHGKWSpVBe8U7naZ97SU7/BHrBSRHb
GVP1zgnaFjySEzizlmJ1b51Fy/gj3P81yGDPCJjCHQM1jFpk3nP+pTfxr5gTbOi/
6jYf6/TuNGXdoL8TDEy+pZ6Aq1uWb3Tjkjedk9xqovfUmDgMI0VzGSyKMMekGhgq
BC1gY1tcrk+fhM1XQeEtYA==
-----END CERTIFICATE-----
