Certificate:
    Data:
        Version: 3 (0x2)
        Serial Number:
            c8:b0:ee:f0:24:01:d7:8a:1d:14:40:3b:90:ff:47:20
        Signature Algorithm: sha256WithRSAEncryption
        Issuer: C=US, O=Portland State University, CN=Sub CA
        Validity
            Not Before: Jun 19 16:06:12 2023 GMT
            Not After : Jun 16 16:06:12 2033 GMT
        Subject: C=US, O=Portland State University, CN=Sub CA
        Subject Public Key Info:
            Public Key Algorithm: rsaEncryption
                Public-Key: (2048 bit)
                Modulus:
                    00:a9:ec:0f:24:73:72:20:5e:95:fa:ae:03:ab:11:
                    d2:73:20:e6:d3:ea:ae:c7:af:e0:e4:85:d8:d0:4a:
                    d2:19:b2:61:8c:19:d3:4c:6c:2a:7c:7d:d2:ab:1c:
                    d3:aa:e7:43:8f:64:59:b6:32:b3:65:c4:d4:5b:00:
                    5c:a9:78:17:85:47:09:3b:54:75:a7:2f:e2:63:5b:
                    2b:a5:ee:b7:ae:fc:a0:43:d0:34:8c:83:71:6e:40:
                    58:c3:ff:25:4f:36:7c:65:fd:b1:7c:6a:91:a6:93:
                    b7:07:c3:53:ea:a5:4f:f3:f2:b2:a0:a7:fb:19:65:
                    09:d4:9a:9d:da:72:11:09:9e:d1:ac:78:6f:cc:9c:
                    4a:37:fe:c1:a1:ce:22:27:a0:0c:51:4b:5d:b5:1e:
                    a6:e5:6b:bb:78:f1:ed:fe:b9:fd:3f:da:e2:9b:2d:
                    ca:0f:41:b5:47:e7:ae:5a:44:65:23:18:1d:a5:e6:
                    9b:de:f4:ce:28:59:d3:42:d7:2c:42:79:5c:e7:80:
                    41:83:21:fe:18:f4:c7:16:55:e8:ed:db:23:7c:5f:
                    8f:86:b8:91:a0:82:d0:1e:dd:01:ff:81:b3:aa:5d:
                    08:8d:1e:35:66:d3:90:6c:08:8c:bd:89:98:f2:d5:
                    5c:cb:8d:d2:f3:db:98:a6:74:9d:fd:1d:1e:37:2c:
                    6d:a9
                Exponent: 65537 (0x10001)
        X509v3 extensions:
            Authority Information Access: 
                CA Issuers - URI:http://sub-ca.localhost/sub-ca.crt
                OCSP - URI:http://ocsp.sub-ca.localhost:9081
            X509v3 Authority Key Identifier: 
                4D:A1:8D:85:C1:C1:ED:E8:9A:39:B5:05:2D:3B:72:88:8F:77:D0:82
            X509v3 Basic Constraints: critical
                CA:FALSE
            X509v3 CRL Distribution Points: 
                Full Name:
                  URI:http://sub-ca.localhost/sub-ca.crl
            X509v3 Extended Key Usage: 
                TLS Web Client Authentication
            X509v3 Key Usage: critical
                Digital Signature
            X509v3 Subject Key Identifier: 
                BA:AA:76:49:EF:4B:8D:55:F4:33:9A:1F:07:7B:51:D3:0C:F3:91:EB
    Signature Algorithm: sha256WithRSAEncryption
    Signature Value:
        25:48:d0:94:01:7b:ee:15:1e:9e:6e:b3:db:24:d6:f4:da:5e:
        85:21:41:00:d7:4a:d5:79:67:73:ab:9b:ad:8b:fc:e3:a4:3b:
        a0:83:6b:d1:d3:c8:5c:32:6f:f5:2e:45:00:dd:ee:d3:7c:7f:
        a8:72:a2:6a:2e:c6:9b:6b:fe:90:5b:ab:65:dc:91:cc:e9:03:
        cb:2c:bd:91:0a:9e:38:15:66:05:c0:f3:a8:58:0b:b3:17:26:
        fd:6f:a6:e5:c2:9f:c9:7c:3c:17:91:ed:b3:71:9b:cd:88:35:
        e5:a1:69:ba:6c:29:52:f3:d2:f9:41:15:ce:10:c7:8f:f5:c5:
        9c:c3:11:fa:57:22:f6:d3:9a:0c:e8:d1:f0:1a:e7:14:ab:44:
        19:9d:2e:3e:2b:8b:3a:e9:9c:db:fd:52:0f:24:8e:b7:08:d6:
        09:10:4f:40:c2:b0:91:3c:12:76:34:b6:90:3b:fd:ab:19:6e:
        45:c3:0d:3e:f6:11:f3:07:3f:9d:7a:f5:3a:d5:31:08:a0:ae:
        56:94:74:c8:22:23:30:0c:16:6f:78:3a:65:3e:97:a8:88:34:
        52:74:01:31:4d:db:8a:7b:35:59:1b:1d:36:d1:98:f2:53:d4:
        df:89:37:23:b2:f1:52:99:f6:6f:af:4e:3e:9b:5e:62:14:5f:
        24:f2:98:66
-----BEGIN CERTIFICATE-----
MIIELDCCAxSgAwIBAgIRAMiw7vAkAdeKHRRAO5D/RyAwDQYJKoZIhvcNAQELBQAw
QjELMAkGA1UEBhMCVVMxIjAgBgNVBAoMGVBvcnRsYW5kIFN0YXRlIFVuaXZlcnNp
dHkxDzANBgNVBAMMBlN1YiBDQTAeFw0yMzA2MTkxNjA2MTJaFw0zMzA2MTYxNjA2
MTJaMEIxCzAJBgNVBAYTAlVTMSIwIAYDVQQKDBlQb3J0bGFuZCBTdGF0ZSBVbml2
ZXJzaXR5MQ8wDQYDVQQDDAZTdWIgQ0EwggEiMA0GCSqGSIb3DQEBAQUAA4IBDwAw
ggEKAoIBAQCp7A8kc3IgXpX6rgOrEdJzIObT6q7Hr+DkhdjQStIZsmGMGdNMbCp8
fdKrHNOq50OPZFm2MrNlxNRbAFypeBeFRwk7VHWnL+JjWyul7reu/KBD0DSMg3Fu
QFjD/yVPNnxl/bF8apGmk7cHw1PqpU/z8rKgp/sZZQnUmp3achEJntGseG/MnEo3
/sGhziInoAxRS121Hqbla7t48e3+uf0/2uKbLcoPQbVH565aRGUjGB2l5pve9M4o
WdNC1yxCeVzngEGDIf4Y9McWVejt2yN8X4+GuJGggtAe3QH/gbOqXQiNHjVm05Bs
CIy9iZjy1VzLjdLz25imdJ39HR43LG2pAgMBAAGjggEbMIIBFzBtBggrBgEFBQcB
AQRhMF8wLgYIKwYBBQUHMAKGImh0dHA6Ly9zdWItY2EubG9jYWxob3N0L3N1Yi1j
YS5jcnQwLQYIKwYBBQUHMAGGIWh0dHA6Ly9vY3NwLnN1Yi1jYS5sb2NhbGhvc3Q6
OTA4MTAfBgNVHSMEGDAWgBRNoY2FwcHt6Jo5tQUtO3KIj3fQgjAMBgNVHRMBAf8E
AjAAMDMGA1UdHwQsMCowKKAmoCSGImh0dHA6Ly9zdWItY2EubG9jYWxob3N0L3N1
Yi1jYS5jcmwwEwYDVR0lBAwwCgYIKwYBBQUHAwIwDgYDVR0PAQH/BAQDAgeAMB0G
A1UdDgQWBBS6qnZJ70uNVfQzmh8He1HTDPOR6zANBgkqhkiG9w0BAQsFAAOCAQEA
JUjQlAF77hUenm6z2yTW9NpehSFBANdK1Xlnc6ubrYv846Q7oINr0dPIXDJv9S5F
AN3u03x/qHKiai7Gm2v+kFurZdyRzOkDyyy9kQqeOBVmBcDzqFgLsxcm/W+m5cKf
yXw8F5Hts3GbzYg15aFpumwpUvPS+UEVzhDHj/XFnMMR+lci9tOaDOjR8BrnFKtE
GZ0uPiuLOumc2/1SDySOtwjWCRBPQMKwkTwSdjS2kDv9qxluRcMNPvYR8wc/nXr1
OtUxCKCuVpR0yCIjMAwWb3g6ZT6XqIg0UnQBMU3bins1WRsdNtGY8lPU34k3I7Lx
Upn2b69OPpteYhRfJPKYZg==
-----END CERTIFICATE-----
