Certificate:
    Data:
        Version: 3 (0x2)
        Serial Number:
            c8:b0:ee:f0:24:01:d7:8a:1d:14:40:3b:90:ff:46:fc
        Signature Algorithm: sha256WithRSAEncryption
        Issuer: C=US, O=Portland State University, CN=Sub CA
        Validity
            Not Before: Jun 19 16:06:07 2023 GMT
            Not After : Jun 16 16:06:07 2033 GMT
        Subject: C=US, O=Portland State University, CN=Sub CA
        Subject Public Key Info:
            Public Key Algorithm: rsaEncryption
                Public-Key: (2048 bit)
                Modulus:
                    00:b1:0d:9f:29:87:19:b1:20:45:10:b7:2f:1c:83:
                    bf:34:95:12:5a:56:8b:26:69:cb:28:40:ee:7e:35:
                    ef:3c:3d:85:16:b9:77:a0:ed:df:5b:c7:f8:b2:e2:
                    f4:4c:88:c5:17:1f:e0:41:0d:17:9e:09:da:be:33:
                    9d:f4:99:5b:77:62:37:3e:c8:5e:c6:10:95:b5:02:
                    52:a5:79:c6:57:e6:30:fb:96:ae:e7:48:ca:a7:9b:
                    f4:c7:52:84:2c:08:73:63:05:25:00:79:3b:9e:bc:
                    6d:88:ce:a2:d0:b7:0b:f0:c4:b5:99:a7:ea:c5:3f:
                    56:b8:df:62:33:b0:22:43:44:0e:dd:6e:3a:cc:48:
                    80:73:05:f7:95:2b:4a:0a:f7:4b:6d:7f:1b:a7:9d:
                    d1:5e:a5:1e:1c:40:c5:d2:bf:41:e3:84:44:a3:12:
                    21:8e:d4:2d:e1:6b:9f:26:63:5f:79:14:04:0e:e6:
                    e1:b0:95:a6:f2:d5:9d:25:56:ae:19:de:db:c9:05:
                    e1:05:18:23:6b:6c:0e:4f:51:3a:3d:fa:c1:30:ac:
                    57:86:ae:1f:dd:13:18:1c:02:a7:70:e3:74:53:ae:
                    7f:56:a0:3a:e2:6e:f0:ca:5d:45:81:b6:e8:2c:9f:
                    92:10:55:88:3c:77:fb:e6:92:ff:b9:99:da:37:c1:
                    63:a9
                Exponent: 65537 (0x10001)
        X509v3 extensions:
            Authority Information Access: 
                CA Issuers - URI:http://sub-ca.localhost/sub-ca.crt
                OCSP - URI:http://ocsp.sub-ca.localhost:9081
            X509v3 Authority Key Identifier: 
                4D:A1:8D:85:C1:C1:ED:E8:9A:39:B5:05:2D:3B:72:88:8F:77:D0:82
            X509v3 Basic Constraints: critical
                CA:FALSE
            X509v3 CRL Distribution Points: 
                Full Name:
                  URI:http://sub-ca.localhost/sub-ca.crl
            X509v3 Extended Key Usage: 
                TLS Web Client Authentication
            X509v3 Key Usage: critical
                Digital Signature
            X509v3 Subject Key Identifier: 
                FD:25:A8:A7:EB:75:44:E4:79:89:A3:67:23:3F:08:BA:46:82:12:65
    Signature Algorithm: sha256WithRSAEncryption
    Signature Value:
        89:bd:84:92:0e:21:cc:9a:fc:f8:6d:38:df:8b:ca:0f:08:18:
        5d:b9:82:b3:ec:9a:e8:9b:c4:5b:35:c2:60:23:ab:98:a1:15:
        4b:3e:61:06:eb:62:91:f4:f5:42:3d:81:48:77:f7:08:c6:ce:
        2d:26:a7:59:50:a8:4b:3c:ae:0c:6f:01:ce:8d:2b:60:04:b3:
        c0:36:01:18:8d:4b:22:6c:0c:8d:bb:b8:e6:6a:36:e7:a0:38:
        34:43:3a:8d:83:a2:63:39:2f:dc:3d:5d:0b:af:f1:0d:5c:1d:
        d1:33:a9:ca:6b:d1:6c:06:09:35:e4:22:25:8c:91:99:55:1c:
        02:36:e0:b8:99:99:1a:a5:8e:1a:c6:9d:29:16:70:47:46:65:
        1f:fc:08:b8:a0:71:5b:3d:78:6a:c1:4f:28:0a:cd:3a:cc:8b:
        9c:ec:28:d9:45:47:9f:57:2b:fd:5e:56:d5:bb:9c:f5:40:96:
        32:c6:bd:9a:2c:ea:59:b4:0e:98:ff:49:84:17:55:9d:b9:89:
        0e:27:81:c0:cc:45:b2:8c:22:7e:9f:94:ab:46:da:e7:6d:ed:
        25:17:02:32:f6:14:82:8a:f0:a9:8c:40:d6:1b:80:3f:41:0e:
        20:6b:c0:a6:8e:17:19:e7:2f:14:93:e4:60:68:a8:d8:b8:38:
        81:07:52:17
-----BEGIN CERTIFICATE-----
MIIELDCCAxSgAwIBAgIRAMiw7vAkAdeKHRRAO5D/RvwwDQYJKoZIhvcNAQELBQAw
QjELMAkGA1UEBhMCVVMxIjAgBgNVBAoMGVBvcnRsYW5kIFN0YXRlIFVuaXZlcnNp
dHkxDzANBgNVBAMMBlN1YiBDQTAeFw0yMzA2MTkxNjA2MDdaFw0zMzA2MTYxNjA2
MDdaMEIxCzAJBgNVBAYTAlVTMSIwIAYDVQQKDBlQb3J0bGFuZCBTdGF0ZSBVbml2
ZXJzaXR5MQ8wDQYDVQQDDAZTdWIgQ0EwggEiMA0GCSqGSIb3DQEBAQUAA4IBDwAw
ggEKAoIBAQCxDZ8phxmxIEUQty8cg780lRJaVosmacsoQO5+Ne88PYUWuXeg7d9b
x/iy4vRMiMUXH+BBDReeCdq+M530mVt3Yjc+yF7GEJW1AlKlecZX5jD7lq7nSMqn
m/THUoQsCHNjBSUAeTuevG2IzqLQtwvwxLWZp+rFP1a432IzsCJDRA7dbjrMSIBz
BfeVK0oK90ttfxunndFepR4cQMXSv0HjhESjEiGO1C3ha58mY195FAQO5uGwlaby
1Z0lVq4Z3tvJBeEFGCNrbA5PUTo9+sEwrFeGrh/dExgcAqdw43RTrn9WoDribvDK
XUWBtugsn5IQVYg8d/vmkv+5mdo3wWOpAgMBAAGjggEbMIIBFzBtBggrBgEFBQcB
AQRhMF8wLgYIKwYBBQUHMAKGImh0dHA6Ly9zdWItY2EubG9jYWxob3N0L3N1Yi1j
YS5jcnQwLQYIKwYBBQUHMAGGIWh0dHA6Ly9vY3NwLnN1Yi1jYS5sb2NhbGhvc3Q6
OTA4MTAfBgNVHSMEGDAWgBRNoY2FwcHt6Jo5tQUtO3KIj3fQgjAMBgNVHRMBAf8E
AjAAMDMGA1UdHwQsMCowKKAmoCSGImh0dHA6Ly9zdWItY2EubG9jYWxob3N0L3N1
Yi1jYS5jcmwwEwYDVR0lBAwwCgYIKwYBBQUHAwIwDgYDVR0PAQH/BAQDAgeAMB0G
A1UdDgQWBBT9Jain63VE5HmJo2cjPwi6RoISZTANBgkqhkiG9w0BAQsFAAOCAQEA
ib2Ekg4hzJr8+G0434vKDwgYXbmCs+ya6JvEWzXCYCOrmKEVSz5hButikfT1Qj2B
SHf3CMbOLSanWVCoSzyuDG8Bzo0rYASzwDYBGI1LImwMjbu45mo256A4NEM6jYOi
Yzkv3D1dC6/xDVwd0TOpymvRbAYJNeQiJYyRmVUcAjbguJmZGqWOGsadKRZwR0Zl
H/wIuKBxWz14asFPKArNOsyLnOwo2UVHn1cr/V5W1buc9UCWMsa9mizqWbQOmP9J
hBdVnbmJDieBwMxFsowifp+Uq0ba523tJRcCMvYUgorwqYxA1huAP0EOIGvApo4X
GecvFJPkYGio2Lg4gQdSFw==
-----END CERTIFICATE-----
