Certificate:
    Data:
        Version: 3 (0x2)
        Serial Number:
            c8:b0:ee:f0:24:01:d7:8a:1d:14:40:3b:90:ff:47:13
        Signature Algorithm: sha256WithRSAEncryption
        Issuer: C=US, O=Portland State University, CN=Sub CA
        Validity
            Not Before: Jun 19 16:06:10 2023 GMT
            Not After : Jun 16 16:06:10 2033 GMT
        Subject: C=US, O=Portland State University, CN=Sub CA
        Subject Public Key Info:
            Public Key Algorithm: rsaEncryption
                Public-Key: (2048 bit)
                Modulus:
                    00:bd:e3:2a:2b:98:4a:00:f2:fb:72:a8:82:31:48:
                    e6:c3:ee:3e:e4:94:ce:a4:0e:6f:13:c6:5a:d2:e3:
                    95:14:0c:1a:53:e2:d4:0b:b2:85:d6:01:2a:1d:18:
                    89:d0:bf:d8:36:85:22:80:d5:30:61:3a:9c:86:d6:
                    f9:10:e9:7d:a6:43:05:f7:d8:db:a8:47:0d:9e:e9:
                    00:51:08:2f:44:46:f0:fb:52:46:1a:09:d3:3d:1e:
                    7e:b8:b1:82:da:6a:2d:22:97:19:fa:86:ba:00:51:
                    cb:62:a0:9c:c7:f9:03:82:11:81:39:2e:4d:57:96:
                    06:c4:3c:fd:a5:30:d8:74:65:36:e9:f2:90:e9:88:
                    1d:bb:d9:f5:d9:13:71:f9:a6:89:4b:97:30:a1:7c:
                    0a:14:e0:c5:a4:6b:44:85:58:35:46:a9:33:ca:4e:
                    a9:53:79:26:7b:80:44:8e:59:20:7b:a3:8f:91:85:
                    fe:97:61:a0:9a:e3:73:b9:2e:c7:0b:58:4f:99:7a:
                    56:23:28:bc:d4:83:c6:5d:6d:a3:15:48:73:e9:79:
                    63:6f:89:8f:42:d2:1d:fc:83:6c:87:02:cb:20:76:
                    b6:e6:c0:fc:d3:7e:86:c8:f3:f8:82:06:23:19:3e:
                    e5:34:6e:6f:01:63:74:48:ad:9f:97:b3:11:df:5e:
                    70:f1
                Exponent: 65537 (0x10001)
        X509v3 extensions:
            Authority Information Access: 
                CA Issuers - URI:http://sub-ca.localhost/sub-ca.crt
                OCSP - URI:http://ocsp.sub-ca.localhost:9081
            X509v3 Authority Key Identifier: 
                4D:A1:8D:85:C1:C1:ED:E8:9A:39:B5:05:2D:3B:72:88:8F:77:D0:82
            X509v3 Basic Constraints: critical
                CA:FALSE
            X509v3 CRL Distribution Points: 
                Full Name:
                  URI:http://sub-ca.localhost/sub-ca.crl
            X509v3 Extended Key Usage: 
                TLS Web Client Authentication
            X509v3 Key Usage: critical
                Digital Signature
            X509v3 Subject Key Identifier: 
                6D:97:84:92:00:4A:E3:45:66:B7:FC:72:47:D9:7D:43:C8:70:7F:04
    Signature Algorithm: sha256WithRSAEncryption
    Signature Value:
        6a:8d:77:97:ee:c8:74:0c:1a:5a:a0:8f:60:82:a8:f9:49:4e:
        cd:9f:4f:32:d8:29:43:8c:a2:5a:5d:09:60:05:5c:12:88:0a:
        ad:f4:a7:8e:fa:20:15:99:b4:55:7f:6c:7d:b3:e4:cb:a7:36:
        df:b5:68:60:82:15:55:76:46:f2:79:bc:fd:bd:fe:9e:11:78:
        be:cc:db:70:c4:e7:d4:7a:e0:7d:c6:3e:f3:87:bf:99:c6:3d:
        bf:8f:28:6c:c6:b4:77:9f:ae:3a:c1:10:6b:ca:b0:75:8a:97:
        32:74:df:af:98:41:04:e9:04:fa:99:ad:13:f0:41:07:d7:f7:
        91:6e:1b:96:7e:7d:26:ec:8e:e5:fc:d7:95:11:e8:35:e8:05:
        68:37:b8:dc:35:fc:b0:02:32:5e:bd:9f:d2:da:d3:a8:8e:8c:
        cb:da:67:cf:51:ec:9e:c5:f5:66:fd:6c:35:32:0f:1e:96:0b:
        99:5c:88:be:29:9a:d2:5c:2b:54:4c:81:f4:2b:2e:27:32:00:
        26:c2:db:4b:33:39:8c:05:37:17:fe:cd:2a:87:5d:4e:3f:de:
        d9:28:89:08:2d:29:66:38:44:ae:aa:29:ce:4c:37:b2:d0:43:
        b2:f8:52:08:ca:66:ed:8d:c4:4a:70:94:c5:72:6d:fd:5c:85:
        3a:57:d5:71
-----BEGIN CERTIFICATE-----
MIIELDCCAxSgAwIBAgIRAMiw7vAkAdeKHRRAO5D/RxMwDQYJKoZIhvcNAQELBQAw
QjELMAkGA1UEBhMCVVMxIjAgBgNVBAoMGVBvcnRsYW5kIFN0YXRlIFVuaXZlcnNp
dHkxDzANBgNVBAMMBlN1YiBDQTAeFw0yMzA2MTkxNjA2MTBaFw0zMzA2MTYxNjA2
MTBaMEIxCzAJBgNVBAYTAlVTMSIwIAYDVQQKDBlQb3J0bGFuZCBTdGF0ZSBVbml2
ZXJzaXR5MQ8wDQYDVQQDDAZTdWIgQ0EwggEiMA0GCSqGSIb3DQEBAQUAA4IBDwAw
ggEKAoIBAQC94yormEoA8vtyqIIxSObD7j7klM6kDm8TxlrS45UUDBpT4tQLsoXW
ASodGInQv9g2hSKA1TBhOpyG1vkQ6X2mQwX32NuoRw2e6QBRCC9ERvD7UkYaCdM9
Hn64sYLaai0ilxn6hroAUctioJzH+QOCEYE5Lk1XlgbEPP2lMNh0ZTbp8pDpiB27
2fXZE3H5polLlzChfAoU4MWka0SFWDVGqTPKTqlTeSZ7gESOWSB7o4+Rhf6XYaCa
43O5LscLWE+ZelYjKLzUg8ZdbaMVSHPpeWNviY9C0h38g2yHAssgdrbmwPzTfobI
8/iCBiMZPuU0bm8BY3RIrZ+XsxHfXnDxAgMBAAGjggEbMIIBFzBtBggrBgEFBQcB
AQRhMF8wLgYIKwYBBQUHMAKGImh0dHA6Ly9zdWItY2EubG9jYWxob3N0L3N1Yi1j
YS5jcnQwLQYIKwYBBQUHMAGGIWh0dHA6Ly9vY3NwLnN1Yi1jYS5sb2NhbGhvc3Q6
OTA4MTAfBgNVHSMEGDAWgBRNoY2FwcHt6Jo5tQUtO3KIj3fQgjAMBgNVHRMBAf8E
AjAAMDMGA1UdHwQsMCowKKAmoCSGImh0dHA6Ly9zdWItY2EubG9jYWxob3N0L3N1
Yi1jYS5jcmwwEwYDVR0lBAwwCgYIKwYBBQUHAwIwDgYDVR0PAQH/BAQDAgeAMB0G
A1UdDgQWBBRtl4SSAErjRWa3/HJH2X1DyHB/BDANBgkqhkiG9w0BAQsFAAOCAQEA
ao13l+7IdAwaWqCPYIKo+UlOzZ9PMtgpQ4yiWl0JYAVcEogKrfSnjvogFZm0VX9s
fbPky6c237VoYIIVVXZG8nm8/b3+nhF4vszbcMTn1HrgfcY+84e/mcY9v48obMa0
d5+uOsEQa8qwdYqXMnTfr5hBBOkE+pmtE/BBB9f3kW4bln59JuyO5fzXlRHoNegF
aDe43DX8sAIyXr2f0trTqI6My9pnz1HsnsX1Zv1sNTIPHpYLmVyIvima0lwrVEyB
9CsuJzIAJsLbSzM5jAU3F/7NKoddTj/e2SiJCC0pZjhErqopzkw3stBDsvhSCMpm
7Y3ESnCUxXJt/VyFOlfVcQ==
-----END CERTIFICATE-----
