Certificate:
    Data:
        Version: 3 (0x2)
        Serial Number:
            90:4c:66:1b:96:18:b9:99:11:ea:e2:b7:9b:98:cf:f2
        Signature Algorithm: sha256WithRSAEncryption
        Issuer: C=US, O=Portland State University, CN=Sub CA
        Validity
            Not Before: Apr  5 20:37:24 2022 GMT
            Not After : Apr  5 20:37:24 2023 GMT
        Subject: C=US, O=Portland State University, CN=Sub CA
        Subject Public Key Info:
            Public Key Algorithm: rsaEncryption
                RSA Public-Key: (2048 bit)
                Modulus:
                    00:ab:82:1b:a5:f1:f8:42:94:3f:21:82:fb:91:50:
                    f7:c0:c4:99:e9:61:7e:0c:5b:f3:64:45:f6:58:78:
                    02:73:a7:f3:ec:f1:b8:2f:47:85:a5:9b:e9:8e:13:
                    44:10:21:f6:78:92:e1:57:80:93:0c:7a:4b:ef:be:
                    8f:57:3c:d6:73:c5:87:c1:4b:a3:1b:27:90:84:96:
                    1c:40:20:42:3d:15:60:5d:ef:80:87:da:26:33:60:
                    c0:98:0f:52:0b:44:e8:25:f0:4e:72:ad:e3:66:a5:
                    51:b6:79:0c:7f:d9:af:51:68:15:92:09:e7:51:88:
                    51:ad:82:c6:68:ba:2b:49:8a:94:83:7a:a8:4a:0b:
                    56:48:90:56:8a:f2:a6:cc:19:5f:55:ce:be:cc:e0:
                    4d:8a:a3:c5:0e:b6:ef:2f:a5:fc:ee:21:2e:ff:3a:
                    84:e4:02:75:e2:9c:42:9d:f1:9c:59:7e:22:0a:93:
                    35:93:d5:da:ea:8d:51:cd:27:90:40:1a:28:c5:57:
                    b8:3b:4e:3a:9a:cf:18:92:b0:15:f6:16:67:e7:f6:
                    ca:0d:0b:8a:7a:f1:89:fc:7c:cb:f9:bc:1e:c6:da:
                    2a:ce:cc:b6:d7:84:b3:70:2c:0c:a9:a1:54:86:61:
                    65:56:db:82:5a:c6:ba:43:f5:26:31:3c:ce:f9:06:
                    32:91
                Exponent: 65537 (0x10001)
        X509v3 extensions:
            Authority Information Access: 
                CA Issuers - URI:http://sub-ca.localhost/sub-ca.crt
                OCSP - URI:http://ocsp.sub-ca.localhost:9081

            X509v3 Authority Key Identifier: 
                keyid:20:4E:F0:B3:1E:BF:BC:1F:35:6A:C5:70:8E:A0:D8:70:D5:D1:57:44

            X509v3 Basic Constraints: critical
                CA:FALSE
            X509v3 CRL Distribution Points: 

                Full Name:
                  URI:http://sub-ca.localhost/sub-ca.crl

            X509v3 Extended Key Usage: 
                TLS Web Client Authentication
            X509v3 Key Usage: critical
                Digital Signature
            X509v3 Subject Key Identifier: 
                4E:B0:DB:FF:ED:21:E1:B5:8A:13:B4:3A:46:21:2A:13:C1:B7:96:DA
    Signature Algorithm: sha256WithRSAEncryption
         25:13:b3:fa:ac:b9:6c:6e:b5:44:47:db:6b:de:4d:cc:74:bb:
         63:eb:b5:8b:0b:5b:98:ee:e5:1d:dc:1a:b6:85:8c:45:78:96:
         cc:87:3c:ff:1f:05:5b:40:c0:9b:91:37:db:08:73:0e:cb:7c:
         96:49:9a:ca:c1:d5:f2:d9:ce:9c:94:4a:9c:1f:5f:da:22:a6:
         8e:cc:f7:47:1a:88:8f:dc:26:3b:65:3b:57:d4:c3:93:bb:31:
         bd:10:38:62:1a:d6:25:bf:b6:e6:22:dd:10:5c:f5:fc:d1:f5:
         6b:4c:4e:c7:05:d0:60:b6:f7:48:49:8b:b1:3f:a5:19:f9:de:
         cb:aa:df:3a:67:6e:1f:5c:c9:97:f0:0c:38:1b:ef:c0:9f:5c:
         cc:2a:11:68:86:c6:35:6c:a5:d0:45:40:e9:01:67:db:f6:a6:
         0b:43:48:b7:0e:dc:cd:5f:3f:ef:80:15:16:4f:46:e6:a1:90:
         7d:7a:23:11:ae:dc:2d:20:09:b2:70:c6:36:06:56:25:82:44:
         9e:2a:4e:88:21:46:fe:d0:26:80:60:4e:0e:bf:1d:74:e3:32:
         af:b3:33:76:d9:fe:53:86:42:02:83:13:96:06:20:9a:c0:22:
         d7:72:7a:91:65:f0:9e:60:c3:fe:13:8d:2a:6e:f7:c9:75:a4:
         45:08:49:cf
-----BEGIN CERTIFICATE-----
MIIELDCCAxSgAwIBAgIRAJBMZhuWGLmZEerit5uYz/IwDQYJKoZIhvcNAQELBQAw
QjELMAkGA1UEBhMCVVMxIjAgBgNVBAoMGVBvcnRsYW5kIFN0YXRlIFVuaXZlcnNp
dHkxDzANBgNVBAMMBlN1YiBDQTAeFw0yMjA0MDUyMDM3MjRaFw0yMzA0MDUyMDM3
MjRaMEIxCzAJBgNVBAYTAlVTMSIwIAYDVQQKDBlQb3J0bGFuZCBTdGF0ZSBVbml2
ZXJzaXR5MQ8wDQYDVQQDDAZTdWIgQ0EwggEiMA0GCSqGSIb3DQEBAQUAA4IBDwAw
ggEKAoIBAQCrghul8fhClD8hgvuRUPfAxJnpYX4MW/NkRfZYeAJzp/Ps8bgvR4Wl
m+mOE0QQIfZ4kuFXgJMMekvvvo9XPNZzxYfBS6MbJ5CElhxAIEI9FWBd74CH2iYz
YMCYD1ILROgl8E5yreNmpVG2eQx/2a9RaBWSCedRiFGtgsZouitJipSDeqhKC1ZI
kFaK8qbMGV9Vzr7M4E2Ko8UOtu8vpfzuIS7/OoTkAnXinEKd8ZxZfiIKkzWT1drq
jVHNJ5BAGijFV7g7TjqazxiSsBX2Fmfn9soNC4p68Yn8fMv5vB7G2irOzLbXhLNw
LAypoVSGYWVW24JaxrpD9SYxPM75BjKRAgMBAAGjggEbMIIBFzBtBggrBgEFBQcB
AQRhMF8wLgYIKwYBBQUHMAKGImh0dHA6Ly9zdWItY2EubG9jYWxob3N0L3N1Yi1j
YS5jcnQwLQYIKwYBBQUHMAGGIWh0dHA6Ly9vY3NwLnN1Yi1jYS5sb2NhbGhvc3Q6
OTA4MTAfBgNVHSMEGDAWgBQgTvCzHr+8HzVqxXCOoNhw1dFXRDAMBgNVHRMBAf8E
AjAAMDMGA1UdHwQsMCowKKAmoCSGImh0dHA6Ly9zdWItY2EubG9jYWxob3N0L3N1
Yi1jYS5jcmwwEwYDVR0lBAwwCgYIKwYBBQUHAwIwDgYDVR0PAQH/BAQDAgeAMB0G
A1UdDgQWBBROsNv/7SHhtYoTtDpGISoTwbeW2jANBgkqhkiG9w0BAQsFAAOCAQEA
JROz+qy5bG61REfba95NzHS7Y+u1iwtbmO7lHdwatoWMRXiWzIc8/x8FW0DAm5E3
2whzDst8lkmaysHV8tnOnJRKnB9f2iKmjsz3RxqIj9wmO2U7V9TDk7sxvRA4YhrW
Jb+25iLdEFz1/NH1a0xOxwXQYLb3SEmLsT+lGfney6rfOmduH1zJl/AMOBvvwJ9c
zCoRaIbGNWyl0EVA6QFn2/amC0NItw7czV8/74AVFk9G5qGQfXojEa7cLSAJsnDG
NgZWJYJEnipOiCFG/tAmgGBODr8ddOMyr7Mzdtn+U4ZCAoMTlgYgmsAi13J6kWXw
nmDD/hONKm73yXWkRQhJzw==
-----END CERTIFICATE-----
