Certificate:
    Data:
        Version: 3 (0x2)
        Serial Number:
            c8:b0:ee:f0:24:01:d7:8a:1d:14:40:3b:90:ff:46:ff
        Signature Algorithm: sha256WithRSAEncryption
        Issuer: C=US, O=Portland State University, CN=Sub CA
        Validity
            Not Before: Jun 19 16:06:07 2023 GMT
            Not After : Jun 16 16:06:07 2033 GMT
        Subject: C=US, O=Portland State University, CN=Sub CA
        Subject Public Key Info:
            Public Key Algorithm: rsaEncryption
                Public-Key: (2048 bit)
                Modulus:
                    00:da:5b:39:68:0d:08:15:1c:cd:6b:80:d6:7f:c9:
                    f7:1b:ea:4c:0f:0a:f7:7a:60:2a:be:1f:b9:5b:83:
                    e9:6a:55:a3:bd:b6:70:88:7e:e5:aa:16:c8:cd:0c:
                    85:cb:9a:5f:9b:8f:f5:6d:45:1d:97:be:a8:ff:11:
                    40:08:e2:2d:f1:89:e9:c0:0c:e8:ea:84:0a:4c:a7:
                    5a:b3:45:47:0e:1f:e3:58:3a:70:eb:10:54:2e:4c:
                    48:88:d2:1b:22:7e:55:96:62:12:0e:c9:9a:2f:6d:
                    da:c9:9c:e8:86:44:a8:b9:cb:e0:f9:b9:25:7f:76:
                    4e:22:45:12:61:c6:71:78:a3:9f:14:86:b5:c5:59:
                    7b:c1:22:02:82:e2:93:67:ae:98:1f:4a:78:b1:90:
                    62:ca:a0:88:67:72:41:e3:47:82:66:71:37:c0:6a:
                    c4:19:24:47:f7:8e:d4:b0:bc:5a:62:4e:80:ea:8c:
                    86:73:d7:60:ea:1b:bf:80:2e:39:df:98:82:79:2a:
                    89:d3:28:1c:b1:68:12:aa:29:cf:9e:f3:e5:76:64:
                    bc:b4:9b:57:6f:2a:70:cd:a2:59:48:7d:96:8b:cd:
                    8c:68:ad:13:89:42:e3:6c:24:ae:2f:52:f3:51:09:
                    9d:63:8c:db:5c:0c:39:09:35:86:08:13:eb:4b:1b:
                    34:35
                Exponent: 65537 (0x10001)
        X509v3 extensions:
            Authority Information Access: 
                CA Issuers - URI:http://sub-ca.localhost/sub-ca.crt
                OCSP - URI:http://ocsp.sub-ca.localhost:9081
            X509v3 Authority Key Identifier: 
                4D:A1:8D:85:C1:C1:ED:E8:9A:39:B5:05:2D:3B:72:88:8F:77:D0:82
            X509v3 Basic Constraints: critical
                CA:FALSE
            X509v3 CRL Distribution Points: 
                Full Name:
                  URI:http://sub-ca.localhost/sub-ca.crl
            X509v3 Extended Key Usage: 
                TLS Web Client Authentication
            X509v3 Key Usage: critical
                Digital Signature
            X509v3 Subject Key Identifier: 
                B4:86:27:57:3A:A3:3E:97:E2:56:96:80:FA:11:0B:6A:E8:DA:54:F4
    Signature Algorithm: sha256WithRSAEncryption
    Signature Value:
        89:9e:6d:54:14:8c:3a:6e:f7:d0:a9:b9:eb:0f:81:f8:c8:08:
        55:0c:15:50:63:fa:f4:17:2b:ca:56:69:86:07:4a:3b:f8:02:
        b3:f3:e3:1f:5e:6f:a9:22:86:bb:bc:de:b2:6f:99:a3:fc:61:
        98:4e:2d:9c:45:18:da:e6:87:92:4d:a2:48:f0:33:51:fd:01:
        dd:f0:96:7d:fb:8c:8d:5a:56:e9:43:ce:ac:5a:bc:16:e5:36:
        cd:2d:4f:0f:93:03:af:1a:d1:4c:d9:ca:64:77:4f:ed:95:84:
        b4:3b:33:79:b4:3b:0e:d2:ec:a0:ca:b4:b8:85:52:db:7c:e4:
        0e:49:ba:90:6b:2e:b8:3d:d5:f5:4d:f6:b6:e1:ba:56:70:2f:
        23:24:cb:00:b1:5c:b8:9b:de:65:59:32:43:68:5a:6b:52:a1:
        92:33:66:a9:87:65:78:f9:5a:65:52:b9:8e:19:bb:be:00:0c:
        60:3c:24:b2:e9:b7:10:6a:9a:48:1f:38:6e:6a:6b:45:18:4e:
        7d:bb:e8:58:8d:68:cf:01:9b:9d:c7:fa:f6:ef:a2:fe:12:00:
        54:7b:41:a0:6c:b8:0a:79:eb:6c:ba:e6:b8:2f:92:a6:5e:6a:
        a9:a1:f6:55:f8:f6:14:ab:7a:c5:8f:0e:7e:a2:b8:f5:f9:d9:
        c1:a5:b2:61
-----BEGIN CERTIFICATE-----
MIIELDCCAxSgAwIBAgIRAMiw7vAkAdeKHRRAO5D/Rv8wDQYJKoZIhvcNAQELBQAw
QjELMAkGA1UEBhMCVVMxIjAgBgNVBAoMGVBvcnRsYW5kIFN0YXRlIFVuaXZlcnNp
dHkxDzANBgNVBAMMBlN1YiBDQTAeFw0yMzA2MTkxNjA2MDdaFw0zMzA2MTYxNjA2
MDdaMEIxCzAJBgNVBAYTAlVTMSIwIAYDVQQKDBlQb3J0bGFuZCBTdGF0ZSBVbml2
ZXJzaXR5MQ8wDQYDVQQDDAZTdWIgQ0EwggEiMA0GCSqGSIb3DQEBAQUAA4IBDwAw
ggEKAoIBAQDaWzloDQgVHM1rgNZ/yfcb6kwPCvd6YCq+H7lbg+lqVaO9tnCIfuWq
FsjNDIXLml+bj/VtRR2Xvqj/EUAI4i3xienADOjqhApMp1qzRUcOH+NYOnDrEFQu
TEiI0hsiflWWYhIOyZovbdrJnOiGRKi5y+D5uSV/dk4iRRJhxnF4o58UhrXFWXvB
IgKC4pNnrpgfSnixkGLKoIhnckHjR4JmcTfAasQZJEf3jtSwvFpiToDqjIZz12Dq
G7+ALjnfmIJ5KonTKByxaBKqKc+e8+V2ZLy0m1dvKnDNollIfZaLzYxorROJQuNs
JK4vUvNRCZ1jjNtcDDkJNYYIE+tLGzQ1AgMBAAGjggEbMIIBFzBtBggrBgEFBQcB
AQRhMF8wLgYIKwYBBQUHMAKGImh0dHA6Ly9zdWItY2EubG9jYWxob3N0L3N1Yi1j
YS5jcnQwLQYIKwYBBQUHMAGGIWh0dHA6Ly9vY3NwLnN1Yi1jYS5sb2NhbGhvc3Q6
OTA4MTAfBgNVHSMEGDAWgBRNoY2FwcHt6Jo5tQUtO3KIj3fQgjAMBgNVHRMBAf8E
AjAAMDMGA1UdHwQsMCowKKAmoCSGImh0dHA6Ly9zdWItY2EubG9jYWxob3N0L3N1
Yi1jYS5jcmwwEwYDVR0lBAwwCgYIKwYBBQUHAwIwDgYDVR0PAQH/BAQDAgeAMB0G
A1UdDgQWBBS0hidXOqM+l+JWloD6EQtq6NpU9DANBgkqhkiG9w0BAQsFAAOCAQEA
iZ5tVBSMOm730Km56w+B+MgIVQwVUGP69BcrylZphgdKO/gCs/PjH15vqSKGu7ze
sm+Zo/xhmE4tnEUY2uaHkk2iSPAzUf0B3fCWffuMjVpW6UPOrFq8FuU2zS1PD5MD
rxrRTNnKZHdP7ZWEtDszebQ7DtLsoMq0uIVS23zkDkm6kGsuuD3V9U32tuG6VnAv
IyTLALFcuJveZVkyQ2haa1KhkjNmqYdlePlaZVK5jhm7vgAMYDwksum3EGqaSB84
bmprRRhOfbvoWI1ozwGbncf69u+i/hIAVHtBoGy4CnnrbLrmuC+Spl5qqaH2Vfj2
FKt6xY8OfqK49fnZwaWyYQ==
-----END CERTIFICATE-----
