Certificate:
    Data:
        Version: 3 (0x2)
        Serial Number:
            90:4c:66:1b:96:18:b9:99:11:ea:e2:b7:9b:98:cf:c8
        Signature Algorithm: sha256WithRSAEncryption
        Issuer: C=US, O=Portland State University, CN=Sub CA
        Validity
            Not Before: Apr  5 20:37:19 2022 GMT
            Not After : Apr  5 20:37:19 2023 GMT
        Subject: C=US, O=Portland State University, CN=Sub CA
        Subject Public Key Info:
            Public Key Algorithm: rsaEncryption
                RSA Public-Key: (2048 bit)
                Modulus:
                    00:a9:1f:28:6e:3c:3a:03:92:17:37:f7:47:bf:87:
                    bc:06:70:fe:68:00:bb:c1:88:3b:7d:7a:3a:48:d4:
                    25:06:4e:4c:0c:51:a9:b2:d9:f0:e3:ad:b6:22:59:
                    78:e8:a4:03:eb:ff:b4:72:61:19:3d:e2:ef:4b:b7:
                    1c:14:07:94:fb:64:65:66:d0:a8:32:3b:fa:34:fb:
                    31:68:41:e2:0d:c9:b2:3d:d9:7a:ed:9e:a6:a3:4f:
                    c7:18:7d:84:a2:54:78:6f:7f:bf:5e:23:e4:cb:cb:
                    0a:61:1a:f7:af:35:f9:51:c5:65:fc:d1:ef:80:79:
                    2b:00:cb:f2:b0:71:76:8a:7d:82:09:68:1f:c5:56:
                    dc:19:dd:1f:3a:79:0f:6d:72:94:53:7c:c8:5f:8b:
                    14:0b:a7:6a:8f:82:75:68:92:6a:59:90:67:15:43:
                    fb:86:c0:fe:a9:56:38:a1:89:43:37:da:54:ec:db:
                    c5:dd:4e:ac:84:a7:57:ae:37:af:92:b8:1c:c0:5c:
                    c7:e2:14:0d:8f:83:f1:45:2a:3c:6c:c8:f4:ab:a9:
                    c9:f0:d6:cf:35:07:3f:45:98:07:93:ef:5d:2d:3d:
                    c3:5d:32:f2:c4:21:f5:fd:61:7c:7f:a9:45:db:08:
                    89:31:14:69:3b:2a:ef:b5:ae:9b:d2:0a:7b:65:e4:
                    bf:73
                Exponent: 65537 (0x10001)
        X509v3 extensions:
            Authority Information Access: 
                CA Issuers - URI:http://sub-ca.localhost/sub-ca.crt
                OCSP - URI:http://ocsp.sub-ca.localhost:9081

            X509v3 Authority Key Identifier: 
                keyid:20:4E:F0:B3:1E:BF:BC:1F:35:6A:C5:70:8E:A0:D8:70:D5:D1:57:44

            X509v3 Basic Constraints: critical
                CA:FALSE
            X509v3 CRL Distribution Points: 

                Full Name:
                  URI:http://sub-ca.localhost/sub-ca.crl

            X509v3 Extended Key Usage: 
                TLS Web Client Authentication
            X509v3 Key Usage: critical
                Digital Signature
            X509v3 Subject Key Identifier: 
                E3:0E:B7:F9:77:B4:96:59:F6:2D:38:A8:4A:DA:14:F5:21:58:B0:A0
    Signature Algorithm: sha256WithRSAEncryption
         0d:bc:87:f4:cc:a5:75:26:a6:0c:52:6b:cc:44:e7:13:f3:60:
         0c:00:0f:00:30:85:c9:12:04:b2:1c:94:76:00:ad:d7:00:fd:
         1a:25:16:72:68:3b:a4:65:1c:2f:fb:a7:f1:1f:dc:34:0a:20:
         45:59:69:ef:a5:dd:86:59:0f:0a:91:60:03:59:7e:2c:59:da:
         46:7a:c6:42:9e:a4:52:92:9f:07:3b:0e:92:2c:b0:a8:79:8b:
         a5:16:43:32:d0:2e:cf:ef:cc:46:6d:5e:21:fd:0b:8f:48:d4:
         43:81:d8:71:2f:68:fb:f5:ed:1e:75:12:52:41:23:9b:76:84:
         38:c2:5e:7a:e6:1d:5b:13:4c:6e:09:27:84:a5:90:55:cf:4e:
         a0:35:f8:95:73:35:72:a0:50:1f:38:f8:b2:9d:3e:e1:46:2b:
         c2:34:c1:bb:da:f2:3b:8c:5a:8a:87:1c:36:fe:48:dd:06:1a:
         ff:66:52:e1:8b:b7:2f:25:79:82:0e:f2:c3:26:49:b9:85:84:
         ff:dd:02:21:5d:a4:a6:d0:62:e8:e7:17:a4:eb:05:8d:c6:a3:
         41:a1:ac:ad:60:b0:35:fc:7f:fc:b7:5c:10:7a:99:49:7b:2d:
         3b:7b:96:cc:77:22:c0:61:04:54:38:45:54:42:61:40:61:03:
         4b:f6:24:4f
-----BEGIN CERTIFICATE-----
MIIELDCCAxSgAwIBAgIRAJBMZhuWGLmZEerit5uYz8gwDQYJKoZIhvcNAQELBQAw
QjELMAkGA1UEBhMCVVMxIjAgBgNVBAoMGVBvcnRsYW5kIFN0YXRlIFVuaXZlcnNp
dHkxDzANBgNVBAMMBlN1YiBDQTAeFw0yMjA0MDUyMDM3MTlaFw0yMzA0MDUyMDM3
MTlaMEIxCzAJBgNVBAYTAlVTMSIwIAYDVQQKDBlQb3J0bGFuZCBTdGF0ZSBVbml2
ZXJzaXR5MQ8wDQYDVQQDDAZTdWIgQ0EwggEiMA0GCSqGSIb3DQEBAQUAA4IBDwAw
ggEKAoIBAQCpHyhuPDoDkhc390e/h7wGcP5oALvBiDt9ejpI1CUGTkwMUamy2fDj
rbYiWXjopAPr/7RyYRk94u9LtxwUB5T7ZGVm0KgyO/o0+zFoQeINybI92Xrtnqaj
T8cYfYSiVHhvf79eI+TLywphGvevNflRxWX80e+AeSsAy/KwcXaKfYIJaB/FVtwZ
3R86eQ9tcpRTfMhfixQLp2qPgnVokmpZkGcVQ/uGwP6pVjihiUM32lTs28XdTqyE
p1euN6+SuBzAXMfiFA2Pg/FFKjxsyPSrqcnw1s81Bz9FmAeT710tPcNdMvLEIfX9
YXx/qUXbCIkxFGk7Ku+1rpvSCntl5L9zAgMBAAGjggEbMIIBFzBtBggrBgEFBQcB
AQRhMF8wLgYIKwYBBQUHMAKGImh0dHA6Ly9zdWItY2EubG9jYWxob3N0L3N1Yi1j
YS5jcnQwLQYIKwYBBQUHMAGGIWh0dHA6Ly9vY3NwLnN1Yi1jYS5sb2NhbGhvc3Q6
OTA4MTAfBgNVHSMEGDAWgBQgTvCzHr+8HzVqxXCOoNhw1dFXRDAMBgNVHRMBAf8E
AjAAMDMGA1UdHwQsMCowKKAmoCSGImh0dHA6Ly9zdWItY2EubG9jYWxob3N0L3N1
Yi1jYS5jcmwwEwYDVR0lBAwwCgYIKwYBBQUHAwIwDgYDVR0PAQH/BAQDAgeAMB0G
A1UdDgQWBBTjDrf5d7SWWfYtOKhK2hT1IViwoDANBgkqhkiG9w0BAQsFAAOCAQEA
DbyH9MyldSamDFJrzETnE/NgDAAPADCFyRIEshyUdgCt1wD9GiUWcmg7pGUcL/un
8R/cNAogRVlp76XdhlkPCpFgA1l+LFnaRnrGQp6kUpKfBzsOkiywqHmLpRZDMtAu
z+/MRm1eIf0Lj0jUQ4HYcS9o+/XtHnUSUkEjm3aEOMJeeuYdWxNMbgknhKWQVc9O
oDX4lXM1cqBQHzj4sp0+4UYrwjTBu9ryO4xaioccNv5I3QYa/2ZS4Yu3LyV5gg7y
wyZJuYWE/90CIV2kptBi6OcXpOsFjcajQaGsrWCwNfx//LdcEHqZSXstO3uWzHci
wGEEVDhFVEJhQGEDS/YkTw==
-----END CERTIFICATE-----
