Certificate:
    Data:
        Version: 3 (0x2)
        Serial Number:
            c8:b0:ee:f0:24:01:d7:8a:1d:14:40:3b:90:ff:47:2b
        Signature Algorithm: sha256WithRSAEncryption
        Issuer: C=US, O=Portland State University, CN=Sub CA
        Validity
            Not Before: Jun 19 16:06:14 2023 GMT
            Not After : Jun 16 16:06:14 2033 GMT
        Subject: C=US, O=Portland State University, CN=Sub CA
        Subject Public Key Info:
            Public Key Algorithm: rsaEncryption
                Public-Key: (2048 bit)
                Modulus:
                    00:ab:ef:f1:98:71:76:e0:fa:15:29:9c:01:a0:41:
                    99:39:d3:8a:99:92:f6:e8:5f:47:fc:62:7c:bf:d8:
                    78:40:d3:69:01:15:24:07:fb:94:e7:61:8b:d8:77:
                    4d:89:31:d1:a6:f2:6b:e4:0d:2d:f4:ae:af:79:d2:
                    b9:fa:6a:95:23:94:fa:db:be:b2:49:9a:60:2e:93:
                    ad:23:40:eb:81:b2:91:9d:55:01:cc:d0:97:bc:26:
                    28:fb:0c:9d:c7:ef:af:c1:35:4c:9e:d0:0c:8a:5d:
                    9b:9e:5a:3a:10:29:b2:39:2e:6c:94:3d:a7:f2:07:
                    9a:78:ff:5a:f6:5c:ee:3a:e7:be:b8:c5:f9:dd:3b:
                    2c:41:95:29:93:78:93:0d:e3:75:87:fe:05:72:2a:
                    fb:f4:96:90:6c:d2:0f:0d:62:31:cf:bb:57:b9:a9:
                    1d:c0:e0:7a:70:0b:d1:f4:f4:fe:e4:4f:6e:3e:7c:
                    24:2c:00:7f:74:89:57:43:48:ad:c7:5f:04:5b:61:
                    99:3b:40:91:20:b3:52:06:8f:a6:ee:64:a9:9c:38:
                    25:6e:42:2d:e3:4e:c0:78:f7:7b:22:60:8e:0c:5c:
                    0f:c2:5d:56:57:51:2a:10:35:ff:d1:3c:a6:fa:cf:
                    ec:31:70:f6:95:e6:47:68:7f:1f:20:e2:c6:4f:73:
                    00:77
                Exponent: 65537 (0x10001)
        X509v3 extensions:
            Authority Information Access: 
                CA Issuers - URI:http://sub-ca.localhost/sub-ca.crt
                OCSP - URI:http://ocsp.sub-ca.localhost:9081
            X509v3 Authority Key Identifier: 
                4D:A1:8D:85:C1:C1:ED:E8:9A:39:B5:05:2D:3B:72:88:8F:77:D0:82
            X509v3 Basic Constraints: critical
                CA:FALSE
            X509v3 CRL Distribution Points: 
                Full Name:
                  URI:http://sub-ca.localhost/sub-ca.crl
            X509v3 Extended Key Usage: 
                TLS Web Client Authentication
            X509v3 Key Usage: critical
                Digital Signature
            X509v3 Subject Key Identifier: 
                DA:3F:EE:F4:41:CC:18:5B:D5:6F:58:D1:20:4B:2D:88:80:2D:94:4D
    Signature Algorithm: sha256WithRSAEncryption
    Signature Value:
        4b:5a:2f:b1:66:bf:3d:14:15:97:83:14:e7:8c:e1:52:92:a5:
        4e:fd:f8:e9:01:c0:7b:28:ed:8c:b4:c3:fa:37:b5:f0:25:35:
        30:da:04:52:f8:b7:67:72:cd:f1:50:9f:d9:01:8b:7c:44:78:
        5f:a6:13:4c:f9:7c:78:40:c9:66:7e:07:b9:ea:a9:94:ca:a9:
        65:96:6f:8d:e3:51:bd:6b:7f:c6:40:c4:01:f5:9e:09:fa:2e:
        79:a3:18:d3:8e:dc:ed:aa:2d:29:ee:72:ea:86:0d:f5:ac:de:
        89:02:4d:ce:75:01:61:f7:ad:4c:aa:68:fa:55:c9:70:80:77:
        9b:62:06:f4:fc:26:8d:50:cc:57:e7:72:0d:e1:2c:ed:5c:fd:
        de:11:6c:a6:64:07:51:fc:82:e7:60:e1:cf:84:ae:f5:cb:59:
        4d:26:64:89:b0:43:55:77:6d:81:8b:c5:b1:e1:ae:9a:f6:de:
        a2:53:2c:d8:30:0b:08:33:2d:12:74:dd:3f:1a:36:cc:ec:35:
        8e:d8:0d:3e:0b:d2:cc:08:63:05:b1:6d:d2:12:b5:a0:0b:0d:
        33:1c:f9:34:3e:bd:34:3c:93:e2:05:d4:12:28:f3:56:7f:8c:
        7b:b6:10:61:9d:d7:15:b6:f4:bf:7a:73:b9:3d:86:4f:0a:b8:
        90:d9:06:c8
-----BEGIN CERTIFICATE-----
MIIELDCCAxSgAwIBAgIRAMiw7vAkAdeKHRRAO5D/RyswDQYJKoZIhvcNAQELBQAw
QjELMAkGA1UEBhMCVVMxIjAgBgNVBAoMGVBvcnRsYW5kIFN0YXRlIFVuaXZlcnNp
dHkxDzANBgNVBAMMBlN1YiBDQTAeFw0yMzA2MTkxNjA2MTRaFw0zMzA2MTYxNjA2
MTRaMEIxCzAJBgNVBAYTAlVTMSIwIAYDVQQKDBlQb3J0bGFuZCBTdGF0ZSBVbml2
ZXJzaXR5MQ8wDQYDVQQDDAZTdWIgQ0EwggEiMA0GCSqGSIb3DQEBAQUAA4IBDwAw
ggEKAoIBAQCr7/GYcXbg+hUpnAGgQZk504qZkvboX0f8Yny/2HhA02kBFSQH+5Tn
YYvYd02JMdGm8mvkDS30rq950rn6apUjlPrbvrJJmmAuk60jQOuBspGdVQHM0Je8
Jij7DJ3H76/BNUye0AyKXZueWjoQKbI5LmyUPafyB5p4/1r2XO465764xfndOyxB
lSmTeJMN43WH/gVyKvv0lpBs0g8NYjHPu1e5qR3A4HpwC9H09P7kT24+fCQsAH90
iVdDSK3HXwRbYZk7QJEgs1IGj6buZKmcOCVuQi3jTsB493siYI4MXA/CXVZXUSoQ
Nf/RPKb6z+wxcPaV5kdofx8g4sZPcwB3AgMBAAGjggEbMIIBFzBtBggrBgEFBQcB
AQRhMF8wLgYIKwYBBQUHMAKGImh0dHA6Ly9zdWItY2EubG9jYWxob3N0L3N1Yi1j
YS5jcnQwLQYIKwYBBQUHMAGGIWh0dHA6Ly9vY3NwLnN1Yi1jYS5sb2NhbGhvc3Q6
OTA4MTAfBgNVHSMEGDAWgBRNoY2FwcHt6Jo5tQUtO3KIj3fQgjAMBgNVHRMBAf8E
AjAAMDMGA1UdHwQsMCowKKAmoCSGImh0dHA6Ly9zdWItY2EubG9jYWxob3N0L3N1
Yi1jYS5jcmwwEwYDVR0lBAwwCgYIKwYBBQUHAwIwDgYDVR0PAQH/BAQDAgeAMB0G
A1UdDgQWBBTaP+70QcwYW9VvWNEgSy2IgC2UTTANBgkqhkiG9w0BAQsFAAOCAQEA
S1ovsWa/PRQVl4MU54zhUpKlTv346QHAeyjtjLTD+je18CU1MNoEUvi3Z3LN8VCf
2QGLfER4X6YTTPl8eEDJZn4HueqplMqpZZZvjeNRvWt/xkDEAfWeCfoueaMY047c
7aotKe5y6oYN9azeiQJNznUBYfetTKpo+lXJcIB3m2IG9PwmjVDMV+dyDeEs7Vz9
3hFspmQHUfyC52Dhz4Su9ctZTSZkibBDVXdtgYvFseGumvbeolMs2DALCDMtEnTd
Pxo2zOw1jtgNPgvSzAhjBbFt0hK1oAsNMxz5ND69NDyT4gXUEijzVn+Me7YQYZ3X
Fbb0v3pzuT2GTwq4kNkGyA==
-----END CERTIFICATE-----
