Certificate:
    Data:
        Version: 3 (0x2)
        Serial Number:
            c8:b0:ee:f0:24:01:d7:8a:1d:14:40:3b:90:ff:47:1c
        Signature Algorithm: sha256WithRSAEncryption
        Issuer: C=US, O=Portland State University, CN=Sub CA
        Validity
            Not Before: Jun 19 16:06:11 2023 GMT
            Not After : Jun 16 16:06:11 2033 GMT
        Subject: C=US, O=Portland State University, CN=Sub CA
        Subject Public Key Info:
            Public Key Algorithm: rsaEncryption
                Public-Key: (2048 bit)
                Modulus:
                    00:d7:db:4f:17:3b:9e:2c:73:6c:80:3b:24:78:73:
                    d0:e1:ed:04:e8:0b:0c:94:ab:5b:3e:d2:1e:6e:6a:
                    de:3b:fe:1d:e8:f5:06:8b:c4:a5:d1:68:b4:4c:e7:
                    c4:b9:a7:ae:45:00:4e:08:3d:22:41:09:0d:bf:ab:
                    4b:5c:b1:bc:89:d8:33:d2:81:36:6d:a9:e2:15:ce:
                    8d:02:a5:ac:8a:0c:90:37:b2:42:1d:78:cd:cd:dd:
                    16:a0:02:a6:7e:c3:94:95:35:7c:82:1d:df:25:69:
                    44:92:ef:78:da:c1:a3:2d:f1:ab:43:96:34:22:4c:
                    82:89:5d:5a:7b:61:51:67:7a:58:ac:6a:4b:23:9d:
                    db:d5:b6:84:49:af:47:47:4b:3d:93:46:85:79:0f:
                    61:d7:e9:80:32:9b:f0:fe:ca:7f:4b:ad:ef:20:cd:
                    39:86:64:59:d0:4d:78:00:55:53:9a:9d:0a:45:ee:
                    49:46:cf:04:26:c0:19:62:02:23:78:a9:9b:62:1b:
                    e5:b6:c4:6f:ff:08:bc:57:f6:41:09:6c:e8:33:dd:
                    6d:6a:51:cb:1a:2d:93:20:6b:11:9a:a5:cc:70:b5:
                    b2:6d:8a:30:e1:d4:aa:fe:9b:7a:b2:43:c9:a2:99:
                    37:49:e4:9e:b0:57:36:e7:9f:7c:5a:84:1e:0b:cd:
                    58:6d
                Exponent: 65537 (0x10001)
        X509v3 extensions:
            Authority Information Access: 
                CA Issuers - URI:http://sub-ca.localhost/sub-ca.crt
                OCSP - URI:http://ocsp.sub-ca.localhost:9081
            X509v3 Authority Key Identifier: 
                4D:A1:8D:85:C1:C1:ED:E8:9A:39:B5:05:2D:3B:72:88:8F:77:D0:82
            X509v3 Basic Constraints: critical
                CA:FALSE
            X509v3 CRL Distribution Points: 
                Full Name:
                  URI:http://sub-ca.localhost/sub-ca.crl
            X509v3 Extended Key Usage: 
                TLS Web Client Authentication
            X509v3 Key Usage: critical
                Digital Signature
            X509v3 Subject Key Identifier: 
                9F:6B:3E:4A:52:4D:12:1A:7D:CA:A9:FB:95:C8:8B:7E:97:5D:DB:A1
    Signature Algorithm: sha256WithRSAEncryption
    Signature Value:
        6d:d0:67:a3:f6:5c:04:cf:af:f3:51:be:ea:11:ad:06:77:97:
        d9:f1:1f:1b:71:ff:15:59:53:f5:23:16:9e:34:c4:7b:68:df:
        3e:a0:d8:0b:4f:af:b9:bb:c3:b4:7e:0b:7e:90:09:8c:2d:37:
        62:c6:6f:00:4b:0a:dd:1c:44:f9:fc:90:22:ed:f2:87:ed:80:
        4c:d7:9f:99:2c:d1:52:87:ae:7d:4d:00:88:8f:5c:a9:27:c2:
        bb:c0:2e:10:b9:2c:af:00:57:bf:00:fd:ab:89:65:3d:2b:c7:
        9d:18:d8:1c:b2:e3:35:37:ef:ce:17:0c:39:99:1c:48:a8:6f:
        b7:26:3d:97:e8:d2:9c:23:40:2c:ca:ad:bd:61:1e:e4:c7:bc:
        84:6c:71:d0:fc:7b:35:4b:d3:67:f9:2a:5f:bd:3e:04:a5:82:
        dc:6e:ae:dd:97:06:0e:ee:73:3e:24:36:17:77:8a:f6:92:d0:
        e0:7f:85:94:78:75:9c:26:ce:4e:3d:ee:be:1d:b6:11:91:16:
        ed:4c:f2:4e:c6:bd:f7:bb:16:3c:1f:04:d0:ec:1c:10:76:87:
        80:e2:6b:7c:91:0e:6e:8a:4e:6f:b9:9e:bc:96:76:b8:c4:2f:
        4b:e4:99:30:2f:df:8f:e6:c7:35:11:5a:c9:58:9e:e9:4b:35:
        e5:59:56:c7
-----BEGIN CERTIFICATE-----
MIIELDCCAxSgAwIBAgIRAMiw7vAkAdeKHRRAO5D/RxwwDQYJKoZIhvcNAQELBQAw
QjELMAkGA1UEBhMCVVMxIjAgBgNVBAoMGVBvcnRsYW5kIFN0YXRlIFVuaXZlcnNp
dHkxDzANBgNVBAMMBlN1YiBDQTAeFw0yMzA2MTkxNjA2MTFaFw0zMzA2MTYxNjA2
MTFaMEIxCzAJBgNVBAYTAlVTMSIwIAYDVQQKDBlQb3J0bGFuZCBTdGF0ZSBVbml2
ZXJzaXR5MQ8wDQYDVQQDDAZTdWIgQ0EwggEiMA0GCSqGSIb3DQEBAQUAA4IBDwAw
ggEKAoIBAQDX208XO54sc2yAOyR4c9Dh7QToCwyUq1s+0h5uat47/h3o9QaLxKXR
aLRM58S5p65FAE4IPSJBCQ2/q0tcsbyJ2DPSgTZtqeIVzo0CpayKDJA3skIdeM3N
3RagAqZ+w5SVNXyCHd8laUSS73jawaMt8atDljQiTIKJXVp7YVFnelisaksjndvV
toRJr0dHSz2TRoV5D2HX6YAym/D+yn9Lre8gzTmGZFnQTXgAVVOanQpF7klGzwQm
wBliAiN4qZtiG+W2xG//CLxX9kEJbOgz3W1qUcsaLZMgaxGapcxwtbJtijDh1Kr+
m3qyQ8mimTdJ5J6wVzbnn3xahB4LzVhtAgMBAAGjggEbMIIBFzBtBggrBgEFBQcB
AQRhMF8wLgYIKwYBBQUHMAKGImh0dHA6Ly9zdWItY2EubG9jYWxob3N0L3N1Yi1j
YS5jcnQwLQYIKwYBBQUHMAGGIWh0dHA6Ly9vY3NwLnN1Yi1jYS5sb2NhbGhvc3Q6
OTA4MTAfBgNVHSMEGDAWgBRNoY2FwcHt6Jo5tQUtO3KIj3fQgjAMBgNVHRMBAf8E
AjAAMDMGA1UdHwQsMCowKKAmoCSGImh0dHA6Ly9zdWItY2EubG9jYWxob3N0L3N1
Yi1jYS5jcmwwEwYDVR0lBAwwCgYIKwYBBQUHAwIwDgYDVR0PAQH/BAQDAgeAMB0G
A1UdDgQWBBSfaz5KUk0SGn3KqfuVyIt+l13boTANBgkqhkiG9w0BAQsFAAOCAQEA
bdBno/ZcBM+v81G+6hGtBneX2fEfG3H/FVlT9SMWnjTEe2jfPqDYC0+vubvDtH4L
fpAJjC03YsZvAEsK3RxE+fyQIu3yh+2ATNefmSzRUoeufU0AiI9cqSfCu8AuELks
rwBXvwD9q4llPSvHnRjYHLLjNTfvzhcMOZkcSKhvtyY9l+jSnCNALMqtvWEe5Me8
hGxx0Px7NUvTZ/kqX70+BKWC3G6u3ZcGDu5zPiQ2F3eK9pLQ4H+FlHh1nCbOTj3u
vh22EZEW7UzyTsa997sWPB8E0OwcEHaHgOJrfJEObopOb7mevJZ2uMQvS+SZMC/f
j+bHNRFayVie6Us15VlWxw==
-----END CERTIFICATE-----
